ARM GAS  C:\Users\Silvan\AppData\Local\Temp\ccyVNicp.s 			page 1


   1              		.syntax unified
   2              		.cpu cortex-m3
   3              		.fpu softvfp
   4              		.eabi_attribute 20, 1
   5              		.eabi_attribute 21, 1
   6              		.eabi_attribute 23, 3
   7              		.eabi_attribute 24, 1
   8              		.eabi_attribute 25, 1
   9              		.eabi_attribute 26, 1
  10              		.eabi_attribute 30, 6
  11              		.eabi_attribute 34, 1
  12              		.eabi_attribute 18, 4
  13              		.thumb
  14              		.syntax unified
  15              		.file	"main.c"
  16              		.text
  17              	.Ltext0:
  18              		.cfi_sections	.debug_frame
  19              		.section	.text.main,"ax",%progbits
  20              		.align	2
  21              		.global	main
  22              		.thumb
  23              		.thumb_func
  24              		.type	main, %function
  25              	main:
  26              	.LFB63:
  27              		.file 1 "main.c"
   1:main.c        **** /*******************************************************************************
   2:main.c        **** * File: main.c      
   3:main.c        **** *
   4:main.c        **** * Version: 1.0
   5:main.c        **** * 
   6:main.c        **** * Description:
   7:main.c        **** *  This is a source code for example project that demonstates how to generate
   8:main.c        **** *  a simple SineWave using the WaveDAC8 component.
   9:main.c        **** *
  10:main.c        **** * Hardware Dependency:
  11:main.c        **** *  Pin Connections:
  12:main.c        **** *  P0[0] --> SineWave output
  13:main.c        **** * 
  14:main.c        **** * Code Tested With:
  15:main.c        **** *  1. PPSoC Creator 3.0 build 1124
  16:main.c        **** *  2. DP8051 Keil 9.51
  17:main.c        **** *  3. ARM GCC 4.7.3
  18:main.c        **** *
  19:main.c        **** ********************************************************************************
  20:main.c        **** * Copyright 2013, Cypress Semiconductor Corporation. All rights reserved.
  21:main.c        **** * This software is owned by Cypress Semiconductor Corporation and is protected
  22:main.c        **** * by and subject to worldwide patent and copyright laws and treaties.
  23:main.c        **** * Therefore, you may use this software only as provided in the license agreement
  24:main.c        **** * accompanying the software package from which you obtained this software.
  25:main.c        **** * CYPRESS AND ITS SUPPLIERS MAKE NO WARRANTY OF ANY KIND, EXPRESS OR IMPLIED,
  26:main.c        **** * WITH REGARD TO THIS SOFTWARE, INCLUDING, BUT NOT LIMITED TO, NONINFRINGEMENT,
  27:main.c        **** * IMPLIED WARRANTIES OF MERCHANTABILITY AND FITNESS FOR A PARTICULAR PURPOSE.
  28:main.c        **** *******************************************************************************/
  29:main.c        **** 
  30:main.c        **** #include <project.h>
ARM GAS  C:\Users\Silvan\AppData\Local\Temp\ccyVNicp.s 			page 2


  31:main.c        **** 
  32:main.c        **** 
  33:main.c        **** int main()
  34:main.c        **** {
  28              		.loc 1 34 0
  29              		.cfi_startproc
  30              		@ args = 0, pretend = 0, frame = 8
  31              		@ frame_needed = 1, uses_anonymous_args = 0
  32 0000 80B5     		push	{r7, lr}
  33              		.cfi_def_cfa_offset 8
  34              		.cfi_offset 7, -8
  35              		.cfi_offset 14, -4
  36 0002 82B0     		sub	sp, sp, #8
  37              		.cfi_def_cfa_offset 16
  38 0004 00AF     		add	r7, sp, #0
  39              		.cfi_def_cfa_register 7
  35:main.c        ****     WaveDAC8_1_Start(); /* Start WaveDAC8  */
  40              		.loc 1 35 0
  41 0006 FFF7FEFF 		bl	WaveDAC8_1_Start
  36:main.c        ****     uint8 freqClockDivCounter = 0;
  42              		.loc 1 36 0
  43 000a 0023     		movs	r3, #0
  44 000c FB71     		strb	r3, [r7, #7]
  45              	.L2:
  37:main.c        **** 	
  38:main.c        ****     for(;;){         /* Loop forever    */
  39:main.c        ****         Clock_1_SetDividerValue(freqClockDivCounter);
  46              		.loc 1 39 0 discriminator 1
  47 000e FB79     		ldrb	r3, [r7, #7]	@ zero_extendqisi2
  48 0010 9BB2     		uxth	r3, r3
  49 0012 013B     		subs	r3, r3, #1
  50 0014 9BB2     		uxth	r3, r3
  51 0016 0121     		movs	r1, #1
  52 0018 1846     		mov	r0, r3
  53 001a FFF7FEFF 		bl	Clock_1_SetDividerRegister
  40:main.c        ****         freqClockDivCounter++;
  54              		.loc 1 40 0 discriminator 1
  55 001e FB79     		ldrb	r3, [r7, #7]	@ zero_extendqisi2
  56 0020 0133     		adds	r3, r3, #1
  57 0022 FB71     		strb	r3, [r7, #7]
  41:main.c        ****         CyDelay(10);    
  58              		.loc 1 41 0 discriminator 1
  59 0024 0A20     		movs	r0, #10
  60 0026 FFF7FEFF 		bl	CyDelay
  42:main.c        ****     }
  61              		.loc 1 42 0 discriminator 1
  62 002a F0E7     		b	.L2
  63              		.cfi_endproc
  64              	.LFE63:
  65              		.size	main, .-main
  66              		.text
  67              	.Letext0:
  68              		.file 2 "c:\\program files (x86)\\cypress\\psoc creator\\4.4\\psoc creator\\import\\gnu\\arm\\5.4.
  69              		.file 3 "c:\\program files (x86)\\cypress\\psoc creator\\4.4\\psoc creator\\import\\gnu\\arm\\5.4.
  70              		.file 4 "Generated_Source\\PSoC5/cytypes.h"
  71              		.file 5 "Generated_Source\\PSoC5/core_cm3.h"