ARM GAS  C:\Users\silvan\AppData\Local\Temp\ccww2N2V.s 			page 1


   1              		.syntax unified
   2              		.cpu cortex-m3
   3              		.fpu softvfp
   4              		.eabi_attribute 20, 1
   5              		.eabi_attribute 21, 1
   6              		.eabi_attribute 23, 3
   7              		.eabi_attribute 24, 1
   8              		.eabi_attribute 25, 1
   9              		.eabi_attribute 26, 1
  10              		.eabi_attribute 30, 6
  11              		.eabi_attribute 34, 1
  12              		.eabi_attribute 18, 4
  13              		.thumb
  14              		.syntax unified
  15              		.file	"main.c"
  16              		.text
  17              	.Ltext0:
  18              		.cfi_sections	.debug_frame
  19              		.global	button1
  20              		.bss
  21              		.type	button1, %object
  22              		.size	button1, 1
  23              	button1:
  24 0000 00       		.space	1
  25              		.global	button2
  26              		.type	button2, %object
  27              		.size	button2, 1
  28              	button2:
  29 0001 00       		.space	1
  30              		.global	button3
  31              		.type	button3, %object
  32              		.size	button3, 1
  33              	button3:
  34 0002 00       		.space	1
  35              		.global	analogBut
  36              		.type	analogBut, %object
  37              		.size	analogBut, 1
  38              	analogBut:
  39 0003 00       		.space	1
  40              		.global	muxChannel
  41              		.type	muxChannel, %object
  42              		.size	muxChannel, 1
  43              	muxChannel:
  44 0004 00       		.space	1
  45              		.global	adcFlag
  46              		.type	adcFlag, %object
  47              		.size	adcFlag, 1
  48              	adcFlag:
  49 0005 00       		.space	1
  50              		.global	pitch
  51 0006 0000     		.align	2
  52              		.type	pitch, %object
  53              		.size	pitch, 8
  54              	pitch:
  55 0008 00000000 		.space	8
  55      00000000 
  56              		.global	oldYinput
ARM GAS  C:\Users\silvan\AppData\Local\Temp\ccww2N2V.s 			page 2


  57              		.align	2
  58              		.type	oldYinput, %object
  59              		.size	oldYinput, 4
  60              	oldYinput:
  61 0010 00000000 		.space	4
  62              		.comm	analogButFlag,1,1
  63              		.global	squarewave
  64              		.data
  65              		.align	2
  66              		.type	squarewave, %object
  67              		.size	squarewave, 502
  68              	squarewave:
  69 0000 FC       		.byte	-4
  70 0001 FC       		.byte	-4
  71 0002 FC       		.byte	-4
  72 0003 FC       		.byte	-4
  73 0004 FC       		.byte	-4
  74 0005 FC       		.byte	-4
  75 0006 FC       		.byte	-4
  76 0007 FC       		.byte	-4
  77 0008 FC       		.byte	-4
  78 0009 FC       		.byte	-4
  79 000a FC       		.byte	-4
  80 000b FC       		.byte	-4
  81 000c FC       		.byte	-4
  82 000d FC       		.byte	-4
  83 000e FC       		.byte	-4
  84 000f FC       		.byte	-4
  85 0010 FC       		.byte	-4
  86 0011 FC       		.byte	-4
  87 0012 FC       		.byte	-4
  88 0013 FC       		.byte	-4
  89 0014 FC       		.byte	-4
  90 0015 FC       		.byte	-4
  91 0016 FC       		.byte	-4
  92 0017 FC       		.byte	-4
  93 0018 FC       		.byte	-4
  94 0019 FC       		.byte	-4
  95 001a FC       		.byte	-4
  96 001b FC       		.byte	-4
  97 001c FC       		.byte	-4
  98 001d FC       		.byte	-4
  99 001e FC       		.byte	-4
 100 001f FC       		.byte	-4
 101 0020 FC       		.byte	-4
 102 0021 FC       		.byte	-4
 103 0022 FC       		.byte	-4
 104 0023 FC       		.byte	-4
 105 0024 FC       		.byte	-4
 106 0025 FC       		.byte	-4
 107 0026 FC       		.byte	-4
 108 0027 FC       		.byte	-4
 109 0028 FC       		.byte	-4
 110 0029 FC       		.byte	-4
 111 002a FC       		.byte	-4
 112 002b FC       		.byte	-4
 113 002c FC       		.byte	-4
ARM GAS  C:\Users\silvan\AppData\Local\Temp\ccww2N2V.s 			page 3


 114 002d FC       		.byte	-4
 115 002e FC       		.byte	-4
 116 002f FC       		.byte	-4
 117 0030 FC       		.byte	-4
 118 0031 FC       		.byte	-4
 119 0032 FC       		.byte	-4
 120 0033 FC       		.byte	-4
 121 0034 FC       		.byte	-4
 122 0035 FC       		.byte	-4
 123 0036 FC       		.byte	-4
 124 0037 FC       		.byte	-4
 125 0038 FC       		.byte	-4
 126 0039 FC       		.byte	-4
 127 003a FC       		.byte	-4
 128 003b FC       		.byte	-4
 129 003c FC       		.byte	-4
 130 003d FC       		.byte	-4
 131 003e FC       		.byte	-4
 132 003f FC       		.byte	-4
 133 0040 FC       		.byte	-4
 134 0041 FC       		.byte	-4
 135 0042 FC       		.byte	-4
 136 0043 FC       		.byte	-4
 137 0044 FC       		.byte	-4
 138 0045 FC       		.byte	-4
 139 0046 FC       		.byte	-4
 140 0047 FC       		.byte	-4
 141 0048 FC       		.byte	-4
 142 0049 FC       		.byte	-4
 143 004a FC       		.byte	-4
 144 004b FC       		.byte	-4
 145 004c FC       		.byte	-4
 146 004d FC       		.byte	-4
 147 004e FC       		.byte	-4
 148 004f FC       		.byte	-4
 149 0050 FC       		.byte	-4
 150 0051 FC       		.byte	-4
 151 0052 FC       		.byte	-4
 152 0053 FC       		.byte	-4
 153 0054 FC       		.byte	-4
 154 0055 FC       		.byte	-4
 155 0056 FC       		.byte	-4
 156 0057 FC       		.byte	-4
 157 0058 FC       		.byte	-4
 158 0059 FC       		.byte	-4
 159 005a FC       		.byte	-4
 160 005b FC       		.byte	-4
 161 005c FC       		.byte	-4
 162 005d FC       		.byte	-4
 163 005e FC       		.byte	-4
 164 005f FC       		.byte	-4
 165 0060 FC       		.byte	-4
 166 0061 FC       		.byte	-4
 167 0062 FC       		.byte	-4
 168 0063 FC       		.byte	-4
 169 0064 FC       		.byte	-4
 170 0065 FC       		.byte	-4
ARM GAS  C:\Users\silvan\AppData\Local\Temp\ccww2N2V.s 			page 4


 171 0066 FC       		.byte	-4
 172 0067 FC       		.byte	-4
 173 0068 FC       		.byte	-4
 174 0069 FC       		.byte	-4
 175 006a FC       		.byte	-4
 176 006b FC       		.byte	-4
 177 006c FC       		.byte	-4
 178 006d FC       		.byte	-4
 179 006e FC       		.byte	-4
 180 006f FC       		.byte	-4
 181 0070 FC       		.byte	-4
 182 0071 FC       		.byte	-4
 183 0072 FC       		.byte	-4
 184 0073 FC       		.byte	-4
 185 0074 FC       		.byte	-4
 186 0075 FC       		.byte	-4
 187 0076 FC       		.byte	-4
 188 0077 FC       		.byte	-4
 189 0078 FC       		.byte	-4
 190 0079 FC       		.byte	-4
 191 007a FC       		.byte	-4
 192 007b FC       		.byte	-4
 193 007c FC       		.byte	-4
 194 007d 00       		.byte	0
 195 007e 00       		.byte	0
 196 007f 00       		.byte	0
 197 0080 00       		.byte	0
 198 0081 00       		.byte	0
 199 0082 00       		.byte	0
 200 0083 00       		.byte	0
 201 0084 00       		.byte	0
 202 0085 00       		.byte	0
 203 0086 00       		.byte	0
 204 0087 00       		.byte	0
 205 0088 00       		.byte	0
 206 0089 00       		.byte	0
 207 008a 00       		.byte	0
 208 008b 00       		.byte	0
 209 008c 00       		.byte	0
 210 008d 00       		.byte	0
 211 008e 00       		.byte	0
 212 008f 00       		.byte	0
 213 0090 00       		.byte	0
 214 0091 00       		.byte	0
 215 0092 00       		.byte	0
 216 0093 00       		.byte	0
 217 0094 00       		.byte	0
 218 0095 00       		.byte	0
 219 0096 00       		.byte	0
 220 0097 00       		.byte	0
 221 0098 00       		.byte	0
 222 0099 00       		.byte	0
 223 009a 00       		.byte	0
 224 009b 00       		.byte	0
 225 009c 00       		.byte	0
 226 009d 00       		.byte	0
 227 009e 00       		.byte	0
ARM GAS  C:\Users\silvan\AppData\Local\Temp\ccww2N2V.s 			page 5


 228 009f 00       		.byte	0
 229 00a0 00       		.byte	0
 230 00a1 00       		.byte	0
 231 00a2 00       		.byte	0
 232 00a3 00       		.byte	0
 233 00a4 00       		.byte	0
 234 00a5 00       		.byte	0
 235 00a6 00       		.byte	0
 236 00a7 00       		.byte	0
 237 00a8 00       		.byte	0
 238 00a9 00       		.byte	0
 239 00aa 00       		.byte	0
 240 00ab 00       		.byte	0
 241 00ac 00       		.byte	0
 242 00ad 00       		.byte	0
 243 00ae 00       		.byte	0
 244 00af 00       		.byte	0
 245 00b0 00       		.byte	0
 246 00b1 00       		.byte	0
 247 00b2 00       		.byte	0
 248 00b3 00       		.byte	0
 249 00b4 00       		.byte	0
 250 00b5 00       		.byte	0
 251 00b6 00       		.byte	0
 252 00b7 00       		.byte	0
 253 00b8 00       		.byte	0
 254 00b9 00       		.byte	0
 255 00ba 00       		.byte	0
 256 00bb 00       		.byte	0
 257 00bc 00       		.byte	0
 258 00bd 00       		.byte	0
 259 00be 00       		.byte	0
 260 00bf 00       		.byte	0
 261 00c0 00       		.byte	0
 262 00c1 00       		.byte	0
 263 00c2 00       		.byte	0
 264 00c3 00       		.byte	0
 265 00c4 00       		.byte	0
 266 00c5 00       		.byte	0
 267 00c6 00       		.byte	0
 268 00c7 00       		.byte	0
 269 00c8 00       		.byte	0
 270 00c9 00       		.byte	0
 271 00ca 00       		.byte	0
 272 00cb 00       		.byte	0
 273 00cc 00       		.byte	0
 274 00cd 00       		.byte	0
 275 00ce 00       		.byte	0
 276 00cf 00       		.byte	0
 277 00d0 00       		.byte	0
 278 00d1 00       		.byte	0
 279 00d2 00       		.byte	0
 280 00d3 00       		.byte	0
 281 00d4 00       		.byte	0
 282 00d5 00       		.byte	0
 283 00d6 00       		.byte	0
 284 00d7 00       		.byte	0
ARM GAS  C:\Users\silvan\AppData\Local\Temp\ccww2N2V.s 			page 6


 285 00d8 00       		.byte	0
 286 00d9 00       		.byte	0
 287 00da 00       		.byte	0
 288 00db 00       		.byte	0
 289 00dc 00       		.byte	0
 290 00dd 00       		.byte	0
 291 00de 00       		.byte	0
 292 00df 00       		.byte	0
 293 00e0 00       		.byte	0
 294 00e1 00       		.byte	0
 295 00e2 00       		.byte	0
 296 00e3 00       		.byte	0
 297 00e4 00       		.byte	0
 298 00e5 00       		.byte	0
 299 00e6 00       		.byte	0
 300 00e7 00       		.byte	0
 301 00e8 00       		.byte	0
 302 00e9 00       		.byte	0
 303 00ea 00       		.byte	0
 304 00eb 00       		.byte	0
 305 00ec 00       		.byte	0
 306 00ed 00       		.byte	0
 307 00ee 00       		.byte	0
 308 00ef 00       		.byte	0
 309 00f0 00       		.byte	0
 310 00f1 00       		.byte	0
 311 00f2 00       		.byte	0
 312 00f3 00       		.byte	0
 313 00f4 00       		.byte	0
 314 00f5 00       		.byte	0
 315 00f6 00       		.byte	0
 316 00f7 00       		.byte	0
 317 00f8 00       		.byte	0
 318 00f9 00       		.byte	0
 319 00fa 00       		.byte	0
 320 00fb FC       		.byte	-4
 321 00fc FC       		.byte	-4
 322 00fd FC       		.byte	-4
 323 00fe FC       		.byte	-4
 324 00ff FC       		.byte	-4
 325 0100 FC       		.byte	-4
 326 0101 FC       		.byte	-4
 327 0102 FC       		.byte	-4
 328 0103 FC       		.byte	-4
 329 0104 FC       		.byte	-4
 330 0105 FC       		.byte	-4
 331 0106 FC       		.byte	-4
 332 0107 FC       		.byte	-4
 333 0108 FC       		.byte	-4
 334 0109 FC       		.byte	-4
 335 010a FC       		.byte	-4
 336 010b FC       		.byte	-4
 337 010c FC       		.byte	-4
 338 010d FC       		.byte	-4
 339 010e FC       		.byte	-4
 340 010f FC       		.byte	-4
 341 0110 FC       		.byte	-4
ARM GAS  C:\Users\silvan\AppData\Local\Temp\ccww2N2V.s 			page 7


 342 0111 FC       		.byte	-4
 343 0112 FC       		.byte	-4
 344 0113 FC       		.byte	-4
 345 0114 FC       		.byte	-4
 346 0115 FC       		.byte	-4
 347 0116 FC       		.byte	-4
 348 0117 FC       		.byte	-4
 349 0118 FC       		.byte	-4
 350 0119 FC       		.byte	-4
 351 011a FC       		.byte	-4
 352 011b FC       		.byte	-4
 353 011c FC       		.byte	-4
 354 011d FC       		.byte	-4
 355 011e FC       		.byte	-4
 356 011f FC       		.byte	-4
 357 0120 FC       		.byte	-4
 358 0121 FC       		.byte	-4
 359 0122 FC       		.byte	-4
 360 0123 FC       		.byte	-4
 361 0124 FC       		.byte	-4
 362 0125 FC       		.byte	-4
 363 0126 FC       		.byte	-4
 364 0127 FC       		.byte	-4
 365 0128 FC       		.byte	-4
 366 0129 FC       		.byte	-4
 367 012a FC       		.byte	-4
 368 012b FC       		.byte	-4
 369 012c FC       		.byte	-4
 370 012d FC       		.byte	-4
 371 012e FC       		.byte	-4
 372 012f FC       		.byte	-4
 373 0130 FC       		.byte	-4
 374 0131 FC       		.byte	-4
 375 0132 FC       		.byte	-4
 376 0133 FC       		.byte	-4
 377 0134 FC       		.byte	-4
 378 0135 FC       		.byte	-4
 379 0136 FC       		.byte	-4
 380 0137 FC       		.byte	-4
 381 0138 FC       		.byte	-4
 382 0139 FC       		.byte	-4
 383 013a FC       		.byte	-4
 384 013b FC       		.byte	-4
 385 013c FC       		.byte	-4
 386 013d FC       		.byte	-4
 387 013e FC       		.byte	-4
 388 013f FC       		.byte	-4
 389 0140 FC       		.byte	-4
 390 0141 FC       		.byte	-4
 391 0142 FC       		.byte	-4
 392 0143 FC       		.byte	-4
 393 0144 FC       		.byte	-4
 394 0145 FC       		.byte	-4
 395 0146 FC       		.byte	-4
 396 0147 FC       		.byte	-4
 397 0148 FC       		.byte	-4
 398 0149 FC       		.byte	-4
ARM GAS  C:\Users\silvan\AppData\Local\Temp\ccww2N2V.s 			page 8


 399 014a FC       		.byte	-4
 400 014b FC       		.byte	-4
 401 014c FC       		.byte	-4
 402 014d FC       		.byte	-4
 403 014e FC       		.byte	-4
 404 014f FC       		.byte	-4
 405 0150 FC       		.byte	-4
 406 0151 FC       		.byte	-4
 407 0152 FC       		.byte	-4
 408 0153 FC       		.byte	-4
 409 0154 FC       		.byte	-4
 410 0155 FC       		.byte	-4
 411 0156 FC       		.byte	-4
 412 0157 FC       		.byte	-4
 413 0158 FC       		.byte	-4
 414 0159 FC       		.byte	-4
 415 015a FC       		.byte	-4
 416 015b FC       		.byte	-4
 417 015c FC       		.byte	-4
 418 015d FC       		.byte	-4
 419 015e FC       		.byte	-4
 420 015f FC       		.byte	-4
 421 0160 FC       		.byte	-4
 422 0161 FC       		.byte	-4
 423 0162 FC       		.byte	-4
 424 0163 FC       		.byte	-4
 425 0164 FC       		.byte	-4
 426 0165 FC       		.byte	-4
 427 0166 FC       		.byte	-4
 428 0167 FC       		.byte	-4
 429 0168 FC       		.byte	-4
 430 0169 FC       		.byte	-4
 431 016a FC       		.byte	-4
 432 016b FC       		.byte	-4
 433 016c FC       		.byte	-4
 434 016d FC       		.byte	-4
 435 016e FC       		.byte	-4
 436 016f FC       		.byte	-4
 437 0170 FC       		.byte	-4
 438 0171 FC       		.byte	-4
 439 0172 FC       		.byte	-4
 440 0173 FC       		.byte	-4
 441 0174 FC       		.byte	-4
 442 0175 FC       		.byte	-4
 443 0176 FC       		.byte	-4
 444 0177 FC       		.byte	-4
 445 0178 00       		.byte	0
 446 0179 00       		.byte	0
 447 017a 00       		.byte	0
 448 017b 00       		.byte	0
 449 017c 00       		.byte	0
 450 017d 00       		.byte	0
 451 017e 00       		.byte	0
 452 017f 00       		.byte	0
 453 0180 00       		.byte	0
 454 0181 00       		.byte	0
 455 0182 00       		.byte	0
ARM GAS  C:\Users\silvan\AppData\Local\Temp\ccww2N2V.s 			page 9


 456 0183 00       		.byte	0
 457 0184 00       		.byte	0
 458 0185 00       		.byte	0
 459 0186 00       		.byte	0
 460 0187 00       		.byte	0
 461 0188 00       		.byte	0
 462 0189 00       		.byte	0
 463 018a 00       		.byte	0
 464 018b 00       		.byte	0
 465 018c 00       		.byte	0
 466 018d 00       		.byte	0
 467 018e 00       		.byte	0
 468 018f 00       		.byte	0
 469 0190 00       		.byte	0
 470 0191 00       		.byte	0
 471 0192 00       		.byte	0
 472 0193 00       		.byte	0
 473 0194 00       		.byte	0
 474 0195 00       		.byte	0
 475 0196 00       		.byte	0
 476 0197 00       		.byte	0
 477 0198 00       		.byte	0
 478 0199 00       		.byte	0
 479 019a 00       		.byte	0
 480 019b 00       		.byte	0
 481 019c 00       		.byte	0
 482 019d 00       		.byte	0
 483 019e 00       		.byte	0
 484 019f 00       		.byte	0
 485 01a0 00       		.byte	0
 486 01a1 00       		.byte	0
 487 01a2 00       		.byte	0
 488 01a3 00       		.byte	0
 489 01a4 00       		.byte	0
 490 01a5 00       		.byte	0
 491 01a6 00       		.byte	0
 492 01a7 00       		.byte	0
 493 01a8 00       		.byte	0
 494 01a9 00       		.byte	0
 495 01aa 00       		.byte	0
 496 01ab 00       		.byte	0
 497 01ac 00       		.byte	0
 498 01ad 00       		.byte	0
 499 01ae 00       		.byte	0
 500 01af 00       		.byte	0
 501 01b0 00       		.byte	0
 502 01b1 00       		.byte	0
 503 01b2 00       		.byte	0
 504 01b3 00       		.byte	0
 505 01b4 00       		.byte	0
 506 01b5 00       		.byte	0
 507 01b6 00       		.byte	0
 508 01b7 00       		.byte	0
 509 01b8 00       		.byte	0
 510 01b9 00       		.byte	0
 511 01ba 00       		.byte	0
 512 01bb 00       		.byte	0
ARM GAS  C:\Users\silvan\AppData\Local\Temp\ccww2N2V.s 			page 10


 513 01bc 00       		.byte	0
 514 01bd 00       		.byte	0
 515 01be 00       		.byte	0
 516 01bf 00       		.byte	0
 517 01c0 00       		.byte	0
 518 01c1 00       		.byte	0
 519 01c2 00       		.byte	0
 520 01c3 00       		.byte	0
 521 01c4 00       		.byte	0
 522 01c5 00       		.byte	0
 523 01c6 00       		.byte	0
 524 01c7 00       		.byte	0
 525 01c8 00       		.byte	0
 526 01c9 00       		.byte	0
 527 01ca 00       		.byte	0
 528 01cb 00       		.byte	0
 529 01cc 00       		.byte	0
 530 01cd 00       		.byte	0
 531 01ce 00       		.byte	0
 532 01cf 00       		.byte	0
 533 01d0 00       		.byte	0
 534 01d1 00       		.byte	0
 535 01d2 00       		.byte	0
 536 01d3 00       		.byte	0
 537 01d4 00       		.byte	0
 538 01d5 00       		.byte	0
 539 01d6 00       		.byte	0
 540 01d7 00       		.byte	0
 541 01d8 00       		.byte	0
 542 01d9 00       		.byte	0
 543 01da 00       		.byte	0
 544 01db 00       		.byte	0
 545 01dc 00       		.byte	0
 546 01dd 00       		.byte	0
 547 01de 00       		.byte	0
 548 01df 00       		.byte	0
 549 01e0 00       		.byte	0
 550 01e1 00       		.byte	0
 551 01e2 00       		.byte	0
 552 01e3 00       		.byte	0
 553 01e4 00       		.byte	0
 554 01e5 00       		.byte	0
 555 01e6 00       		.byte	0
 556 01e7 00       		.byte	0
 557 01e8 00       		.byte	0
 558 01e9 00       		.byte	0
 559 01ea 00       		.byte	0
 560 01eb 00       		.byte	0
 561 01ec 00       		.byte	0
 562 01ed 00       		.byte	0
 563 01ee 00       		.byte	0
 564 01ef 00       		.byte	0
 565 01f0 00       		.byte	0
 566 01f1 00       		.byte	0
 567 01f2 00       		.byte	0
 568 01f3 00       		.byte	0
 569 01f4 00       		.byte	0
ARM GAS  C:\Users\silvan\AppData\Local\Temp\ccww2N2V.s 			page 11


 570 01f5 00       		.byte	0
 571              		.global	trianglewave
 572 01f6 0000     		.align	2
 573              		.type	trianglewave, %object
 574              		.size	trianglewave, 502
 575              	trianglewave:
 576 01f8 7E       		.byte	126
 577 01f9 7F       		.byte	127
 578 01fa 80       		.byte	-128
 579 01fb 81       		.byte	-127
 580 01fc 82       		.byte	-126
 581 01fd 83       		.byte	-125
 582 01fe 84       		.byte	-124
 583 01ff 85       		.byte	-123
 584 0200 86       		.byte	-122
 585 0201 87       		.byte	-121
 586 0202 88       		.byte	-120
 587 0203 89       		.byte	-119
 588 0204 8A       		.byte	-118
 589 0205 8B       		.byte	-117
 590 0206 8C       		.byte	-116
 591 0207 8D       		.byte	-115
 592 0208 8E       		.byte	-114
 593 0209 8F       		.byte	-113
 594 020a 90       		.byte	-112
 595 020b 91       		.byte	-111
 596 020c 92       		.byte	-110
 597 020d 93       		.byte	-109
 598 020e 94       		.byte	-108
 599 020f 95       		.byte	-107
 600 0210 96       		.byte	-106
 601 0211 97       		.byte	-105
 602 0212 98       		.byte	-104
 603 0213 99       		.byte	-103
 604 0214 9A       		.byte	-102
 605 0215 9B       		.byte	-101
 606 0216 9C       		.byte	-100
 607 0217 9D       		.byte	-99
 608 0218 9E       		.byte	-98
 609 0219 9F       		.byte	-97
 610 021a A0       		.byte	-96
 611 021b A1       		.byte	-95
 612 021c A2       		.byte	-94
 613 021d A3       		.byte	-93
 614 021e A4       		.byte	-92
 615 021f A5       		.byte	-91
 616 0220 A6       		.byte	-90
 617 0221 A7       		.byte	-89
 618 0222 A8       		.byte	-88
 619 0223 A9       		.byte	-87
 620 0224 AA       		.byte	-86
 621 0225 AB       		.byte	-85
 622 0226 AC       		.byte	-84
 623 0227 AD       		.byte	-83
 624 0228 AE       		.byte	-82
 625 0229 AF       		.byte	-81
 626 022a B0       		.byte	-80
ARM GAS  C:\Users\silvan\AppData\Local\Temp\ccww2N2V.s 			page 12


 627 022b B1       		.byte	-79
 628 022c B2       		.byte	-78
 629 022d B3       		.byte	-77
 630 022e B4       		.byte	-76
 631 022f B5       		.byte	-75
 632 0230 B6       		.byte	-74
 633 0231 B7       		.byte	-73
 634 0232 B8       		.byte	-72
 635 0233 B9       		.byte	-71
 636 0234 BA       		.byte	-70
 637 0235 BB       		.byte	-69
 638 0236 BC       		.byte	-68
 639 0237 BD       		.byte	-67
 640 0238 BE       		.byte	-66
 641 0239 BF       		.byte	-65
 642 023a C0       		.byte	-64
 643 023b C1       		.byte	-63
 644 023c C2       		.byte	-62
 645 023d C3       		.byte	-61
 646 023e C4       		.byte	-60
 647 023f C5       		.byte	-59
 648 0240 C6       		.byte	-58
 649 0241 C7       		.byte	-57
 650 0242 C8       		.byte	-56
 651 0243 C9       		.byte	-55
 652 0244 CA       		.byte	-54
 653 0245 CB       		.byte	-53
 654 0246 CC       		.byte	-52
 655 0247 CD       		.byte	-51
 656 0248 CE       		.byte	-50
 657 0249 CF       		.byte	-49
 658 024a D0       		.byte	-48
 659 024b D1       		.byte	-47
 660 024c D2       		.byte	-46
 661 024d D3       		.byte	-45
 662 024e D4       		.byte	-44
 663 024f D5       		.byte	-43
 664 0250 D6       		.byte	-42
 665 0251 D7       		.byte	-41
 666 0252 D8       		.byte	-40
 667 0253 D9       		.byte	-39
 668 0254 DA       		.byte	-38
 669 0255 DB       		.byte	-37
 670 0256 DC       		.byte	-36
 671 0257 DD       		.byte	-35
 672 0258 DE       		.byte	-34
 673 0259 DF       		.byte	-33
 674 025a E0       		.byte	-32
 675 025b E1       		.byte	-31
 676 025c E2       		.byte	-30
 677 025d E3       		.byte	-29
 678 025e E4       		.byte	-28
 679 025f E5       		.byte	-27
 680 0260 E6       		.byte	-26
 681 0261 E7       		.byte	-25
 682 0262 E8       		.byte	-24
 683 0263 E9       		.byte	-23
ARM GAS  C:\Users\silvan\AppData\Local\Temp\ccww2N2V.s 			page 13


 684 0264 EA       		.byte	-22
 685 0265 EB       		.byte	-21
 686 0266 EC       		.byte	-20
 687 0267 ED       		.byte	-19
 688 0268 EE       		.byte	-18
 689 0269 EF       		.byte	-17
 690 026a F0       		.byte	-16
 691 026b F1       		.byte	-15
 692 026c F2       		.byte	-14
 693 026d F3       		.byte	-13
 694 026e F4       		.byte	-12
 695 026f F5       		.byte	-11
 696 0270 F6       		.byte	-10
 697 0271 F7       		.byte	-9
 698 0272 F8       		.byte	-8
 699 0273 F9       		.byte	-7
 700 0274 FA       		.byte	-6
 701 0275 FB       		.byte	-5
 702 0276 FC       		.byte	-4
 703 0277 02       		.byte	2
 704 0278 03       		.byte	3
 705 0279 04       		.byte	4
 706 027a 05       		.byte	5
 707 027b 06       		.byte	6
 708 027c 07       		.byte	7
 709 027d 08       		.byte	8
 710 027e 09       		.byte	9
 711 027f 0A       		.byte	10
 712 0280 0B       		.byte	11
 713 0281 0C       		.byte	12
 714 0282 0D       		.byte	13
 715 0283 0E       		.byte	14
 716 0284 0F       		.byte	15
 717 0285 10       		.byte	16
 718 0286 11       		.byte	17
 719 0287 12       		.byte	18
 720 0288 13       		.byte	19
 721 0289 14       		.byte	20
 722 028a 15       		.byte	21
 723 028b 16       		.byte	22
 724 028c 17       		.byte	23
 725 028d 18       		.byte	24
 726 028e 19       		.byte	25
 727 028f 1A       		.byte	26
 728 0290 1B       		.byte	27
 729 0291 1C       		.byte	28
 730 0292 1D       		.byte	29
 731 0293 1E       		.byte	30
 732 0294 1F       		.byte	31
 733 0295 20       		.byte	32
 734 0296 21       		.byte	33
 735 0297 22       		.byte	34
 736 0298 23       		.byte	35
 737 0299 24       		.byte	36
 738 029a 25       		.byte	37
 739 029b 26       		.byte	38
 740 029c 27       		.byte	39
ARM GAS  C:\Users\silvan\AppData\Local\Temp\ccww2N2V.s 			page 14


 741 029d 28       		.byte	40
 742 029e 29       		.byte	41
 743 029f 2A       		.byte	42
 744 02a0 2B       		.byte	43
 745 02a1 2C       		.byte	44
 746 02a2 2D       		.byte	45
 747 02a3 2E       		.byte	46
 748 02a4 2F       		.byte	47
 749 02a5 30       		.byte	48
 750 02a6 31       		.byte	49
 751 02a7 32       		.byte	50
 752 02a8 33       		.byte	51
 753 02a9 34       		.byte	52
 754 02aa 35       		.byte	53
 755 02ab 36       		.byte	54
 756 02ac 37       		.byte	55
 757 02ad 38       		.byte	56
 758 02ae 39       		.byte	57
 759 02af 3A       		.byte	58
 760 02b0 3B       		.byte	59
 761 02b1 3C       		.byte	60
 762 02b2 3D       		.byte	61
 763 02b3 3E       		.byte	62
 764 02b4 3F       		.byte	63
 765 02b5 40       		.byte	64
 766 02b6 41       		.byte	65
 767 02b7 42       		.byte	66
 768 02b8 43       		.byte	67
 769 02b9 44       		.byte	68
 770 02ba 45       		.byte	69
 771 02bb 46       		.byte	70
 772 02bc 47       		.byte	71
 773 02bd 48       		.byte	72
 774 02be 49       		.byte	73
 775 02bf 4A       		.byte	74
 776 02c0 4B       		.byte	75
 777 02c1 4C       		.byte	76
 778 02c2 4D       		.byte	77
 779 02c3 4E       		.byte	78
 780 02c4 4F       		.byte	79
 781 02c5 50       		.byte	80
 782 02c6 51       		.byte	81
 783 02c7 52       		.byte	82
 784 02c8 53       		.byte	83
 785 02c9 54       		.byte	84
 786 02ca 55       		.byte	85
 787 02cb 56       		.byte	86
 788 02cc 57       		.byte	87
 789 02cd 58       		.byte	88
 790 02ce 59       		.byte	89
 791 02cf 5A       		.byte	90
 792 02d0 5B       		.byte	91
 793 02d1 5C       		.byte	92
 794 02d2 5D       		.byte	93
 795 02d3 5E       		.byte	94
 796 02d4 5F       		.byte	95
 797 02d5 60       		.byte	96
ARM GAS  C:\Users\silvan\AppData\Local\Temp\ccww2N2V.s 			page 15


 798 02d6 61       		.byte	97
 799 02d7 62       		.byte	98
 800 02d8 63       		.byte	99
 801 02d9 64       		.byte	100
 802 02da 65       		.byte	101
 803 02db 66       		.byte	102
 804 02dc 67       		.byte	103
 805 02dd 68       		.byte	104
 806 02de 69       		.byte	105
 807 02df 6A       		.byte	106
 808 02e0 6B       		.byte	107
 809 02e1 6C       		.byte	108
 810 02e2 6D       		.byte	109
 811 02e3 6E       		.byte	110
 812 02e4 6F       		.byte	111
 813 02e5 70       		.byte	112
 814 02e6 71       		.byte	113
 815 02e7 72       		.byte	114
 816 02e8 73       		.byte	115
 817 02e9 74       		.byte	116
 818 02ea 75       		.byte	117
 819 02eb 76       		.byte	118
 820 02ec 77       		.byte	119
 821 02ed 78       		.byte	120
 822 02ee 79       		.byte	121
 823 02ef 7A       		.byte	122
 824 02f0 7B       		.byte	123
 825 02f1 7C       		.byte	124
 826 02f2 7D       		.byte	125
 827 02f3 00000000 		.space	251
 827      00000000 
 827      00000000 
 827      00000000 
 827      00000000 
 828              		.global	sinewave
 829 03ee 0000     		.align	2
 830              		.type	sinewave, %object
 831              		.size	sinewave, 502
 832              	sinewave:
 833 03f0 7F       		.byte	127
 834 03f1 80       		.byte	-128
 835 03f2 82       		.byte	-126
 836 03f3 83       		.byte	-125
 837 03f4 85       		.byte	-123
 838 03f5 86       		.byte	-122
 839 03f6 88       		.byte	-120
 840 03f7 89       		.byte	-119
 841 03f8 8B       		.byte	-117
 842 03f9 8D       		.byte	-115
 843 03fa 8E       		.byte	-114
 844 03fb 90       		.byte	-112
 845 03fc 91       		.byte	-111
 846 03fd 93       		.byte	-109
 847 03fe 94       		.byte	-108
 848 03ff 96       		.byte	-106
 849 0400 97       		.byte	-105
 850 0401 99       		.byte	-103
ARM GAS  C:\Users\silvan\AppData\Local\Temp\ccww2N2V.s 			page 16


 851 0402 9A       		.byte	-102
 852 0403 9C       		.byte	-100
 853 0404 9D       		.byte	-99
 854 0405 9F       		.byte	-97
 855 0406 A0       		.byte	-96
 856 0407 A2       		.byte	-94
 857 0408 A3       		.byte	-93
 858 0409 A5       		.byte	-91
 859 040a A6       		.byte	-90
 860 040b A8       		.byte	-88
 861 040c A9       		.byte	-87
 862 040d AB       		.byte	-85
 863 040e AC       		.byte	-84
 864 040f AE       		.byte	-82
 865 0410 AF       		.byte	-81
 866 0411 B1       		.byte	-79
 867 0412 B2       		.byte	-78
 868 0413 B4       		.byte	-76
 869 0414 B5       		.byte	-75
 870 0415 B6       		.byte	-74
 871 0416 B8       		.byte	-72
 872 0417 B9       		.byte	-71
 873 0418 BA       		.byte	-70
 874 0419 BC       		.byte	-68
 875 041a BD       		.byte	-67
 876 041b BF       		.byte	-65
 877 041c C0       		.byte	-64
 878 041d C1       		.byte	-63
 879 041e C3       		.byte	-61
 880 041f C4       		.byte	-60
 881 0420 C5       		.byte	-59
 882 0421 C6       		.byte	-58
 883 0422 C8       		.byte	-56
 884 0423 C9       		.byte	-55
 885 0424 CA       		.byte	-54
 886 0425 CB       		.byte	-53
 887 0426 CD       		.byte	-51
 888 0427 CE       		.byte	-50
 889 0428 CF       		.byte	-49
 890 0429 D0       		.byte	-48
 891 042a D1       		.byte	-47
 892 042b D3       		.byte	-45
 893 042c D4       		.byte	-44
 894 042d D5       		.byte	-43
 895 042e D6       		.byte	-42
 896 042f D7       		.byte	-41
 897 0430 D8       		.byte	-40
 898 0431 D9       		.byte	-39
 899 0432 DA       		.byte	-38
 900 0433 DB       		.byte	-37
 901 0434 DD       		.byte	-35
 902 0435 DE       		.byte	-34
 903 0436 DF       		.byte	-33
 904 0437 E0       		.byte	-32
 905 0438 E1       		.byte	-31
 906 0439 E1       		.byte	-31
 907 043a E2       		.byte	-30
ARM GAS  C:\Users\silvan\AppData\Local\Temp\ccww2N2V.s 			page 17


 908 043b E3       		.byte	-29
 909 043c E4       		.byte	-28
 910 043d E5       		.byte	-27
 911 043e E6       		.byte	-26
 912 043f E7       		.byte	-25
 913 0440 E8       		.byte	-24
 914 0441 E9       		.byte	-23
 915 0442 E9       		.byte	-23
 916 0443 EA       		.byte	-22
 917 0444 EB       		.byte	-21
 918 0445 EC       		.byte	-20
 919 0446 ED       		.byte	-19
 920 0447 ED       		.byte	-19
 921 0448 EE       		.byte	-18
 922 0449 EF       		.byte	-17
 923 044a EF       		.byte	-17
 924 044b F0       		.byte	-16
 925 044c F1       		.byte	-15
 926 044d F1       		.byte	-15
 927 044e F2       		.byte	-14
 928 044f F3       		.byte	-13
 929 0450 F3       		.byte	-13
 930 0451 F4       		.byte	-12
 931 0452 F4       		.byte	-12
 932 0453 F5       		.byte	-11
 933 0454 F5       		.byte	-11
 934 0455 F6       		.byte	-10
 935 0456 F6       		.byte	-10
 936 0457 F7       		.byte	-9
 937 0458 F7       		.byte	-9
 938 0459 F7       		.byte	-9
 939 045a F8       		.byte	-8
 940 045b F8       		.byte	-8
 941 045c F9       		.byte	-7
 942 045d F9       		.byte	-7
 943 045e F9       		.byte	-7
 944 045f F9       		.byte	-7
 945 0460 FA       		.byte	-6
 946 0461 FA       		.byte	-6
 947 0462 FA       		.byte	-6
 948 0463 FA       		.byte	-6
 949 0464 FB       		.byte	-5
 950 0465 FB       		.byte	-5
 951 0466 FB       		.byte	-5
 952 0467 FB       		.byte	-5
 953 0468 FB       		.byte	-5
 954 0469 FB       		.byte	-5
 955 046a FB       		.byte	-5
 956 046b FB       		.byte	-5
 957 046c FB       		.byte	-5
 958 046d FB       		.byte	-5
 959 046e FB       		.byte	-5
 960 046f FB       		.byte	-5
 961 0470 FB       		.byte	-5
 962 0471 FB       		.byte	-5
 963 0472 FB       		.byte	-5
 964 0473 FB       		.byte	-5
ARM GAS  C:\Users\silvan\AppData\Local\Temp\ccww2N2V.s 			page 18


 965 0474 FB       		.byte	-5
 966 0475 FB       		.byte	-5
 967 0476 FB       		.byte	-5
 968 0477 FB       		.byte	-5
 969 0478 FA       		.byte	-6
 970 0479 FA       		.byte	-6
 971 047a FA       		.byte	-6
 972 047b FA       		.byte	-6
 973 047c F9       		.byte	-7
 974 047d F9       		.byte	-7
 975 047e F9       		.byte	-7
 976 047f F9       		.byte	-7
 977 0480 F8       		.byte	-8
 978 0481 F8       		.byte	-8
 979 0482 F7       		.byte	-9
 980 0483 F7       		.byte	-9
 981 0484 F7       		.byte	-9
 982 0485 F6       		.byte	-10
 983 0486 F6       		.byte	-10
 984 0487 F5       		.byte	-11
 985 0488 F5       		.byte	-11
 986 0489 F4       		.byte	-12
 987 048a F4       		.byte	-12
 988 048b F3       		.byte	-13
 989 048c F3       		.byte	-13
 990 048d F2       		.byte	-14
 991 048e F1       		.byte	-15
 992 048f F1       		.byte	-15
 993 0490 F0       		.byte	-16
 994 0491 EF       		.byte	-17
 995 0492 EF       		.byte	-17
 996 0493 EE       		.byte	-18
 997 0494 ED       		.byte	-19
 998 0495 ED       		.byte	-19
 999 0496 EC       		.byte	-20
 1000 0497 EB       		.byte	-21
 1001 0498 EA       		.byte	-22
 1002 0499 E9       		.byte	-23
 1003 049a E9       		.byte	-23
 1004 049b E8       		.byte	-24
 1005 049c E7       		.byte	-25
 1006 049d E6       		.byte	-26
 1007 049e E5       		.byte	-27
 1008 049f E4       		.byte	-28
 1009 04a0 E3       		.byte	-29
 1010 04a1 E2       		.byte	-30
 1011 04a2 E1       		.byte	-31
 1012 04a3 E1       		.byte	-31
 1013 04a4 E0       		.byte	-32
 1014 04a5 DF       		.byte	-33
 1015 04a6 DE       		.byte	-34
 1016 04a7 DD       		.byte	-35
 1017 04a8 DB       		.byte	-37
 1018 04a9 DA       		.byte	-38
 1019 04aa D9       		.byte	-39
 1020 04ab D8       		.byte	-40
 1021 04ac D7       		.byte	-41
ARM GAS  C:\Users\silvan\AppData\Local\Temp\ccww2N2V.s 			page 19


 1022 04ad D6       		.byte	-42
 1023 04ae D5       		.byte	-43
 1024 04af D4       		.byte	-44
 1025 04b0 D3       		.byte	-45
 1026 04b1 D1       		.byte	-47
 1027 04b2 D0       		.byte	-48
 1028 04b3 CF       		.byte	-49
 1029 04b4 CE       		.byte	-50
 1030 04b5 CD       		.byte	-51
 1031 04b6 CB       		.byte	-53
 1032 04b7 CA       		.byte	-54
 1033 04b8 C9       		.byte	-55
 1034 04b9 C8       		.byte	-56
 1035 04ba C6       		.byte	-58
 1036 04bb C5       		.byte	-59
 1037 04bc C4       		.byte	-60
 1038 04bd C3       		.byte	-61
 1039 04be C1       		.byte	-63
 1040 04bf C0       		.byte	-64
 1041 04c0 BF       		.byte	-65
 1042 04c1 BD       		.byte	-67
 1043 04c2 BC       		.byte	-68
 1044 04c3 BA       		.byte	-70
 1045 04c4 B9       		.byte	-71
 1046 04c5 B8       		.byte	-72
 1047 04c6 B6       		.byte	-74
 1048 04c7 B5       		.byte	-75
 1049 04c8 B4       		.byte	-76
 1050 04c9 B2       		.byte	-78
 1051 04ca B1       		.byte	-79
 1052 04cb AF       		.byte	-81
 1053 04cc AE       		.byte	-82
 1054 04cd AC       		.byte	-84
 1055 04ce AB       		.byte	-85
 1056 04cf A9       		.byte	-87
 1057 04d0 A8       		.byte	-88
 1058 04d1 A6       		.byte	-90
 1059 04d2 A5       		.byte	-91
 1060 04d3 A3       		.byte	-93
 1061 04d4 A2       		.byte	-94
 1062 04d5 A0       		.byte	-96
 1063 04d6 9F       		.byte	-97
 1064 04d7 9D       		.byte	-99
 1065 04d8 9C       		.byte	-100
 1066 04d9 9A       		.byte	-102
 1067 04da 99       		.byte	-103
 1068 04db 97       		.byte	-105
 1069 04dc 96       		.byte	-106
 1070 04dd 94       		.byte	-108
 1071 04de 93       		.byte	-109
 1072 04df 91       		.byte	-111
 1073 04e0 90       		.byte	-112
 1074 04e1 8E       		.byte	-114
 1075 04e2 8D       		.byte	-115
 1076 04e3 8B       		.byte	-117
 1077 04e4 89       		.byte	-119
 1078 04e5 88       		.byte	-120
ARM GAS  C:\Users\silvan\AppData\Local\Temp\ccww2N2V.s 			page 20


 1079 04e6 86       		.byte	-122
 1080 04e7 85       		.byte	-123
 1081 04e8 83       		.byte	-125
 1082 04e9 82       		.byte	-126
 1083 04ea 80       		.byte	-128
 1084 04eb 7F       		.byte	127
 1085 04ec 7D       		.byte	125
 1086 04ed 7B       		.byte	123
 1087 04ee 7A       		.byte	122
 1088 04ef 78       		.byte	120
 1089 04f0 77       		.byte	119
 1090 04f1 75       		.byte	117
 1091 04f2 74       		.byte	116
 1092 04f3 72       		.byte	114
 1093 04f4 70       		.byte	112
 1094 04f5 6F       		.byte	111
 1095 04f6 6D       		.byte	109
 1096 04f7 6C       		.byte	108
 1097 04f8 6A       		.byte	106
 1098 04f9 69       		.byte	105
 1099 04fa 67       		.byte	103
 1100 04fb 66       		.byte	102
 1101 04fc 64       		.byte	100
 1102 04fd 63       		.byte	99
 1103 04fe 61       		.byte	97
 1104 04ff 60       		.byte	96
 1105 0500 5E       		.byte	94
 1106 0501 5D       		.byte	93
 1107 0502 5B       		.byte	91
 1108 0503 5A       		.byte	90
 1109 0504 58       		.byte	88
 1110 0505 57       		.byte	87
 1111 0506 55       		.byte	85
 1112 0507 54       		.byte	84
 1113 0508 52       		.byte	82
 1114 0509 51       		.byte	81
 1115 050a 4F       		.byte	79
 1116 050b 4E       		.byte	78
 1117 050c 4C       		.byte	76
 1118 050d 4B       		.byte	75
 1119 050e 49       		.byte	73
 1120 050f 48       		.byte	72
 1121 0510 47       		.byte	71
 1122 0511 45       		.byte	69
 1123 0512 44       		.byte	68
 1124 0513 43       		.byte	67
 1125 0514 41       		.byte	65
 1126 0515 40       		.byte	64
 1127 0516 3E       		.byte	62
 1128 0517 3D       		.byte	61
 1129 0518 3C       		.byte	60
 1130 0519 3A       		.byte	58
 1131 051a 39       		.byte	57
 1132 051b 38       		.byte	56
 1133 051c 37       		.byte	55
 1134 051d 35       		.byte	53
 1135 051e 34       		.byte	52
ARM GAS  C:\Users\silvan\AppData\Local\Temp\ccww2N2V.s 			page 21


 1136 051f 33       		.byte	51
 1137 0520 32       		.byte	50
 1138 0521 30       		.byte	48
 1139 0522 2F       		.byte	47
 1140 0523 2E       		.byte	46
 1141 0524 2D       		.byte	45
 1142 0525 2C       		.byte	44
 1143 0526 2A       		.byte	42
 1144 0527 29       		.byte	41
 1145 0528 28       		.byte	40
 1146 0529 27       		.byte	39
 1147 052a 26       		.byte	38
 1148 052b 25       		.byte	37
 1149 052c 24       		.byte	36
 1150 052d 23       		.byte	35
 1151 052e 22       		.byte	34
 1152 052f 20       		.byte	32
 1153 0530 1F       		.byte	31
 1154 0531 1E       		.byte	30
 1155 0532 1D       		.byte	29
 1156 0533 1C       		.byte	28
 1157 0534 1C       		.byte	28
 1158 0535 1B       		.byte	27
 1159 0536 1A       		.byte	26
 1160 0537 19       		.byte	25
 1161 0538 18       		.byte	24
 1162 0539 17       		.byte	23
 1163 053a 16       		.byte	22
 1164 053b 15       		.byte	21
 1165 053c 14       		.byte	20
 1166 053d 14       		.byte	20
 1167 053e 13       		.byte	19
 1168 053f 12       		.byte	18
 1169 0540 11       		.byte	17
 1170 0541 10       		.byte	16
 1171 0542 10       		.byte	16
 1172 0543 0F       		.byte	15
 1173 0544 0E       		.byte	14
 1174 0545 0E       		.byte	14
 1175 0546 0D       		.byte	13
 1176 0547 0C       		.byte	12
 1177 0548 0C       		.byte	12
 1178 0549 0B       		.byte	11
 1179 054a 0A       		.byte	10
 1180 054b 0A       		.byte	10
 1181 054c 09       		.byte	9
 1182 054d 09       		.byte	9
 1183 054e 08       		.byte	8
 1184 054f 08       		.byte	8
 1185 0550 07       		.byte	7
 1186 0551 07       		.byte	7
 1187 0552 06       		.byte	6
 1188 0553 06       		.byte	6
 1189 0554 06       		.byte	6
 1190 0555 05       		.byte	5
 1191 0556 05       		.byte	5
 1192 0557 04       		.byte	4
ARM GAS  C:\Users\silvan\AppData\Local\Temp\ccww2N2V.s 			page 22


 1193 0558 04       		.byte	4
 1194 0559 04       		.byte	4
 1195 055a 04       		.byte	4
 1196 055b 03       		.byte	3
 1197 055c 03       		.byte	3
 1198 055d 03       		.byte	3
 1199 055e 03       		.byte	3
 1200 055f 02       		.byte	2
 1201 0560 02       		.byte	2
 1202 0561 02       		.byte	2
 1203 0562 02       		.byte	2
 1204 0563 02       		.byte	2
 1205 0564 02       		.byte	2
 1206 0565 02       		.byte	2
 1207 0566 02       		.byte	2
 1208 0567 02       		.byte	2
 1209 0568 02       		.byte	2
 1210 0569 02       		.byte	2
 1211 056a 02       		.byte	2
 1212 056b 02       		.byte	2
 1213 056c 02       		.byte	2
 1214 056d 02       		.byte	2
 1215 056e 02       		.byte	2
 1216 056f 02       		.byte	2
 1217 0570 02       		.byte	2
 1218 0571 02       		.byte	2
 1219 0572 02       		.byte	2
 1220 0573 03       		.byte	3
 1221 0574 03       		.byte	3
 1222 0575 03       		.byte	3
 1223 0576 03       		.byte	3
 1224 0577 04       		.byte	4
 1225 0578 04       		.byte	4
 1226 0579 04       		.byte	4
 1227 057a 04       		.byte	4
 1228 057b 05       		.byte	5
 1229 057c 05       		.byte	5
 1230 057d 06       		.byte	6
 1231 057e 06       		.byte	6
 1232 057f 06       		.byte	6
 1233 0580 07       		.byte	7
 1234 0581 07       		.byte	7
 1235 0582 08       		.byte	8
 1236 0583 08       		.byte	8
 1237 0584 09       		.byte	9
 1238 0585 09       		.byte	9
 1239 0586 0A       		.byte	10
 1240 0587 0A       		.byte	10
 1241 0588 0B       		.byte	11
 1242 0589 0C       		.byte	12
 1243 058a 0C       		.byte	12
 1244 058b 0D       		.byte	13
 1245 058c 0E       		.byte	14
 1246 058d 0E       		.byte	14
 1247 058e 0F       		.byte	15
 1248 058f 10       		.byte	16
 1249 0590 10       		.byte	16
ARM GAS  C:\Users\silvan\AppData\Local\Temp\ccww2N2V.s 			page 23


 1250 0591 11       		.byte	17
 1251 0592 12       		.byte	18
 1252 0593 13       		.byte	19
 1253 0594 14       		.byte	20
 1254 0595 14       		.byte	20
 1255 0596 15       		.byte	21
 1256 0597 16       		.byte	22
 1257 0598 17       		.byte	23
 1258 0599 18       		.byte	24
 1259 059a 19       		.byte	25
 1260 059b 1A       		.byte	26
 1261 059c 1B       		.byte	27
 1262 059d 1C       		.byte	28
 1263 059e 1C       		.byte	28
 1264 059f 1D       		.byte	29
 1265 05a0 1E       		.byte	30
 1266 05a1 1F       		.byte	31
 1267 05a2 20       		.byte	32
 1268 05a3 22       		.byte	34
 1269 05a4 23       		.byte	35
 1270 05a5 24       		.byte	36
 1271 05a6 25       		.byte	37
 1272 05a7 26       		.byte	38
 1273 05a8 27       		.byte	39
 1274 05a9 28       		.byte	40
 1275 05aa 29       		.byte	41
 1276 05ab 2A       		.byte	42
 1277 05ac 2C       		.byte	44
 1278 05ad 2D       		.byte	45
 1279 05ae 2E       		.byte	46
 1280 05af 2F       		.byte	47
 1281 05b0 30       		.byte	48
 1282 05b1 32       		.byte	50
 1283 05b2 33       		.byte	51
 1284 05b3 34       		.byte	52
 1285 05b4 35       		.byte	53
 1286 05b5 37       		.byte	55
 1287 05b6 38       		.byte	56
 1288 05b7 39       		.byte	57
 1289 05b8 3A       		.byte	58
 1290 05b9 3C       		.byte	60
 1291 05ba 3D       		.byte	61
 1292 05bb 3E       		.byte	62
 1293 05bc 40       		.byte	64
 1294 05bd 41       		.byte	65
 1295 05be 43       		.byte	67
 1296 05bf 44       		.byte	68
 1297 05c0 45       		.byte	69
 1298 05c1 47       		.byte	71
 1299 05c2 48       		.byte	72
 1300 05c3 49       		.byte	73
 1301 05c4 4B       		.byte	75
 1302 05c5 4C       		.byte	76
 1303 05c6 4E       		.byte	78
 1304 05c7 4F       		.byte	79
 1305 05c8 51       		.byte	81
 1306 05c9 52       		.byte	82
ARM GAS  C:\Users\silvan\AppData\Local\Temp\ccww2N2V.s 			page 24


 1307 05ca 54       		.byte	84
 1308 05cb 55       		.byte	85
 1309 05cc 57       		.byte	87
 1310 05cd 58       		.byte	88
 1311 05ce 5A       		.byte	90
 1312 05cf 5B       		.byte	91
 1313 05d0 5D       		.byte	93
 1314 05d1 5E       		.byte	94
 1315 05d2 60       		.byte	96
 1316 05d3 61       		.byte	97
 1317 05d4 63       		.byte	99
 1318 05d5 64       		.byte	100
 1319 05d6 66       		.byte	102
 1320 05d7 67       		.byte	103
 1321 05d8 69       		.byte	105
 1322 05d9 6A       		.byte	106
 1323 05da 6C       		.byte	108
 1324 05db 6D       		.byte	109
 1325 05dc 6F       		.byte	111
 1326 05dd 70       		.byte	112
 1327 05de 72       		.byte	114
 1328 05df 74       		.byte	116
 1329 05e0 75       		.byte	117
 1330 05e1 77       		.byte	119
 1331 05e2 78       		.byte	120
 1332 05e3 7A       		.byte	122
 1333 05e4 7B       		.byte	123
 1334 05e5 7D       		.byte	125
 1335              		.global	waveMode
 1336              		.bss
 1337              		.type	waveMode, %object
 1338              		.size	waveMode, 1
 1339              	waveMode:
 1340 0014 00       		.space	1
 1341              		.global	notes
 1342              		.section	.rodata
 1343              		.align	2
 1344              		.type	notes, %object
 1345              		.size	notes, 324
 1346              	notes:
 1347 0000 433020   		.ascii	"C0 "
 1348 0003 432330   		.ascii	"C#0"
 1349 0006 443020   		.ascii	"D0 "
 1350 0009 442330   		.ascii	"D#0"
 1351 000c 453020   		.ascii	"E0 "
 1352 000f 463020   		.ascii	"F0 "
 1353 0012 462330   		.ascii	"F#0"
 1354 0015 473020   		.ascii	"G0 "
 1355 0018 472330   		.ascii	"G#0"
 1356 001b 413020   		.ascii	"A0 "
 1357 001e 412330   		.ascii	"A#0"
 1358 0021 423020   		.ascii	"B0 "
 1359 0024 433120   		.ascii	"C1 "
 1360 0027 432331   		.ascii	"C#1"
 1361 002a 443120   		.ascii	"D1 "
 1362 002d 442331   		.ascii	"D#1"
 1363 0030 453120   		.ascii	"E1 "
ARM GAS  C:\Users\silvan\AppData\Local\Temp\ccww2N2V.s 			page 25


 1364 0033 463120   		.ascii	"F1 "
 1365 0036 462331   		.ascii	"F#1"
 1366 0039 473120   		.ascii	"G1 "
 1367 003c 472331   		.ascii	"G#1"
 1368 003f 413120   		.ascii	"A1 "
 1369 0042 412331   		.ascii	"A#1"
 1370 0045 423120   		.ascii	"B1 "
 1371 0048 433220   		.ascii	"C2 "
 1372 004b 432332   		.ascii	"C#2"
 1373 004e 443220   		.ascii	"D2 "
 1374 0051 442332   		.ascii	"D#2"
 1375 0054 453220   		.ascii	"E2 "
 1376 0057 463220   		.ascii	"F2 "
 1377 005a 462332   		.ascii	"F#2"
 1378 005d 473220   		.ascii	"G2 "
 1379 0060 472332   		.ascii	"G#2"
 1380 0063 413220   		.ascii	"A2 "
 1381 0066 412332   		.ascii	"A#2"
 1382 0069 423220   		.ascii	"B2 "
 1383 006c 433320   		.ascii	"C3 "
 1384 006f 432333   		.ascii	"C#3"
 1385 0072 443320   		.ascii	"D3 "
 1386 0075 442333   		.ascii	"D#3"
 1387 0078 453320   		.ascii	"E3 "
 1388 007b 463320   		.ascii	"F3 "
 1389 007e 462333   		.ascii	"F#3"
 1390 0081 473320   		.ascii	"G3 "
 1391 0084 472333   		.ascii	"G#3"
 1392 0087 413320   		.ascii	"A3 "
 1393 008a 412333   		.ascii	"A#3"
 1394 008d 423320   		.ascii	"B3 "
 1395 0090 433420   		.ascii	"C4 "
 1396 0093 432334   		.ascii	"C#4"
 1397 0096 443420   		.ascii	"D4 "
 1398 0099 442334   		.ascii	"D#4"
 1399 009c 453420   		.ascii	"E4 "
 1400 009f 463420   		.ascii	"F4 "
 1401 00a2 462334   		.ascii	"F#4"
 1402 00a5 473420   		.ascii	"G4 "
 1403 00a8 472334   		.ascii	"G#4"
 1404 00ab 413420   		.ascii	"A4 "
 1405 00ae 412334   		.ascii	"A#4"
 1406 00b1 423420   		.ascii	"B4 "
 1407 00b4 433520   		.ascii	"C5 "
 1408 00b7 432335   		.ascii	"C#5"
 1409 00ba 443520   		.ascii	"D5 "
 1410 00bd 442335   		.ascii	"D#5"
 1411 00c0 453520   		.ascii	"E5 "
 1412 00c3 463520   		.ascii	"F5 "
 1413 00c6 462335   		.ascii	"F#5"
 1414 00c9 473520   		.ascii	"G5 "
 1415 00cc 472335   		.ascii	"G#5"
 1416 00cf 413520   		.ascii	"A5 "
 1417 00d2 412335   		.ascii	"A#5"
 1418 00d5 423520   		.ascii	"B5 "
 1419 00d8 433620   		.ascii	"C6 "
 1420 00db 432336   		.ascii	"C#6"
ARM GAS  C:\Users\silvan\AppData\Local\Temp\ccww2N2V.s 			page 26


 1421 00de 443620   		.ascii	"D6 "
 1422 00e1 442336   		.ascii	"D#6"
 1423 00e4 453620   		.ascii	"E6 "
 1424 00e7 463620   		.ascii	"F6 "
 1425 00ea 462336   		.ascii	"F#6"
 1426 00ed 473620   		.ascii	"G6 "
 1427 00f0 472336   		.ascii	"G#6"
 1428 00f3 413620   		.ascii	"A6 "
 1429 00f6 412336   		.ascii	"A#6"
 1430 00f9 423620   		.ascii	"B6 "
 1431 00fc 433720   		.ascii	"C7 "
 1432 00ff 432337   		.ascii	"C#7"
 1433 0102 443720   		.ascii	"D7 "
 1434 0105 442337   		.ascii	"D#7"
 1435 0108 453720   		.ascii	"E7 "
 1436 010b 463720   		.ascii	"F7 "
 1437 010e 462337   		.ascii	"F#7"
 1438 0111 473720   		.ascii	"G7 "
 1439 0114 472337   		.ascii	"G#7"
 1440 0117 413720   		.ascii	"A7 "
 1441 011a 412337   		.ascii	"A#7"
 1442 011d 423720   		.ascii	"B7 "
 1443 0120 433820   		.ascii	"C8 "
 1444 0123 432338   		.ascii	"C#8"
 1445 0126 443820   		.ascii	"D8 "
 1446 0129 442338   		.ascii	"D#8"
 1447 012c 453820   		.ascii	"E8 "
 1448 012f 463820   		.ascii	"F8 "
 1449 0132 462338   		.ascii	"F#8"
 1450 0135 473820   		.ascii	"G8 "
 1451 0138 472338   		.ascii	"G#8"
 1452 013b 413820   		.ascii	"A8 "
 1453 013e 412338   		.ascii	"A#8"
 1454 0141 423820   		.ascii	"B8 "
 1455              		.global	intFrequency
 1456              		.align	2
 1457              		.type	intFrequency, %object
 1458              		.size	intFrequency, 216
 1459              	intFrequency:
 1460 0144 1000     		.short	16
 1461 0146 1100     		.short	17
 1462 0148 1200     		.short	18
 1463 014a 1300     		.short	19
 1464 014c 1500     		.short	21
 1465 014e 1600     		.short	22
 1466 0150 1700     		.short	23
 1467 0152 1900     		.short	25
 1468 0154 1A00     		.short	26
 1469 0156 1C00     		.short	28
 1470 0158 1D00     		.short	29
 1471 015a 1F00     		.short	31
 1472 015c 2100     		.short	33
 1473 015e 2300     		.short	35
 1474 0160 2500     		.short	37
 1475 0162 2700     		.short	39
 1476 0164 2900     		.short	41
 1477 0166 2C00     		.short	44
ARM GAS  C:\Users\silvan\AppData\Local\Temp\ccww2N2V.s 			page 27


 1478 0168 2E00     		.short	46
 1479 016a 3100     		.short	49
 1480 016c 3400     		.short	52
 1481 016e 3700     		.short	55
 1482 0170 3A00     		.short	58
 1483 0172 3E00     		.short	62
 1484 0174 4100     		.short	65
 1485 0176 4500     		.short	69
 1486 0178 4900     		.short	73
 1487 017a 4E00     		.short	78
 1488 017c 5200     		.short	82
 1489 017e 5700     		.short	87
 1490 0180 5C00     		.short	92
 1491 0182 6200     		.short	98
 1492 0184 6800     		.short	104
 1493 0186 6E00     		.short	110
 1494 0188 7500     		.short	117
 1495 018a 7B00     		.short	123
 1496 018c 8300     		.short	131
 1497 018e 8B00     		.short	139
 1498 0190 9300     		.short	147
 1499 0192 9C00     		.short	156
 1500 0194 A500     		.short	165
 1501 0196 AF00     		.short	175
 1502 0198 B900     		.short	185
 1503 019a C400     		.short	196
 1504 019c D000     		.short	208
 1505 019e DC00     		.short	220
 1506 01a0 E900     		.short	233
 1507 01a2 F700     		.short	247
 1508 01a4 0601     		.short	262
 1509 01a6 1501     		.short	277
 1510 01a8 2601     		.short	294
 1511 01aa 3701     		.short	311
 1512 01ac 4A01     		.short	330
 1513 01ae 5D01     		.short	349
 1514 01b0 7201     		.short	370
 1515 01b2 8801     		.short	392
 1516 01b4 9F01     		.short	415
 1517 01b6 B801     		.short	440
 1518 01b8 D201     		.short	466
 1519 01ba EE01     		.short	494
 1520 01bc 0B02     		.short	523
 1521 01be 2A02     		.short	554
 1522 01c0 4B02     		.short	587
 1523 01c2 6E02     		.short	622
 1524 01c4 9302     		.short	659
 1525 01c6 BA02     		.short	698
 1526 01c8 E402     		.short	740
 1527 01ca 1003     		.short	784
 1528 01cc 3F03     		.short	831
 1529 01ce 7003     		.short	880
 1530 01d0 A403     		.short	932
 1531 01d2 DC03     		.short	988
 1532 01d4 1704     		.short	1047
 1533 01d6 5504     		.short	1109
 1534 01d8 9704     		.short	1175
ARM GAS  C:\Users\silvan\AppData\Local\Temp\ccww2N2V.s 			page 28


 1535 01da DD04     		.short	1245
 1536 01dc 2705     		.short	1319
 1537 01de 7505     		.short	1397
 1538 01e0 C805     		.short	1480
 1539 01e2 2006     		.short	1568
 1540 01e4 7D06     		.short	1661
 1541 01e6 E006     		.short	1760
 1542 01e8 4907     		.short	1865
 1543 01ea B807     		.short	1976
 1544 01ec 2D08     		.short	2093
 1545 01ee A908     		.short	2217
 1546 01f0 2D09     		.short	2349
 1547 01f2 B909     		.short	2489
 1548 01f4 4D0A     		.short	2637
 1549 01f6 EA0A     		.short	2794
 1550 01f8 900B     		.short	2960
 1551 01fa 400C     		.short	3136
 1552 01fc FA0C     		.short	3322
 1553 01fe C00D     		.short	3520
 1554 0200 920E     		.short	3730
 1555 0202 6F0F     		.short	3951
 1556 0204 5A10     		.short	4186
 1557 0206 5311     		.short	4435
 1558 0208 5B12     		.short	4699
 1559 020a 7213     		.short	4978
 1560 020c 9A14     		.short	5274
 1561 020e D415     		.short	5588
 1562 0210 1F17     		.short	5919
 1563 0212 8018     		.short	6272
 1564 0214 F519     		.short	6645
 1565 0216 801B     		.short	7040
 1566 0218 231D     		.short	7459
 1567 021a DE1E     		.short	7902
 1568              		.global	frequency
 1569 021c 00000000 		.align	3
 1570              		.type	frequency, %object
 1571              		.size	frequency, 864
 1572              	frequency:
 1573 0220 9A999999 		.word	-1717986918
 1574 0224 99593040 		.word	1076910489
 1575 0228 52B81E85 		.word	-2061584302
 1576 022c EB513140 		.word	1076974059
 1577 0230 9A999999 		.word	-1717986918
 1578 0234 99593240 		.word	1077041561
 1579 0238 33333333 		.word	858993459
 1580 023c 33733340 		.word	1077113651
 1581 0240 9A999999 		.word	-1717986918
 1582 0244 99993440 		.word	1077189017
 1583 0248 14AE47E1 		.word	-515396076
 1584 024c 7AD43540 		.word	1077269626
 1585 0250 1F85EB51 		.word	1374389535
 1586 0254 B81E3740 		.word	1077354168
 1587 0258 00000000 		.word	0
 1588 025c 00803840 		.word	1077444608
 1589 0260 F6285C8F 		.word	-1889785610
 1590 0264 C2F53940 		.word	1077540290
 1591 0268 00000000 		.word	0
ARM GAS  C:\Users\silvan\AppData\Local\Temp\ccww2N2V.s 			page 29


 1592 026c 00803B40 		.word	1077641216
 1593 0270 A4703D0A 		.word	171798692
 1594 0274 D7233D40 		.word	1077748695
 1595 0278 1F85EB51 		.word	1374389535
 1596 027c B8DE3E40 		.word	1077862072
 1597 0280 9A999999 		.word	-1717986918
 1598 0284 99594040 		.word	1077959065
 1599 0288 33333333 		.word	858993459
 1600 028c 33534140 		.word	1078022963
 1601 0290 7B14AE47 		.word	1202590843
 1602 0294 E15A4240 		.word	1078090465
 1603 0298 52B81E85 		.word	-2061584302
 1604 029c EB714340 		.word	1078161899
 1605 02a0 9A999999 		.word	-1717986918
 1606 02a4 99994440 		.word	1078237593
 1607 02a8 33333333 		.word	858993459
 1608 02ac 33D34540 		.word	1078317875
 1609 02b0 00000000 		.word	0
 1610 02b4 00204740 		.word	1078403072
 1611 02b8 00000000 		.word	0
 1612 02bc 00804840 		.word	1078493184
 1613 02c0 14AE47E1 		.word	-515396076
 1614 02c4 7AF44940 		.word	1078588538
 1615 02c8 00000000 		.word	0
 1616 02cc 00804B40 		.word	1078689792
 1617 02d0 C3F5285C 		.word	1546188227
 1618 02d4 8F224D40 		.word	1078796943
 1619 02d8 1F85EB51 		.word	1374389535
 1620 02dc B8DE4E40 		.word	1078910648
 1621 02e0 0AD7A370 		.word	1889785610
 1622 02e4 3D5A5040 		.word	1079007805
 1623 02e8 33333333 		.word	858993459
 1624 02ec 33535140 		.word	1079071539
 1625 02f0 7B14AE47 		.word	1202590843
 1626 02f4 E15A5240 		.word	1079139041
 1627 02f8 52B81E85 		.word	-2061584302
 1628 02fc EB715340 		.word	1079210475
 1629 0300 0AD7A370 		.word	1889785610
 1630 0304 3D9A5440 		.word	1079286333
 1631 0308 A4703D0A 		.word	171798692
 1632 030c D7D35540 		.word	1079366615
 1633 0310 00000000 		.word	0
 1634 0314 00205740 		.word	1079451648
 1635 0318 00000000 		.word	0
 1636 031c 00805840 		.word	1079541760
 1637 0320 85EB51B8 		.word	-1202590843
 1638 0324 1EF55940 		.word	1079637278
 1639 0328 00000000 		.word	0
 1640 032c 00805B40 		.word	1079738368
 1641 0330 C3F5285C 		.word	1546188227
 1642 0334 8F225D40 		.word	1079845519
 1643 0338 AE47E17A 		.word	2061584302
 1644 033c 14DE5E40 		.word	1079959060
 1645 0340 52B81E85 		.word	-2061584302
 1646 0344 EB596040 		.word	1080056299
 1647 0348 7B14AE47 		.word	1202590843
 1648 034c E1526140 		.word	1080120033
ARM GAS  C:\Users\silvan\AppData\Local\Temp\ccww2N2V.s 			page 30


 1649 0350 C3F5285C 		.word	1546188227
 1650 0354 8F5A6240 		.word	1080187535
 1651 0358 52B81E85 		.word	-2061584302
 1652 035c EB716340 		.word	1080259051
 1653 0360 52B81E85 		.word	-2061584302
 1654 0364 EB996440 		.word	1080334827
 1655 0368 EC51B81E 		.word	515396076
 1656 036c 85D36540 		.word	1080415109
 1657 0370 00000000 		.word	0
 1658 0374 00206740 		.word	1080500224
 1659 0378 00000000 		.word	0
 1660 037c 00806840 		.word	1080590336
 1661 0380 CDCCCCCC 		.word	-858993459
 1662 0384 CCF46940 		.word	1080685772
 1663 0388 00000000 		.word	0
 1664 038c 00806B40 		.word	1080786944
 1665 0390 C3F5285C 		.word	1546188227
 1666 0394 8F226D40 		.word	1080894095
 1667 0398 AE47E17A 		.word	2061584302
 1668 039c 14DE6E40 		.word	1081007636
 1669 03a0 AE47E17A 		.word	2061584302
 1670 03a4 145A7040 		.word	1081104916
 1671 03a8 7B14AE47 		.word	1202590843
 1672 03ac E1527140 		.word	1081168609
 1673 03b0 C3F5285C 		.word	1546188227
 1674 03b4 8F5A7240 		.word	1081236111
 1675 03b8 AE47E17A 		.word	2061584302
 1676 03bc 14727340 		.word	1081307668
 1677 03c0 AE47E17A 		.word	2061584302
 1678 03c4 149A7440 		.word	1081383444
 1679 03c8 48E17A14 		.word	343597384
 1680 03cc AED37540 		.word	1081463726
 1681 03d0 A4703D0A 		.word	171798692
 1682 03d4 D71F7740 		.word	1081548759
 1683 03d8 00000000 		.word	0
 1684 03dc 00807840 		.word	1081638912
 1685 03e0 CDCCCCCC 		.word	-858993459
 1686 03e4 CCF47940 		.word	1081734348
 1687 03e8 00000000 		.word	0
 1688 03ec 00807B40 		.word	1081835520
 1689 03f0 C3F5285C 		.word	1546188227
 1690 03f4 8F227D40 		.word	1081942671
 1691 03f8 AE47E17A 		.word	2061584302
 1692 03fc 14DE7E40 		.word	1082056212
 1693 0400 00000000 		.word	0
 1694 0404 005A8040 		.word	1082153472
 1695 0408 295C8FC2 		.word	-1030792151
 1696 040c F5528140 		.word	1082217205
 1697 0410 713D0AD7 		.word	-687194767
 1698 0414 A35A8240 		.word	1082284707
 1699 0418 00000000 		.word	0
 1700 041c 00728340 		.word	1082356224
 1701 0420 00000000 		.word	0
 1702 0424 009A8440 		.word	1082432000
 1703 0428 48E17A14 		.word	343597384
 1704 042c AED38540 		.word	1082512302
 1705 0430 52B81E85 		.word	-2061584302
ARM GAS  C:\Users\silvan\AppData\Local\Temp\ccww2N2V.s 			page 31


 1706 0434 EB1F8740 		.word	1082597355
 1707 0438 52B81E85 		.word	-2061584302
 1708 043c EB7F8840 		.word	1082687467
 1709 0440 7B14AE47 		.word	1202590843
 1710 0444 E1F48940 		.word	1082782945
 1711 0448 00000000 		.word	0
 1712 044c 00808B40 		.word	1082884096
 1713 0450 713D0AD7 		.word	-687194767
 1714 0454 A3228D40 		.word	1082991267
 1715 0458 5C8FC2F5 		.word	-171798692
 1716 045c 28DE8E40 		.word	1083104808
 1717 0460 00000000 		.word	0
 1718 0464 005A9040 		.word	1083202048
 1719 0468 52B81E85 		.word	-2061584302
 1720 046c EB529140 		.word	1083265771
 1721 0470 713D0AD7 		.word	-687194767
 1722 0474 A35A9240 		.word	1083333283
 1723 0478 D7A3703D 		.word	1030792151
 1724 047c 0A729340 		.word	1083404810
 1725 0480 D7A3703D 		.word	1030792151
 1726 0484 0A9A9440 		.word	1083480586
 1727 0488 713D0AD7 		.word	-687194767
 1728 048c A3D39540 		.word	1083560867
 1729 0490 52B81E85 		.word	-2061584302
 1730 0494 EB1F9740 		.word	1083645931
 1731 0498 52B81E85 		.word	-2061584302
 1732 049c EB7F9840 		.word	1083736043
 1733 04a0 7B14AE47 		.word	1202590843
 1734 04a4 E1F49940 		.word	1083831521
 1735 04a8 00000000 		.word	0
 1736 04ac 00809B40 		.word	1083932672
 1737 04b0 713D0AD7 		.word	-687194767
 1738 04b4 A3229D40 		.word	1084039843
 1739 04b8 85EB51B8 		.word	-1202590843
 1740 04bc 1EDE9E40 		.word	1084153374
 1741 04c0 00000000 		.word	0
 1742 04c4 005AA040 		.word	1084250624
 1743 04c8 52B81E85 		.word	-2061584302
 1744 04cc EB52A140 		.word	1084314347
 1745 04d0 713D0AD7 		.word	-687194767
 1746 04d4 A35AA240 		.word	1084381859
 1747 04d8 D7A3703D 		.word	1030792151
 1748 04dc 0A72A340 		.word	1084453386
 1749 04e0 D7A3703D 		.word	1030792151
 1750 04e4 0A9AA440 		.word	1084529162
 1751 04e8 5C8FC2F5 		.word	-171798692
 1752 04ec A8D3A540 		.word	1084609448
 1753 04f0 52B81E85 		.word	-2061584302
 1754 04f4 EB1FA740 		.word	1084694507
 1755 04f8 52B81E85 		.word	-2061584302
 1756 04fc EB7FA840 		.word	1084784619
 1757 0500 7B14AE47 		.word	1202590843
 1758 0504 E1F4A940 		.word	1084880097
 1759 0508 00000000 		.word	0
 1760 050c 0080AB40 		.word	1084981248
 1761 0510 85EB51B8 		.word	-1202590843
 1762 0514 9E22AD40 		.word	1085088414
ARM GAS  C:\Users\silvan\AppData\Local\Temp\ccww2N2V.s 			page 32


 1763 0518 713D0AD7 		.word	-687194767
 1764 051c 23DEAE40 		.word	1085201955
 1765 0520 F6285C8F 		.word	-1889785610
 1766 0524 025AB040 		.word	1085299202
 1767 0528 52B81E85 		.word	-2061584302
 1768 052c EB52B140 		.word	1085362923
 1769 0530 7B14AE47 		.word	1202590843
 1770 0534 A15AB240 		.word	1085430433
 1771 0538 E17A14AE 		.word	-1374389535
 1772 053c 0772B340 		.word	1085501959
 1773 0540 D7A3703D 		.word	1030792151
 1774 0544 0A9AB440 		.word	1085577738
 1775 0548 66666666 		.word	1717986918
 1776 054c A6D3B540 		.word	1085658022
 1777 0550 5C8FC2F5 		.word	-171798692
 1778 0554 E81FB740 		.word	1085743080
 1779 0558 48E17A14 		.word	343597384
 1780 055c EE7FB840 		.word	1085833198
 1781 0560 7B14AE47 		.word	1202590843
 1782 0564 E1F4B940 		.word	1085928673
 1783 0568 00000000 		.word	0
 1784 056c 0080BB40 		.word	1086029824
 1785 0570 85EB51B8 		.word	-1202590843
 1786 0574 9E22BD40 		.word	1086136990
 1787 0578 7B14AE47 		.word	1202590843
 1788 057c 21DEBE40 		.word	1086250529
 1789              		.global	delayMS
 1790              		.data
 1791              		.align	1
 1792              		.type	delayMS, %object
 1793              		.size	delayMS, 2
 1794              	delayMS:
 1795 05e6 1400     		.short	20
 1796              		.global	onOffCount
 1797              		.bss
 1798              		.type	onOffCount, %object
 1799              		.size	onOffCount, 1
 1800              	onOffCount:
 1801 0015 00       		.space	1
 1802              		.comm	transmitBuffer,100,4
 1803              		.comm	freq,8,8
 1804              		.comm	intFreq,2,2
 1805              		.comm	note,3,4
 1806              		.comm	noteIndex,1,1
 1807              		.global	mode
 1808              		.data
 1809              		.type	mode, %object
 1810              		.size	mode, 1
 1811              	mode:
 1812 05e8 01       		.byte	1
 1813              		.global	modeFlag
 1814              		.bss
 1815              		.type	modeFlag, %object
 1816              		.size	modeFlag, 1
 1817              	modeFlag:
 1818 0016 00       		.space	1
 1819              		.global	checkingMode
ARM GAS  C:\Users\silvan\AppData\Local\Temp\ccww2N2V.s 			page 33


 1820              		.data
 1821              		.type	checkingMode, %object
 1822              		.size	checkingMode, 1
 1823              	checkingMode:
 1824 05e9 01       		.byte	1
 1825              		.global	lastMode
 1826              		.type	lastMode, %object
 1827              		.size	lastMode, 1
 1828              	lastMode:
 1829 05ea 01       		.byte	1
 1830              		.global	freqClockDivCounter
 1831 05eb 00       		.align	1
 1832              		.type	freqClockDivCounter, %object
 1833              		.size	freqClockDivCounter, 2
 1834              	freqClockDivCounter:
 1835 05ec 7800     		.short	120
 1836              		.comm	dice1,4,4
 1837              		.comm	dice2,4,4
 1838              		.global	cScales
 1839 05ee 0000     		.align	2
 1840              		.type	cScales, %object
 1841              		.size	cScales, 384
 1842              	cScales:
 1843 05f0 00       		.byte	0
 1844 05f1 02       		.byte	2
 1845 05f2 04       		.byte	4
 1846 05f3 07       		.byte	7
 1847 05f4 09       		.byte	9
 1848 05f5 00       		.byte	0
 1849 05f6 00       		.byte	0
 1850 05f7 00       		.byte	0
 1851 05f8 00       		.byte	0
 1852 05f9 03       		.byte	3
 1853 05fa 05       		.byte	5
 1854 05fb 07       		.byte	7
 1855 05fc 0A       		.byte	10
 1856 05fd 00       		.byte	0
 1857 05fe 00       		.byte	0
 1858 05ff 00       		.byte	0
 1859 0600 00       		.byte	0
 1860 0601 01       		.byte	1
 1861 0602 05       		.byte	5
 1862 0603 07       		.byte	7
 1863 0604 08       		.byte	8
 1864 0605 00       		.byte	0
 1865 0606 00       		.byte	0
 1866 0607 00       		.byte	0
 1867 0608 00       		.byte	0
 1868 0609 01       		.byte	1
 1869 060a 05       		.byte	5
 1870 060b 06       		.byte	6
 1871 060c 0A       		.byte	10
 1872 060d 00       		.byte	0
 1873 060e 00       		.byte	0
 1874 060f 00       		.byte	0
 1875 0610 00       		.byte	0
 1876 0611 01       		.byte	1
ARM GAS  C:\Users\silvan\AppData\Local\Temp\ccww2N2V.s 			page 34


 1877 0612 03       		.byte	3
 1878 0613 07       		.byte	7
 1879 0614 08       		.byte	8
 1880 0615 00       		.byte	0
 1881 0616 00       		.byte	0
 1882 0617 00       		.byte	0
 1883 0618 00       		.byte	0
 1884 0619 02       		.byte	2
 1885 061a 05       		.byte	5
 1886 061b 07       		.byte	7
 1887 061c 09       		.byte	9
 1888 061d 00       		.byte	0
 1889 061e 00       		.byte	0
 1890 061f 00       		.byte	0
 1891 0620 00       		.byte	0
 1892 0621 03       		.byte	3
 1893 0622 06       		.byte	6
 1894 0623 07       		.byte	7
 1895 0624 0B       		.byte	11
 1896 0625 00       		.byte	0
 1897 0626 00       		.byte	0
 1898 0627 00       		.byte	0
 1899 0628 00       		.byte	0
 1900 0629 02       		.byte	2
 1901 062a 05       		.byte	5
 1902 062b 07       		.byte	7
 1903 062c 0A       		.byte	10
 1904 062d 00       		.byte	0
 1905 062e 00       		.byte	0
 1906 062f 00       		.byte	0
 1907 0630 00       		.byte	0
 1908 0631 03       		.byte	3
 1909 0632 05       		.byte	5
 1910 0633 06       		.byte	6
 1911 0634 07       		.byte	7
 1912 0635 0A       		.byte	10
 1913 0636 00       		.byte	0
 1914 0637 00       		.byte	0
 1915 0638 00       		.byte	0
 1916 0639 02       		.byte	2
 1917 063a 03       		.byte	3
 1918 063b 05       		.byte	5
 1919 063c 07       		.byte	7
 1920 063d 09       		.byte	9
 1921 063e 0B       		.byte	11
 1922 063f 00       		.byte	0
 1923 0640 00       		.byte	0
 1924 0641 02       		.byte	2
 1925 0642 03       		.byte	3
 1926 0643 05       		.byte	5
 1927 0644 07       		.byte	7
 1928 0645 09       		.byte	9
 1929 0646 0A       		.byte	10
 1930 0647 00       		.byte	0
 1931 0648 00       		.byte	0
 1932 0649 01       		.byte	1
 1933 064a 03       		.byte	3
ARM GAS  C:\Users\silvan\AppData\Local\Temp\ccww2N2V.s 			page 35


 1934 064b 05       		.byte	5
 1935 064c 06       		.byte	6
 1936 064d 08       		.byte	8
 1937 064e 0A       		.byte	10
 1938 064f 00       		.byte	0
 1939 0650 00       		.byte	0
 1940 0651 03       		.byte	3
 1941 0652 05       		.byte	5
 1942 0653 07       		.byte	7
 1943 0654 0A       		.byte	10
 1944 0655 00       		.byte	0
 1945 0656 00       		.byte	0
 1946 0657 00       		.byte	0
 1947 0658 00       		.byte	0
 1948 0659 02       		.byte	2
 1949 065a 03       		.byte	3
 1950 065b 05       		.byte	5
 1951 065c 07       		.byte	7
 1952 065d 08       		.byte	8
 1953 065e 0B       		.byte	11
 1954 065f 00       		.byte	0
 1955 0660 00       		.byte	0
 1956 0661 02       		.byte	2
 1957 0662 03       		.byte	3
 1958 0663 05       		.byte	5
 1959 0664 07       		.byte	7
 1960 0665 08       		.byte	8
 1961 0666 0A       		.byte	10
 1962 0667 00       		.byte	0
 1963 0668 00       		.byte	0
 1964 0669 01       		.byte	1
 1965 066a 03       		.byte	3
 1966 066b 05       		.byte	5
 1967 066c 06       		.byte	6
 1968 066d 08       		.byte	8
 1969 066e 0A       		.byte	10
 1970 066f 00       		.byte	0
 1971 0670 00       		.byte	0
 1972 0671 02       		.byte	2
 1973 0672 04       		.byte	4
 1974 0673 00       		.byte	0
 1975 0674 07       		.byte	7
 1976 0675 09       		.byte	9
 1977 0676 0A       		.byte	10
 1978 0677 00       		.byte	0
 1979 0678 00       		.byte	0
 1980 0679 02       		.byte	2
 1981 067a 04       		.byte	4
 1982 067b 06       		.byte	6
 1983 067c 07       		.byte	7
 1984 067d 09       		.byte	9
 1985 067e 0A       		.byte	10
 1986 067f 00       		.byte	0
 1987 0680 00       		.byte	0
 1988 0681 01       		.byte	1
 1989 0682 04       		.byte	4
 1990 0683 00       		.byte	0
ARM GAS  C:\Users\silvan\AppData\Local\Temp\ccww2N2V.s 			page 36


 1991 0684 07       		.byte	7
 1992 0685 08       		.byte	8
 1993 0686 0A       		.byte	10
 1994 0687 00       		.byte	0
 1995 0688 00       		.byte	0
 1996 0689 01       		.byte	1
 1997 068a 03       		.byte	3
 1998 068b 04       		.byte	4
 1999 068c 06       		.byte	6
 2000 068d 08       		.byte	8
 2001 068e 0A       		.byte	10
 2002 068f 00       		.byte	0
 2003 0690 00       		.byte	0
 2004 0691 02       		.byte	2
 2005 0692 04       		.byte	4
 2006 0693 00       		.byte	0
 2007 0694 07       		.byte	7
 2008 0695 08       		.byte	8
 2009 0696 0A       		.byte	10
 2010 0697 00       		.byte	0
 2011 0698 00       		.byte	0
 2012 0699 01       		.byte	1
 2013 069a 03       		.byte	3
 2014 069b 04       		.byte	4
 2015 069c 06       		.byte	6
 2016 069d 07       		.byte	7
 2017 069e 09       		.byte	9
 2018 069f 0A       		.byte	10
 2019 06a0 00       		.byte	0
 2020 06a1 02       		.byte	2
 2021 06a2 04       		.byte	4
 2022 06a3 06       		.byte	6
 2023 06a4 08       		.byte	8
 2024 06a5 0A       		.byte	10
 2025 06a6 00       		.byte	0
 2026 06a7 00       		.byte	0
 2027 06a8 00       		.byte	0
 2028 06a9 02       		.byte	2
 2029 06aa 04       		.byte	4
 2030 06ab 05       		.byte	5
 2031 06ac 07       		.byte	7
 2032 06ad 09       		.byte	9
 2033 06ae 0A       		.byte	10
 2034 06af 00       		.byte	0
 2035 06b0 00       		.byte	0
 2036 06b1 02       		.byte	2
 2037 06b2 04       		.byte	4
 2038 06b3 07       		.byte	7
 2039 06b4 09       		.byte	9
 2040 06b5 00       		.byte	0
 2041 06b6 00       		.byte	0
 2042 06b7 00       		.byte	0
 2043 06b8 00       		.byte	0
 2044 06b9 02       		.byte	2
 2045 06ba 04       		.byte	4
 2046 06bb 05       		.byte	5
 2047 06bc 07       		.byte	7
ARM GAS  C:\Users\silvan\AppData\Local\Temp\ccww2N2V.s 			page 37


 2048 06bd 09       		.byte	9
 2049 06be 0B       		.byte	11
 2050 06bf 00       		.byte	0
 2051 06c0 00       		.byte	0
 2052 06c1 02       		.byte	2
 2053 06c2 03       		.byte	3
 2054 06c3 05       		.byte	5
 2055 06c4 07       		.byte	7
 2056 06c5 09       		.byte	9
 2057 06c6 0A       		.byte	10
 2058 06c7 00       		.byte	0
 2059 06c8 00       		.byte	0
 2060 06c9 01       		.byte	1
 2061 06ca 03       		.byte	3
 2062 06cb 05       		.byte	5
 2063 06cc 06       		.byte	6
 2064 06cd 08       		.byte	8
 2065 06ce 0A       		.byte	10
 2066 06cf 00       		.byte	0
 2067 06d0 00       		.byte	0
 2068 06d1 02       		.byte	2
 2069 06d2 04       		.byte	4
 2070 06d3 06       		.byte	6
 2071 06d4 07       		.byte	7
 2072 06d5 09       		.byte	9
 2073 06d6 0B       		.byte	11
 2074 06d7 00       		.byte	0
 2075 06d8 00       		.byte	0
 2076 06d9 02       		.byte	2
 2077 06da 04       		.byte	4
 2078 06db 05       		.byte	5
 2079 06dc 07       		.byte	7
 2080 06dd 09       		.byte	9
 2081 06de 0A       		.byte	10
 2082 06df 00       		.byte	0
 2083 06e0 00       		.byte	0
 2084 06e1 02       		.byte	2
 2085 06e2 03       		.byte	3
 2086 06e3 05       		.byte	5
 2087 06e4 07       		.byte	7
 2088 06e5 08       		.byte	8
 2089 06e6 0A       		.byte	10
 2090 06e7 00       		.byte	0
 2091 06e8 00       		.byte	0
 2092 06e9 01       		.byte	1
 2093 06ea 03       		.byte	3
 2094 06eb 05       		.byte	5
 2095 06ec 06       		.byte	6
 2096 06ed 08       		.byte	8
 2097 06ee 0A       		.byte	10
 2098 06ef 00       		.byte	0
 2099 06f0 00       		.byte	0
 2100 06f1 03       		.byte	3
 2101 06f2 05       		.byte	5
 2102 06f3 07       		.byte	7
 2103 06f4 08       		.byte	8
 2104 06f5 0B       		.byte	11
ARM GAS  C:\Users\silvan\AppData\Local\Temp\ccww2N2V.s 			page 38


 2105 06f6 00       		.byte	0
 2106 06f7 00       		.byte	0
 2107 06f8 00       		.byte	0
 2108 06f9 02       		.byte	2
 2109 06fa 03       		.byte	3
 2110 06fb 05       		.byte	5
 2111 06fc 07       		.byte	7
 2112 06fd 08       		.byte	8
 2113 06fe 0B       		.byte	11
 2114 06ff 00       		.byte	0
 2115 0700 00       		.byte	0
 2116 0701 01       		.byte	1
 2117 0702 03       		.byte	3
 2118 0703 05       		.byte	5
 2119 0704 06       		.byte	6
 2120 0705 09       		.byte	9
 2121 0706 0A       		.byte	10
 2122 0707 00       		.byte	0
 2123 0708 00       		.byte	0
 2124 0709 02       		.byte	2
 2125 070a 04       		.byte	4
 2126 070b 05       		.byte	5
 2127 070c 06       		.byte	6
 2128 070d 09       		.byte	9
 2129 070e 0B       		.byte	11
 2130 070f 00       		.byte	0
 2131 0710 00       		.byte	0
 2132 0711 02       		.byte	2
 2133 0712 03       		.byte	3
 2134 0713 06       		.byte	6
 2135 0714 07       		.byte	7
 2136 0715 09       		.byte	9
 2137 0716 0A       		.byte	10
 2138 0717 00       		.byte	0
 2139 0718 00       		.byte	0
 2140 0719 01       		.byte	1
 2141 071a 04       		.byte	4
 2142 071b 05       		.byte	5
 2143 071c 07       		.byte	7
 2144 071d 08       		.byte	8
 2145 071e 0A       		.byte	10
 2146 071f 00       		.byte	0
 2147 0720 00       		.byte	0
 2148 0721 03       		.byte	3
 2149 0722 04       		.byte	4
 2150 0723 06       		.byte	6
 2151 0724 07       		.byte	7
 2152 0725 09       		.byte	9
 2153 0726 0B       		.byte	11
 2154 0727 00       		.byte	0
 2155 0728 00       		.byte	0
 2156 0729 01       		.byte	1
 2157 072a 03       		.byte	3
 2158 072b 04       		.byte	4
 2159 072c 06       		.byte	6
 2160 072d 08       		.byte	8
 2161 072e 09       		.byte	9
ARM GAS  C:\Users\silvan\AppData\Local\Temp\ccww2N2V.s 			page 39


 2162 072f 00       		.byte	0
 2163 0730 00       		.byte	0
 2164 0731 03       		.byte	3
 2165 0732 05       		.byte	5
 2166 0733 07       		.byte	7
 2167 0734 09       		.byte	9
 2168 0735 0B       		.byte	11
 2169 0736 00       		.byte	0
 2170 0737 00       		.byte	0
 2171 0738 00       		.byte	0
 2172 0739 02       		.byte	2
 2173 073a 03       		.byte	3
 2174 073b 05       		.byte	5
 2175 073c 07       		.byte	7
 2176 073d 09       		.byte	9
 2177 073e 0B       		.byte	11
 2178 073f 00       		.byte	0
 2179 0740 00       		.byte	0
 2180 0741 01       		.byte	1
 2181 0742 03       		.byte	3
 2182 0743 05       		.byte	5
 2183 0744 07       		.byte	7
 2184 0745 09       		.byte	9
 2185 0746 0A       		.byte	10
 2186 0747 00       		.byte	0
 2187 0748 00       		.byte	0
 2188 0749 02       		.byte	2
 2189 074a 04       		.byte	4
 2190 074b 06       		.byte	6
 2191 074c 08       		.byte	8
 2192 074d 09       		.byte	9
 2193 074e 0B       		.byte	11
 2194 074f 00       		.byte	0
 2195 0750 00       		.byte	0
 2196 0751 02       		.byte	2
 2197 0752 04       		.byte	4
 2198 0753 06       		.byte	6
 2199 0754 07       		.byte	7
 2200 0755 09       		.byte	9
 2201 0756 0A       		.byte	10
 2202 0757 00       		.byte	0
 2203 0758 00       		.byte	0
 2204 0759 02       		.byte	2
 2205 075a 04       		.byte	4
 2206 075b 05       		.byte	5
 2207 075c 07       		.byte	7
 2208 075d 08       		.byte	8
 2209 075e 0A       		.byte	10
 2210 075f 00       		.byte	0
 2211 0760 00       		.byte	0
 2212 0761 02       		.byte	2
 2213 0762 03       		.byte	3
 2214 0763 05       		.byte	5
 2215 0764 06       		.byte	6
 2216 0765 08       		.byte	8
 2217 0766 0A       		.byte	10
 2218 0767 00       		.byte	0
ARM GAS  C:\Users\silvan\AppData\Local\Temp\ccww2N2V.s 			page 40


 2219 0768 00       		.byte	0
 2220 0769 01       		.byte	1
 2221 076a 03       		.byte	3
 2222 076b 04       		.byte	4
 2223 076c 06       		.byte	6
 2224 076d 08       		.byte	8
 2225 076e 0A       		.byte	10
 2226 076f 00       		.byte	0
 2227              		.global	cScaleGroupSelect
 2228              		.type	cScaleGroupSelect, %object
 2229              		.size	cScaleGroupSelect, 1
 2230              	cScaleGroupSelect:
 2231 0770 64       		.byte	100
 2232              		.global	cScaleGroupsLength
 2233              		.section	.rodata
 2234              		.type	cScaleGroupsLength, %object
 2235              		.size	cScaleGroupsLength, 1
 2236              	cScaleGroupsLength:
 2237 0580 06       		.byte	6
 2238              		.global	cScaleSelect
 2239              		.data
 2240              		.type	cScaleSelect, %object
 2241              		.size	cScaleSelect, 1
 2242              	cScaleSelect:
 2243 0771 64       		.byte	100
 2244              		.global	octaveSelect
 2245              		.type	octaveSelect, %object
 2246              		.size	octaveSelect, 1
 2247              	octaveSelect:
 2248 0772 01       		.byte	1
 2249              		.global	bassOffsetUp
 2250              		.type	bassOffsetUp, %object
 2251              		.size	bassOffsetUp, 1
 2252              	bassOffsetUp:
 2253 0773 0C       		.byte	12
 2254              		.comm	echoDuration,2,2
 2255              		.comm	echoDistance,2,2
 2256              		.global	echoFlag
 2257              		.bss
 2258              		.type	echoFlag, %object
 2259              		.size	echoFlag, 1
 2260              	echoFlag:
 2261 0017 00       		.space	1
 2262              		.comm	echoTimerPeriod,2,2
 2263              		.comm	echoReadCounter,2,2
 2264              		.global	echoTuneDelay
 2265              		.data
 2266              		.align	1
 2267              		.type	echoTuneDelay, %object
 2268              		.size	echoTuneDelay, 2
 2269              	echoTuneDelay:
 2270 0774 2800     		.short	40
 2271              		.section	.rodata
 2272 0581 000000   		.align	2
 2273              	.LC0:
 2274 0584 4D4F4445 		.ascii	"MODE 0 \012\015\000"
 2274      2030200A 
ARM GAS  C:\Users\silvan\AppData\Local\Temp\ccww2N2V.s 			page 41


 2274      0D00
 2275 058e 0000     		.align	2
 2276              	.LC1:
 2277 0590 4D4F4445 		.ascii	"MODE 1 \012\015\000"
 2277      2031200A 
 2277      0D00
 2278 059a 0000     		.align	2
 2279              	.LC2:
 2280 059c 4D4F4445 		.ascii	"MODE 2 \012\015\000"
 2280      2032200A 
 2280      0D00
 2281 05a6 0000     		.align	2
 2282              	.LC3:
 2283 05a8 4D4F4445 		.ascii	"MODE 3 \012\015\000"
 2283      2033200A 
 2283      0D00
 2284              		.section	.text.modecheck,"ax",%progbits
 2285              		.align	2
 2286              		.global	modecheck
 2287              		.thumb
 2288              		.thumb_func
 2289              		.type	modecheck, %function
 2290              	modecheck:
 2291              	.LFB64:
 2292              		.file 1 "main.c"
   1:main.c        **** /*******************************************************************************
   2:main.c        **** * File: main.c      
   3:main.c        **** *
   4:main.c        **** *******************************************************************************/
   5:main.c        **** 
   6:main.c        **** #include <project.h>
   7:main.c        **** #include <stdio.h>
   8:main.c        **** #define START_FREQ_DIV 120
   9:main.c        **** #define MAX_FREQ_DIV 8000
  10:main.c        **** 
  11:main.c        **** CY_ISR_PROTO(userModeTimer_ISR);
  12:main.c        **** CY_ISR_PROTO(userEcho_ISR);
  13:main.c        **** 
  14:main.c        **** CY_ISR_PROTO(but1_isr_neg_vect);
  15:main.c        **** CY_ISR_PROTO(but1_isr_pos_vect);
  16:main.c        **** CY_ISR_PROTO(but2_isr_neg_vect);
  17:main.c        **** CY_ISR_PROTO(but2_isr_pos_vect);
  18:main.c        **** CY_ISR_PROTO(but3_isr_neg_vect);
  19:main.c        **** CY_ISR_PROTO(but3_isr_pos_vect);
  20:main.c        **** CY_ISR_PROTO(analogBut_isr_vect);
  21:main.c        **** CY_ISR_PROTO(adc_isr_vect);
  22:main.c        **** 
  23:main.c        **** volatile uint8 button1 = 0;
  24:main.c        **** volatile uint8 button2 = 0;
  25:main.c        **** volatile uint8 button3 = 0;
  26:main.c        **** volatile uint8 analogBut = 0;
  27:main.c        **** 
  28:main.c        **** volatile uint8 muxChannel = 0;
  29:main.c        **** volatile uint8 adcFlag = 0;
  30:main.c        **** int pitch[2] = {0,0};
  31:main.c        **** int oldYinput = 0;
  32:main.c        **** uint8 analogButFlag;
ARM GAS  C:\Users\silvan\AppData\Local\Temp\ccww2N2V.s 			page 42


  33:main.c        **** 
  34:main.c        **** uint8 squarewave[502] = { 252u, 252u, 252u, 252u, 252u, 252u, 252u, 252u, 252u, 252u,
  35:main.c        ****                             252u, 252u, 252u, 252u, 252u, 252u, 252u, 252u, 252u, 252u,
  36:main.c        ****                             252u, 252u, 252u, 252u, 252u, 252u, 252u, 252u, 252u, 252u,
  37:main.c        ****                             252u, 252u, 252u, 252u, 252u, 252u, 252u, 252u, 252u, 252u,
  38:main.c        ****                             252u, 252u, 252u, 252u, 252u, 252u, 252u, 252u, 252u, 252u,
  39:main.c        ****                             252u, 252u, 252u, 252u, 252u, 252u, 252u, 252u, 252u, 252u,
  40:main.c        ****                             252u, 252u, 252u, 252u, 252u, 252u, 252u, 252u, 252u, 252u,
  41:main.c        ****                             252u, 252u, 252u, 252u, 252u, 252u, 252u, 252u, 252u, 252u,
  42:main.c        ****                             252u, 252u, 252u, 252u, 252u, 252u, 252u, 252u, 252u, 252u,
  43:main.c        ****                             252u, 252u, 252u, 252u, 252u, 252u, 252u, 252u, 252u, 252u,
  44:main.c        ****                             252u, 252u, 252u, 252u, 252u, 252u, 252u, 252u, 252u, 252u,
  45:main.c        ****                             252u, 252u, 252u, 252u, 252u, 252u, 252u, 252u, 252u, 252u,
  46:main.c        ****                             252u, 252u, 252u, 252u, 252u,
  47:main.c        ****                             0u, 0u, 0u, 0u, 0u, 0u, 0u, 0u, 0u, 0u,
  48:main.c        ****                             0u, 0u, 0u, 0u, 0u, 0u, 0u, 0u, 0u, 0u,
  49:main.c        ****                             0u, 0u, 0u, 0u, 0u, 0u, 0u, 0u, 0u, 0u,
  50:main.c        ****                             0u, 0u, 0u, 0u, 0u, 0u, 0u, 0u, 0u, 0u,
  51:main.c        ****                             0u, 0u, 0u, 0u, 0u, 0u, 0u, 0u, 0u, 0u,
  52:main.c        ****                             0u, 0u, 0u, 0u, 0u, 0u, 0u, 0u, 0u, 0u,
  53:main.c        ****                             0u, 0u, 0u, 0u, 0u, 0u, 0u, 0u, 0u, 0u,
  54:main.c        ****                             0u, 0u, 0u, 0u, 0u, 0u, 0u, 0u, 0u, 0u,
  55:main.c        ****                             0u, 0u, 0u, 0u, 0u, 0u, 0u, 0u, 0u, 0u,
  56:main.c        ****                             0u, 0u, 0u, 0u, 0u, 0u, 0u, 0u, 0u, 0u,
  57:main.c        ****                             0u, 0u, 0u, 0u, 0u, 0u, 0u, 0u, 0u, 0u,
  58:main.c        ****                             0u, 0u, 0u, 0u, 0u, 0u, 0u, 0u, 0u, 0u,
  59:main.c        ****                             0u, 0u, 0u, 0u, 0u, 0u,
  60:main.c        ****                             252u, 252u, 252u, 252u, 252u, 252u, 252u, 252u, 252u, 252u,
  61:main.c        ****                             252u, 252u, 252u, 252u, 252u, 252u, 252u, 252u, 252u, 252u,
  62:main.c        ****                             252u, 252u, 252u, 252u, 252u, 252u, 252u, 252u, 252u, 252u,
  63:main.c        ****                             252u, 252u, 252u, 252u, 252u, 252u, 252u, 252u, 252u, 252u,
  64:main.c        ****                             252u, 252u, 252u, 252u, 252u, 252u, 252u, 252u, 252u, 252u,
  65:main.c        ****                             252u, 252u, 252u, 252u, 252u, 252u, 252u, 252u, 252u, 252u,
  66:main.c        ****                             252u, 252u, 252u, 252u, 252u, 252u, 252u, 252u, 252u, 252u,
  67:main.c        ****                             252u, 252u, 252u, 252u, 252u, 252u, 252u, 252u, 252u, 252u,
  68:main.c        ****                             252u, 252u, 252u, 252u, 252u, 252u, 252u, 252u, 252u, 252u,
  69:main.c        ****                             252u, 252u, 252u, 252u, 252u, 252u, 252u, 252u, 252u, 252u,
  70:main.c        ****                             252u, 252u, 252u, 252u, 252u, 252u, 252u, 252u, 252u, 252u,
  71:main.c        ****                             252u, 252u, 252u, 252u, 252u, 252u, 252u, 252u, 252u, 252u,
  72:main.c        ****                             252u, 252u, 252u, 252u, 252u,
  73:main.c        ****                             0u, 0u, 0u, 0u, 0u, 0u, 0u, 0u, 0u, 0u,
  74:main.c        ****                             0u, 0u, 0u, 0u, 0u, 0u, 0u, 0u, 0u, 0u,
  75:main.c        ****                             0u, 0u, 0u, 0u, 0u, 0u, 0u, 0u, 0u, 0u,
  76:main.c        ****                             0u, 0u, 0u, 0u, 0u, 0u, 0u, 0u, 0u, 0u,
  77:main.c        ****                             0u, 0u, 0u, 0u, 0u, 0u, 0u, 0u, 0u, 0u,
  78:main.c        ****                             0u, 0u, 0u, 0u, 0u, 0u, 0u, 0u, 0u, 0u,
  79:main.c        ****                             0u, 0u, 0u, 0u, 0u, 0u, 0u, 0u, 0u, 0u,
  80:main.c        ****                             0u, 0u, 0u, 0u, 0u, 0u, 0u, 0u, 0u, 0u,
  81:main.c        ****                             0u, 0u, 0u, 0u, 0u, 0u, 0u, 0u, 0u, 0u,
  82:main.c        ****                             0u, 0u, 0u, 0u, 0u, 0u, 0u, 0u, 0u, 0u,
  83:main.c        ****                             0u, 0u, 0u, 0u, 0u, 0u, 0u, 0u, 0u, 0u,
  84:main.c        ****                             0u, 0u, 0u, 0u, 0u, 0u, 0u, 0u, 0u, 0u,
  85:main.c        ****                             0u, 0u, 0u, 0u, 0u, 0u
  86:main.c        **** };
  87:main.c        **** uint8 trianglewave[502] = {126u, 127u, 128u, 129u, 130u, 131u, 132u, 133u, 134u, 135u, 136u, 137u, 
  88:main.c        **** uint8 sinewave[502] = {127u, 128u, 130u, 131u, 133u, 134u, 136u, 137u, 139u, 141u, 142u, 144u, 145u
  89:main.c        **** 
ARM GAS  C:\Users\silvan\AppData\Local\Temp\ccww2N2V.s 			page 43


  90:main.c        **** uint8 waveMode = 0;
  91:main.c        **** 
  92:main.c        **** const char notes[108][3] = {"C0 ", "C#0", "D0 ", "D#0", "E0 ", "F0 ", "F#0", "G0 ", "G#0", "A0 ", "
  93:main.c        **** const uint16 intFrequency[108] = {16, 17, 18, 19, 21, 22, 23, 25, 26, 28, 29, 31, 33, 35, 37, 39, 4
  94:main.c        **** const double frequency[108] = {16.35,17.32,18.35,19.45,20.60,21.83,23.12,24.50,25.96,27.50,29.14,30
  95:main.c        **** 
  96:main.c        **** volatile uint16 delayMS = 20;
  97:main.c        **** volatile uint8 onOffCount = 0;
  98:main.c        **** char transmitBuffer[100];
  99:main.c        **** volatile double freq;
 100:main.c        **** volatile uint16 intFreq;
 101:main.c        **** volatile char note[3];
 102:main.c        **** volatile uint8 noteIndex;
 103:main.c        **** volatile uint8 mode = 1;            // set default mode   
 104:main.c        **** volatile uint8 modeFlag = 0;        // flag is set by Timer_Mode, resets after check
 105:main.c        **** volatile uint8 checkingMode = 1;    // set bool if checking mode or not 
 106:main.c        **** volatile uint8 lastMode = 1;
 107:main.c        **** uint16 freqClockDivCounter = START_FREQ_DIV;
 108:main.c        **** volatile uint dice1;
 109:main.c        **** volatile uint dice2;
 110:main.c        **** 
 111:main.c        **** //////////////////////////////////////////////// MODAL MONDIAL
 112:main.c        **** volatile uint8 cScales[6][8][8] =  {{                                   // WORLD PENTATONICS       
 113:main.c        ****                                      {0, 2, 4, 7, 9, 0, 0, 0},          // 0 major pentatonic
 114:main.c        ****                                      {0, 3, 5, 7, 10, 0, 0, 0},         // 1 minor pentatonic
 115:main.c        ****                                      {0, 1, 5, 7, 8, 0, 0, 0},          // 2 kumoi penta [japan] 
 116:main.c        ****                                      {0, 1, 5, 6, 10, 0, 0, 0},         // 3 iwato penta [japan] 
 117:main.c        ****                                      {0, 1, 3, 7, 8, 0, 0, 0},          // 4 pelog penta [bali] 
 118:main.c        ****                                      {0, 2, 5, 7, 9, 0, 0, 0},          // 5 hyojo penta [china] 
 119:main.c        ****                                      {0, 3, 6, 7, 11, 0, 0, 0},         // 6 penta [china] 
 120:main.c        ****                                      {0, 2, 5, 7, 10, 0, 0, 0},         // 7 penta [egypt]         
 121:main.c        ****                                     },                                  // BLUES AND MIXED MINORS
 122:main.c        ****                                     {{0, 3, 5, 6, 7, 10, 0, 0},         // 0 blues
 123:main.c        ****                                      {0, 2, 3, 5, 7, 9, 11, 0},         // 1 melodic minor [MM1]
 124:main.c        ****                                      {0, 2, 3, 5, 7, 9, 10, 0},         // 2 dorian [II]  
 125:main.c        ****                                      {0, 1, 3, 5, 6, 8, 10, 0},         // 3 phrygian  [III]
 126:main.c        ****                                      {0, 3, 5, 7, 10, 0, 0, 0},         // 4 minor pentatonic
 127:main.c        ****                                      {0, 2, 3, 5, 7, 8, 11, 0},         // 5 harmonic minor [HM1]
 128:main.c        ****                                      {0, 2, 3, 5, 7, 8, 10, 0},         // 6 aeolian [VI]
 129:main.c        ****                                      {0, 1, 3, 5, 6, 8, 10, 0},         // 7 locrian [VII]
 130:main.c        ****                                     },                                  // DOMINANT 7
 131:main.c        ****                                     {{0, 2, 4, 0, 7, 9, 10, 0},         // 0 mixolydian_avoid4     
 132:main.c        ****                                      {0, 2, 4, 6, 7, 9, 10, 0},         // 1 mixolydian_#11 [MM4] 
 133:main.c        ****                                      {0, 1, 4, 0, 7, 8, 10, 0},         // 2 HM5 mixolydian_b9b13_a
 134:main.c        ****                                      {0, 1, 3, 4, 6, 8, 10, 0},         // 3 altered/superlocrian [
 135:main.c        ****                                      {0, 2, 4, 0, 7, 8, 10, 0},         // 4 mixolydian_b13_avoid4 
 136:main.c        ****                                      {0, 1, 3, 4, 6, 7, 9, 10},         // 5 HTFT [half tone full t
 137:main.c        ****                                      {0, 2, 4, 6, 8, 10, 0, 0},         // 6 FT [full tone scale]  
 138:main.c        ****                                      {0, 2, 4, 5, 7, 9, 10, 0},         // 7 mixolydian [V-7]   
 139:main.c        ****                                     },                                  // CHURCH MODES
 140:main.c        ****                                     {{0, 2, 4, 7, 9, 0, 0, 0},          // 0 major pentatonic
 141:main.c        ****                                      {0, 2, 4, 5, 7, 9, 11, 0},         // 1 ionic [I]
 142:main.c        ****                                      {0, 2, 3, 5, 7, 9, 10, 0},         // 2 dorian [II]
 143:main.c        ****                                      {0, 1, 3, 5, 6, 8, 10, 0},         // 3 phrygian [III]
 144:main.c        ****                                      {0, 2, 4, 6, 7, 9, 11, 0},         // 4 lydian [IV]
 145:main.c        ****                                      {0, 2, 4, 5, 7, 9, 10, 0},         // 5 mixolydian [V7]
 146:main.c        ****                                      {0, 2, 3, 5, 7, 8, 10, 0},         // 6 aeolian [VI]
ARM GAS  C:\Users\silvan\AppData\Local\Temp\ccww2N2V.s 			page 44


 147:main.c        ****                                      {0, 1, 3, 5, 6, 8, 10, 0},         // 7 locrian [VII]
 148:main.c        ****                                     },                                  // HARMONIIC MINOR MODES
 149:main.c        ****                                     {{0, 3, 5, 7, 8, 11, 0, 0},         // 0 HM penta+_b67
 150:main.c        ****                                      {0, 2, 3, 5, 7, 8, 11, 0},         // 1 harmonic minor [HM1]
 151:main.c        ****                                      {0, 1, 3, 5, 6, 9, 10, 0},         // 2 locrian_6 [HM2]
 152:main.c        ****                                      {0, 2, 4, 5, 6, 9, 11, 0},         // 3 ionic_#5 [HM3]        
 153:main.c        ****                                      {0, 2, 3, 6, 7, 9, 10, 0},         // 4 dorian_#11 [HM4]
 154:main.c        ****                                      {0, 1, 4, 5, 7, 8, 10, 0},         // 5 mixo_b9b13 [HM5]
 155:main.c        ****                                      {0, 3, 4, 6, 7, 9, 11, 0},         // 6 lydian_#9 [HM6]       
 156:main.c        ****                                      {0, 1, 3, 4, 6, 8, 9, 0},          // 7 HM7                   
 157:main.c        ****                                     },                                  // MELODIC MINOR MODES
 158:main.c        ****                                     {{0, 3, 5, 7, 9, 11, 0, 0},         // 0 MM penta+_67
 159:main.c        ****                                      {0, 2, 3, 5, 7, 9, 11, 0},         // 1 melodic minor [MM1]
 160:main.c        ****                                      {0, 1, 3, 5, 7, 9, 10, 0},         // 2 dorian_b2 [MM2] 
 161:main.c        ****                                      {0, 2, 4, 6, 8, 9, 11, 0},         // 3 lydian_#5 [MM3]       
 162:main.c        ****                                      {0, 2, 4, 6, 7, 9, 10, 0},         // 4 mixolydian_#11 [MM4]  
 163:main.c        ****                                      {0, 2, 4, 5, 7, 8, 10, 0},         // 5 mixolydian_b13 [MM5]  
 164:main.c        ****                                      {0, 2, 3, 5, 6, 8, 10, 0},         // 6 locrian_9 [MM6]     
 165:main.c        ****                                      {0, 1, 3, 4, 6, 8, 10, 0},         // 7 altered/superlocrian [
 166:main.c        ****                                     }
 167:main.c        **** };
 168:main.c        ****                                     
 169:main.c        **** volatile uint8 cScaleGroupSelect = 100;                                 // 0 world penta | 1 blues 
 170:main.c        **** const uint8 cScaleGroupsLength = 6;                                     // scale groups count
 171:main.c        **** volatile uint8 cScaleSelect = 100;                                      // 0-7 depending on group |
 172:main.c        **** volatile uint8 octaveSelect = 1;                                        // switch octaves
 173:main.c        **** volatile uint8 bassOffsetUp = 12;                                       // index 12 is C1
 174:main.c        **** ////////////////////////////////////////////////////
 175:main.c        **** 
 176:main.c        **** volatile uint16 echoDuration;
 177:main.c        **** volatile uint16 echoDistance;
 178:main.c        **** volatile uint8 echoFlag = 0;        // 0 idle | 1 trig sent | 2 timer value ready
 179:main.c        **** volatile uint16 echoTimerPeriod;
 180:main.c        **** volatile uint16 echoReadCounter;
 181:main.c        **** volatile uint16 echoTuneDelay = 40;
 182:main.c        **** 
 183:main.c        **** 
 184:main.c        **** // MODECHECK FUNCTION checks mode on 4 state cube
 185:main.c        **** void modecheck(){
 2293              		.loc 1 185 0
 2294              		.cfi_startproc
 2295              		@ args = 0, pretend = 0, frame = 0
 2296              		@ frame_needed = 1, uses_anonymous_args = 0
 2297 0000 80B5     		push	{r7, lr}
 2298              		.cfi_def_cfa_offset 8
 2299              		.cfi_offset 7, -8
 2300              		.cfi_offset 14, -4
 2301 0002 00AF     		add	r7, sp, #0
 2302              		.cfi_def_cfa_register 7
 186:main.c        ****     dice1 = Pin_Dice_1_Read();
 2303              		.loc 1 186 0
 2304 0004 FFF7FEFF 		bl	Pin_Dice_1_Read
 2305 0008 0346     		mov	r3, r0
 2306 000a 1A46     		mov	r2, r3
 2307 000c 384B     		ldr	r3, .L7
 2308 000e 1A60     		str	r2, [r3]
 187:main.c        ****     dice2 = Pin_Dice_2_Read();
ARM GAS  C:\Users\silvan\AppData\Local\Temp\ccww2N2V.s 			page 45


 2309              		.loc 1 187 0
 2310 0010 FFF7FEFF 		bl	Pin_Dice_2_Read
 2311 0014 0346     		mov	r3, r0
 2312 0016 1A46     		mov	r2, r3
 2313 0018 364B     		ldr	r3, .L7+4
 2314 001a 1A60     		str	r2, [r3]
 188:main.c        ****     if(dice1 == 0 && dice2 == 0 && mode != 0){
 2315              		.loc 1 188 0
 2316 001c 344B     		ldr	r3, .L7
 2317 001e 1B68     		ldr	r3, [r3]
 2318 0020 002B     		cmp	r3, #0
 2319 0022 15D1     		bne	.L2
 2320              		.loc 1 188 0 is_stmt 0 discriminator 1
 2321 0024 334B     		ldr	r3, .L7+4
 2322 0026 1B68     		ldr	r3, [r3]
 2323 0028 002B     		cmp	r3, #0
 2324 002a 11D1     		bne	.L2
 2325              		.loc 1 188 0 discriminator 2
 2326 002c 324B     		ldr	r3, .L7+8
 2327 002e 1B78     		ldrb	r3, [r3]
 2328 0030 DBB2     		uxtb	r3, r3
 2329 0032 002B     		cmp	r3, #0
 2330 0034 0CD0     		beq	.L2
 189:main.c        ****         mode = 0;
 2331              		.loc 1 189 0 is_stmt 1
 2332 0036 304B     		ldr	r3, .L7+8
 2333 0038 0022     		movs	r2, #0
 2334 003a 1A70     		strb	r2, [r3]
 190:main.c        ****         Pin_Dice_LED_1_Write(0);
 2335              		.loc 1 190 0
 2336 003c 0020     		movs	r0, #0
 2337 003e FFF7FEFF 		bl	Pin_Dice_LED_1_Write
 191:main.c        ****         Pin_Dice_LED_2_Write(0);
 2338              		.loc 1 191 0
 2339 0042 0020     		movs	r0, #0
 2340 0044 FFF7FEFF 		bl	Pin_Dice_LED_2_Write
 192:main.c        ****         UART_1_PutString("MODE 0 \n\r");
 2341              		.loc 1 192 0
 2342 0048 2C48     		ldr	r0, .L7+12
 2343 004a FFF7FEFF 		bl	UART_1_PutString
 2344 004e 4DE0     		b	.L3
 2345              	.L2:
 193:main.c        ****     }
 194:main.c        ****     else if(dice1 == 0 && dice2 == 1 && mode != 1){
 2346              		.loc 1 194 0
 2347 0050 274B     		ldr	r3, .L7
 2348 0052 1B68     		ldr	r3, [r3]
 2349 0054 002B     		cmp	r3, #0
 2350 0056 15D1     		bne	.L4
 2351              		.loc 1 194 0 is_stmt 0 discriminator 1
 2352 0058 264B     		ldr	r3, .L7+4
 2353 005a 1B68     		ldr	r3, [r3]
 2354 005c 012B     		cmp	r3, #1
 2355 005e 11D1     		bne	.L4
 2356              		.loc 1 194 0 discriminator 2
 2357 0060 254B     		ldr	r3, .L7+8
 2358 0062 1B78     		ldrb	r3, [r3]
ARM GAS  C:\Users\silvan\AppData\Local\Temp\ccww2N2V.s 			page 46


 2359 0064 DBB2     		uxtb	r3, r3
 2360 0066 012B     		cmp	r3, #1
 2361 0068 0CD0     		beq	.L4
 195:main.c        ****         mode = 1;  
 2362              		.loc 1 195 0 is_stmt 1
 2363 006a 234B     		ldr	r3, .L7+8
 2364 006c 0122     		movs	r2, #1
 2365 006e 1A70     		strb	r2, [r3]
 196:main.c        ****         Pin_Dice_LED_1_Write(0);
 2366              		.loc 1 196 0
 2367 0070 0020     		movs	r0, #0
 2368 0072 FFF7FEFF 		bl	Pin_Dice_LED_1_Write
 197:main.c        ****         Pin_Dice_LED_2_Write(1);
 2369              		.loc 1 197 0
 2370 0076 0120     		movs	r0, #1
 2371 0078 FFF7FEFF 		bl	Pin_Dice_LED_2_Write
 198:main.c        ****         UART_1_PutString("MODE 1 \n\r");
 2372              		.loc 1 198 0
 2373 007c 2048     		ldr	r0, .L7+16
 2374 007e FFF7FEFF 		bl	UART_1_PutString
 2375 0082 33E0     		b	.L3
 2376              	.L4:
 199:main.c        ****     }
 200:main.c        ****     else if(dice1 == 1 && dice2 == 0 && mode != 2){
 2377              		.loc 1 200 0
 2378 0084 1A4B     		ldr	r3, .L7
 2379 0086 1B68     		ldr	r3, [r3]
 2380 0088 012B     		cmp	r3, #1
 2381 008a 15D1     		bne	.L5
 2382              		.loc 1 200 0 is_stmt 0 discriminator 1
 2383 008c 194B     		ldr	r3, .L7+4
 2384 008e 1B68     		ldr	r3, [r3]
 2385 0090 002B     		cmp	r3, #0
 2386 0092 11D1     		bne	.L5
 2387              		.loc 1 200 0 discriminator 2
 2388 0094 184B     		ldr	r3, .L7+8
 2389 0096 1B78     		ldrb	r3, [r3]
 2390 0098 DBB2     		uxtb	r3, r3
 2391 009a 022B     		cmp	r3, #2
 2392 009c 0CD0     		beq	.L5
 201:main.c        ****         mode = 2;
 2393              		.loc 1 201 0 is_stmt 1
 2394 009e 164B     		ldr	r3, .L7+8
 2395 00a0 0222     		movs	r2, #2
 2396 00a2 1A70     		strb	r2, [r3]
 202:main.c        ****         Pin_Dice_LED_1_Write(1);
 2397              		.loc 1 202 0
 2398 00a4 0120     		movs	r0, #1
 2399 00a6 FFF7FEFF 		bl	Pin_Dice_LED_1_Write
 203:main.c        ****         Pin_Dice_LED_2_Write(0);
 2400              		.loc 1 203 0
 2401 00aa 0020     		movs	r0, #0
 2402 00ac FFF7FEFF 		bl	Pin_Dice_LED_2_Write
 204:main.c        ****         UART_1_PutString("MODE 2 \n\r");
 2403              		.loc 1 204 0
 2404 00b0 1448     		ldr	r0, .L7+20
 2405 00b2 FFF7FEFF 		bl	UART_1_PutString
ARM GAS  C:\Users\silvan\AppData\Local\Temp\ccww2N2V.s 			page 47


 2406 00b6 19E0     		b	.L3
 2407              	.L5:
 205:main.c        ****     }
 206:main.c        ****     else if(dice1 == 1 && dice2 == 1 && mode != 3){
 2408              		.loc 1 206 0
 2409 00b8 0D4B     		ldr	r3, .L7
 2410 00ba 1B68     		ldr	r3, [r3]
 2411 00bc 012B     		cmp	r3, #1
 2412 00be 15D1     		bne	.L6
 2413              		.loc 1 206 0 is_stmt 0 discriminator 1
 2414 00c0 0C4B     		ldr	r3, .L7+4
 2415 00c2 1B68     		ldr	r3, [r3]
 2416 00c4 012B     		cmp	r3, #1
 2417 00c6 11D1     		bne	.L6
 2418              		.loc 1 206 0 discriminator 2
 2419 00c8 0B4B     		ldr	r3, .L7+8
 2420 00ca 1B78     		ldrb	r3, [r3]
 2421 00cc DBB2     		uxtb	r3, r3
 2422 00ce 032B     		cmp	r3, #3
 2423 00d0 0CD0     		beq	.L6
 207:main.c        ****         mode = 3;
 2424              		.loc 1 207 0 is_stmt 1
 2425 00d2 094B     		ldr	r3, .L7+8
 2426 00d4 0322     		movs	r2, #3
 2427 00d6 1A70     		strb	r2, [r3]
 208:main.c        ****         Pin_Dice_LED_1_Write(1);
 2428              		.loc 1 208 0
 2429 00d8 0120     		movs	r0, #1
 2430 00da FFF7FEFF 		bl	Pin_Dice_LED_1_Write
 209:main.c        ****         Pin_Dice_LED_2_Write(1);
 2431              		.loc 1 209 0
 2432 00de 0120     		movs	r0, #1
 2433 00e0 FFF7FEFF 		bl	Pin_Dice_LED_2_Write
 210:main.c        ****         UART_1_PutString("MODE 3 \n\r");
 2434              		.loc 1 210 0
 2435 00e4 0848     		ldr	r0, .L7+24
 2436 00e6 FFF7FEFF 		bl	UART_1_PutString
 211:main.c        ****     }
 212:main.c        **** }
 2437              		.loc 1 212 0
 2438 00ea FFE7     		b	.L6
 2439              	.L3:
 2440              	.L6:
 2441 00ec 00BF     		nop
 2442 00ee 80BD     		pop	{r7, pc}
 2443              	.L8:
 2444              		.align	2
 2445              	.L7:
 2446 00f0 00000000 		.word	dice1
 2447 00f4 00000000 		.word	dice2
 2448 00f8 00000000 		.word	mode
 2449 00fc 84050000 		.word	.LC0
 2450 0100 90050000 		.word	.LC1
 2451 0104 9C050000 		.word	.LC2
 2452 0108 A8050000 		.word	.LC3
 2453              		.cfi_endproc
 2454              	.LFE64:
ARM GAS  C:\Users\silvan\AppData\Local\Temp\ccww2N2V.s 			page 48


 2455              		.size	modecheck, .-modecheck
 2456              		.global	__aeabi_i2d
 2457              		.global	__aeabi_d2uiz
 2458              		.section	.rodata
 2459 05b2 0000     		.align	2
 2460              	.LC4:
 2461 05b4 25632563 		.ascii	"%c%c%c : %iHz DIV: %i\012\015\000"
 2461      2563203A 
 2461      20256948 
 2461      7A204449 
 2461      563A2025 
 2462              		.section	.text.longSweep,"ax",%progbits
 2463              		.align	2
 2464              		.global	longSweep
 2465              		.thumb
 2466              		.thumb_func
 2467              		.type	longSweep, %function
 2468              	longSweep:
 2469              	.LFB65:
 213:main.c        **** 
 214:main.c        **** void longSweep(){ // FREQ SWEEP 6kHz to 30Hz SHOWING FREQS AND DIV VIA UART
 2470              		.loc 1 214 0
 2471              		.cfi_startproc
 2472              		@ args = 0, pretend = 0, frame = 8
 2473              		@ frame_needed = 1, uses_anonymous_args = 0
 2474 0000 90B5     		push	{r4, r7, lr}
 2475              		.cfi_def_cfa_offset 12
 2476              		.cfi_offset 4, -12
 2477              		.cfi_offset 7, -8
 2478              		.cfi_offset 14, -4
 2479 0002 87B0     		sub	sp, sp, #28
 2480              		.cfi_def_cfa_offset 40
 2481 0004 04AF     		add	r7, sp, #16
 2482              		.cfi_def_cfa 7, 24
 215:main.c        ****     if (button2){
 2483              		.loc 1 215 0
 2484 0006 4A4B     		ldr	r3, .L16
 2485 0008 1B78     		ldrb	r3, [r3]
 2486 000a DBB2     		uxtb	r3, r3
 2487 000c 002B     		cmp	r3, #0
 2488 000e 00F08B80 		beq	.L15
 216:main.c        ****         if (freqClockDivCounter > MAX_FREQ_DIV){
 2489              		.loc 1 216 0
 2490 0012 484B     		ldr	r3, .L16+4
 2491 0014 1B88     		ldrh	r3, [r3]
 2492 0016 B3F5FA5F 		cmp	r3, #8000
 2493 001a 02D9     		bls	.L11
 217:main.c        ****             freqClockDivCounter = START_FREQ_DIV;
 2494              		.loc 1 217 0
 2495 001c 454B     		ldr	r3, .L16+4
 2496 001e 7822     		movs	r2, #120
 2497 0020 1A80     		strh	r2, [r3]	@ movhi
 2498              	.L11:
 218:main.c        ****         }
 219:main.c        ****         freq = 250000 / freqClockDivCounter;
 2499              		.loc 1 219 0
 2500 0022 444B     		ldr	r3, .L16+4
ARM GAS  C:\Users\silvan\AppData\Local\Temp\ccww2N2V.s 			page 49


 2501 0024 1B88     		ldrh	r3, [r3]
 2502 0026 1A46     		mov	r2, r3
 2503 0028 434B     		ldr	r3, .L16+8
 2504 002a 93FBF2F3 		sdiv	r3, r3, r2
 2505 002e 1846     		mov	r0, r3
 2506 0030 FFF7FEFF 		bl	__aeabi_i2d
 2507 0034 0346     		mov	r3, r0
 2508 0036 0C46     		mov	r4, r1
 2509 0038 404A     		ldr	r2, .L16+12
 2510 003a C2E90034 		strd	r3, [r2]
 220:main.c        ****         intFreq = freq;
 2511              		.loc 1 220 0
 2512 003e 3F4B     		ldr	r3, .L16+12
 2513 0040 18CB     		ldmia	r3, {r3-r4}
 2514 0042 1846     		mov	r0, r3
 2515 0044 2146     		mov	r1, r4
 2516 0046 FFF7FEFF 		bl	__aeabi_d2uiz
 2517 004a 0346     		mov	r3, r0
 2518 004c 9AB2     		uxth	r2, r3
 2519 004e 3C4B     		ldr	r3, .L16+16
 2520 0050 1A80     		strh	r2, [r3]	@ movhi
 2521              	.LBB2:
 221:main.c        ****         for (uint i=0; i < sizeof(intFrequency)/sizeof(intFrequency[0]); i++){
 2522              		.loc 1 221 0
 2523 0052 0023     		movs	r3, #0
 2524 0054 7B60     		str	r3, [r7, #4]
 2525 0056 44E0     		b	.L12
 2526              	.L14:
 222:main.c        ****             if (intFreq == intFrequency[i]){
 2527              		.loc 1 222 0
 2528 0058 3A4A     		ldr	r2, .L16+20
 2529 005a 7B68     		ldr	r3, [r7, #4]
 2530 005c 32F81320 		ldrh	r2, [r2, r3, lsl #1]
 2531 0060 374B     		ldr	r3, .L16+16
 2532 0062 1B88     		ldrh	r3, [r3]	@ movhi
 2533 0064 9BB2     		uxth	r3, r3
 2534 0066 9A42     		cmp	r2, r3
 2535 0068 38D1     		bne	.L13
 223:main.c        ****                 noteIndex = i;
 2536              		.loc 1 223 0
 2537 006a 7B68     		ldr	r3, [r7, #4]
 2538 006c DAB2     		uxtb	r2, r3
 2539 006e 364B     		ldr	r3, .L16+24
 2540 0070 1A70     		strb	r2, [r3]
 224:main.c        ****                 sprintf(transmitBuffer, "%c%c%c : %iHz DIV: %i\n\r", notes[noteIndex][0],notes[note
 2541              		.loc 1 224 0
 2542 0072 354B     		ldr	r3, .L16+24
 2543 0074 1B78     		ldrb	r3, [r3]
 2544 0076 DBB2     		uxtb	r3, r3
 2545 0078 1946     		mov	r1, r3
 2546 007a 344A     		ldr	r2, .L16+28
 2547 007c 0B46     		mov	r3, r1
 2548 007e 5B00     		lsls	r3, r3, #1
 2549 0080 0B44     		add	r3, r3, r1
 2550 0082 1344     		add	r3, r3, r2
 2551 0084 1B78     		ldrb	r3, [r3]	@ zero_extendqisi2
 2552 0086 1846     		mov	r0, r3
ARM GAS  C:\Users\silvan\AppData\Local\Temp\ccww2N2V.s 			page 50


 2553 0088 2F4B     		ldr	r3, .L16+24
 2554 008a 1B78     		ldrb	r3, [r3]
 2555 008c DBB2     		uxtb	r3, r3
 2556 008e 1946     		mov	r1, r3
 2557 0090 2E4A     		ldr	r2, .L16+28
 2558 0092 0B46     		mov	r3, r1
 2559 0094 5B00     		lsls	r3, r3, #1
 2560 0096 0B44     		add	r3, r3, r1
 2561 0098 1344     		add	r3, r3, r2
 2562 009a 0133     		adds	r3, r3, #1
 2563 009c 1B78     		ldrb	r3, [r3]	@ zero_extendqisi2
 2564 009e 1C46     		mov	r4, r3
 2565 00a0 294B     		ldr	r3, .L16+24
 2566 00a2 1B78     		ldrb	r3, [r3]
 2567 00a4 DBB2     		uxtb	r3, r3
 2568 00a6 1946     		mov	r1, r3
 2569 00a8 284A     		ldr	r2, .L16+28
 2570 00aa 0B46     		mov	r3, r1
 2571 00ac 5B00     		lsls	r3, r3, #1
 2572 00ae 0B44     		add	r3, r3, r1
 2573 00b0 1344     		add	r3, r3, r2
 2574 00b2 0233     		adds	r3, r3, #2
 2575 00b4 1B78     		ldrb	r3, [r3]	@ zero_extendqisi2
 2576 00b6 1A46     		mov	r2, r3
 2577 00b8 214B     		ldr	r3, .L16+16
 2578 00ba 1B88     		ldrh	r3, [r3]	@ movhi
 2579 00bc 9BB2     		uxth	r3, r3
 2580 00be 1946     		mov	r1, r3
 2581 00c0 1C4B     		ldr	r3, .L16+4
 2582 00c2 1B88     		ldrh	r3, [r3]
 2583 00c4 0293     		str	r3, [sp, #8]
 2584 00c6 0191     		str	r1, [sp, #4]
 2585 00c8 0092     		str	r2, [sp]
 2586 00ca 2346     		mov	r3, r4
 2587 00cc 0246     		mov	r2, r0
 2588 00ce 2049     		ldr	r1, .L16+32
 2589 00d0 2048     		ldr	r0, .L16+36
 2590 00d2 FFF7FEFF 		bl	sprintf
 225:main.c        ****                 UART_1_PutString(transmitBuffer);
 2591              		.loc 1 225 0
 2592 00d6 1F48     		ldr	r0, .L16+36
 2593 00d8 FFF7FEFF 		bl	UART_1_PutString
 2594              	.L13:
 221:main.c        ****             if (intFreq == intFrequency[i]){
 2595              		.loc 1 221 0 discriminator 2
 2596 00dc 7B68     		ldr	r3, [r7, #4]
 2597 00de 0133     		adds	r3, r3, #1
 2598 00e0 7B60     		str	r3, [r7, #4]
 2599              	.L12:
 221:main.c        ****             if (intFreq == intFrequency[i]){
 2600              		.loc 1 221 0 is_stmt 0 discriminator 1
 2601 00e2 7B68     		ldr	r3, [r7, #4]
 2602 00e4 6B2B     		cmp	r3, #107
 2603 00e6 B7D9     		bls	.L14
 2604              	.LBE2:
 226:main.c        ****             }
 227:main.c        ****         }
ARM GAS  C:\Users\silvan\AppData\Local\Temp\ccww2N2V.s 			page 51


 228:main.c        ****         Clock_1_SetDividerValue(freqClockDivCounter);
 2605              		.loc 1 228 0 is_stmt 1
 2606 00e8 124B     		ldr	r3, .L16+4
 2607 00ea 1B88     		ldrh	r3, [r3]
 2608 00ec 013B     		subs	r3, r3, #1
 2609 00ee 9BB2     		uxth	r3, r3
 2610 00f0 0121     		movs	r1, #1
 2611 00f2 1846     		mov	r0, r3
 2612 00f4 FFF7FEFF 		bl	Clock_1_SetDividerRegister
 229:main.c        ****         freqClockDivCounter++;
 2613              		.loc 1 229 0
 2614 00f8 0E4B     		ldr	r3, .L16+4
 2615 00fa 1B88     		ldrh	r3, [r3]
 2616 00fc 0133     		adds	r3, r3, #1
 2617 00fe 9AB2     		uxth	r2, r3
 2618 0100 0C4B     		ldr	r3, .L16+4
 2619 0102 1A80     		strh	r2, [r3]	@ movhi
 230:main.c        ****         delayMS = (MAX_FREQ_DIV / (2* freqClockDivCounter)) + 20;
 2620              		.loc 1 230 0
 2621 0104 0B4B     		ldr	r3, .L16+4
 2622 0106 1B88     		ldrh	r3, [r3]
 2623 0108 5B00     		lsls	r3, r3, #1
 2624 010a 4FF4FA52 		mov	r2, #8000
 2625 010e 92FBF3F3 		sdiv	r3, r2, r3
 2626 0112 9BB2     		uxth	r3, r3
 2627 0114 1433     		adds	r3, r3, #20
 2628 0116 9AB2     		uxth	r2, r3
 2629 0118 0F4B     		ldr	r3, .L16+40
 2630 011a 1A80     		strh	r2, [r3]	@ movhi
 231:main.c        ****         CyDelay(delayMS);    
 2631              		.loc 1 231 0
 2632 011c 0E4B     		ldr	r3, .L16+40
 2633 011e 1B88     		ldrh	r3, [r3]	@ movhi
 2634 0120 9BB2     		uxth	r3, r3
 2635 0122 1846     		mov	r0, r3
 2636 0124 FFF7FEFF 		bl	CyDelay
 2637              	.L15:
 232:main.c        ****     }
 233:main.c        **** }
 2638              		.loc 1 233 0
 2639 0128 00BF     		nop
 2640 012a 0C37     		adds	r7, r7, #12
 2641              		.cfi_def_cfa_offset 12
 2642 012c BD46     		mov	sp, r7
 2643              		.cfi_def_cfa_register 13
 2644              		@ sp needed
 2645 012e 90BD     		pop	{r4, r7, pc}
 2646              	.L17:
 2647              		.align	2
 2648              	.L16:
 2649 0130 00000000 		.word	button2
 2650 0134 00000000 		.word	freqClockDivCounter
 2651 0138 90D00300 		.word	250000
 2652 013c 00000000 		.word	freq
 2653 0140 00000000 		.word	intFreq
 2654 0144 00000000 		.word	intFrequency
 2655 0148 00000000 		.word	noteIndex
ARM GAS  C:\Users\silvan\AppData\Local\Temp\ccww2N2V.s 			page 52


 2656 014c 00000000 		.word	notes
 2657 0150 B4050000 		.word	.LC4
 2658 0154 00000000 		.word	transmitBuffer
 2659 0158 00000000 		.word	delayMS
 2660              		.cfi_endproc
 2661              	.LFE65:
 2662              		.size	longSweep, .-longSweep
 2663              		.section	.rodata
 2664              		.align	2
 2665              	.LC5:
 2666 05cc 504C4159 		.ascii	"PLAY RANGE \012\015\000"
 2666      2052414E 
 2666      4745200A 
 2666      0D00
 2667              		.section	.text.playRange,"ax",%progbits
 2668              		.align	2
 2669              		.global	playRange
 2670              		.thumb
 2671              		.thumb_func
 2672              		.type	playRange, %function
 2673              	playRange:
 2674              	.LFB66:
 234:main.c        **** 
 235:main.c        **** void playRange(uint8 minIndex, uint8 maxIndex, uint16 playRangeDelay){
 2675              		.loc 1 235 0
 2676              		.cfi_startproc
 2677              		@ args = 0, pretend = 0, frame = 16
 2678              		@ frame_needed = 1, uses_anonymous_args = 0
 2679 0000 90B5     		push	{r4, r7, lr}
 2680              		.cfi_def_cfa_offset 12
 2681              		.cfi_offset 4, -12
 2682              		.cfi_offset 7, -8
 2683              		.cfi_offset 14, -4
 2684 0002 89B0     		sub	sp, sp, #36
 2685              		.cfi_def_cfa_offset 48
 2686 0004 04AF     		add	r7, sp, #16
 2687              		.cfi_def_cfa 7, 32
 2688 0006 0346     		mov	r3, r0
 2689 0008 FB71     		strb	r3, [r7, #7]
 2690 000a 0B46     		mov	r3, r1
 2691 000c BB71     		strb	r3, [r7, #6]
 2692 000e 1346     		mov	r3, r2	@ movhi
 2693 0010 BB80     		strh	r3, [r7, #4]	@ movhi
 236:main.c        ****     if (maxIndex > 107){
 2694              		.loc 1 236 0
 2695 0012 BB79     		ldrb	r3, [r7, #6]	@ zero_extendqisi2
 2696 0014 6B2B     		cmp	r3, #107
 2697 0016 01D9     		bls	.L19
 237:main.c        ****         maxIndex = 107;
 2698              		.loc 1 237 0
 2699 0018 6B23     		movs	r3, #107
 2700 001a BB71     		strb	r3, [r7, #6]
 2701              	.L19:
 238:main.c        ****     }
 239:main.c        ****     if (button1){
 2702              		.loc 1 239 0
 2703 001c 2F4B     		ldr	r3, .L25
ARM GAS  C:\Users\silvan\AppData\Local\Temp\ccww2N2V.s 			page 53


 2704 001e 1B78     		ldrb	r3, [r3]
 2705 0020 DBB2     		uxtb	r3, r3
 2706 0022 002B     		cmp	r3, #0
 2707 0024 57D0     		beq	.L18
 240:main.c        ****         UART_1_PutString("PLAY RANGE \n\r");
 2708              		.loc 1 240 0
 2709 0026 2E48     		ldr	r0, .L25+4
 2710 0028 FFF7FEFF 		bl	UART_1_PutString
 2711              	.LBB3:
 241:main.c        ****         for (uint8 i = minIndex; i <= maxIndex; i++){
 2712              		.loc 1 241 0
 2713 002c FB79     		ldrb	r3, [r7, #7]
 2714 002e FB73     		strb	r3, [r7, #15]
 2715 0030 4BE0     		b	.L21
 2716              	.L23:
 242:main.c        ****             if (button2){
 2717              		.loc 1 242 0
 2718 0032 2C4B     		ldr	r3, .L25+8
 2719 0034 1B78     		ldrb	r3, [r3]
 2720 0036 DBB2     		uxtb	r3, r3
 2721 0038 002B     		cmp	r3, #0
 2722 003a 4BD1     		bne	.L24
 243:main.c        ****                 return;
 244:main.c        ****             }
 245:main.c        ****             freqClockDivCounter = 250000 / intFrequency[i];
 2723              		.loc 1 245 0 discriminator 2
 2724 003c FB7B     		ldrb	r3, [r7, #15]	@ zero_extendqisi2
 2725 003e 2A4A     		ldr	r2, .L25+12
 2726 0040 32F81330 		ldrh	r3, [r2, r3, lsl #1]
 2727 0044 1A46     		mov	r2, r3
 2728 0046 294B     		ldr	r3, .L25+16
 2729 0048 93FBF2F3 		sdiv	r3, r3, r2
 2730 004c 9AB2     		uxth	r2, r3
 2731 004e 284B     		ldr	r3, .L25+20
 2732 0050 1A80     		strh	r2, [r3]	@ movhi
 246:main.c        ****             Clock_1_SetDividerValue(freqClockDivCounter);
 2733              		.loc 1 246 0 discriminator 2
 2734 0052 274B     		ldr	r3, .L25+20
 2735 0054 1B88     		ldrh	r3, [r3]
 2736 0056 013B     		subs	r3, r3, #1
 2737 0058 9BB2     		uxth	r3, r3
 2738 005a 0121     		movs	r1, #1
 2739 005c 1846     		mov	r0, r3
 2740 005e FFF7FEFF 		bl	Clock_1_SetDividerRegister
 247:main.c        ****             sprintf(transmitBuffer, "%c%c%c : %iHz DIV: %i\n\r", notes[i][0],notes[i][1], notes[i][
 2741              		.loc 1 247 0 discriminator 2
 2742 0062 FA7B     		ldrb	r2, [r7, #15]	@ zero_extendqisi2
 2743 0064 2349     		ldr	r1, .L25+24
 2744 0066 1346     		mov	r3, r2
 2745 0068 5B00     		lsls	r3, r3, #1
 2746 006a 1344     		add	r3, r3, r2
 2747 006c 0B44     		add	r3, r3, r1
 2748 006e 1B78     		ldrb	r3, [r3]	@ zero_extendqisi2
 2749 0070 1846     		mov	r0, r3
 2750 0072 FA7B     		ldrb	r2, [r7, #15]	@ zero_extendqisi2
 2751 0074 1F49     		ldr	r1, .L25+24
 2752 0076 1346     		mov	r3, r2
ARM GAS  C:\Users\silvan\AppData\Local\Temp\ccww2N2V.s 			page 54


 2753 0078 5B00     		lsls	r3, r3, #1
 2754 007a 1344     		add	r3, r3, r2
 2755 007c 0B44     		add	r3, r3, r1
 2756 007e 0133     		adds	r3, r3, #1
 2757 0080 1B78     		ldrb	r3, [r3]	@ zero_extendqisi2
 2758 0082 1C46     		mov	r4, r3
 2759 0084 FA7B     		ldrb	r2, [r7, #15]	@ zero_extendqisi2
 2760 0086 1B49     		ldr	r1, .L25+24
 2761 0088 1346     		mov	r3, r2
 2762 008a 5B00     		lsls	r3, r3, #1
 2763 008c 1344     		add	r3, r3, r2
 2764 008e 0B44     		add	r3, r3, r1
 2765 0090 0233     		adds	r3, r3, #2
 2766 0092 1B78     		ldrb	r3, [r3]	@ zero_extendqisi2
 2767 0094 1946     		mov	r1, r3
 2768 0096 FB7B     		ldrb	r3, [r7, #15]	@ zero_extendqisi2
 2769 0098 134A     		ldr	r2, .L25+12
 2770 009a 32F81330 		ldrh	r3, [r2, r3, lsl #1]
 2771 009e 1A46     		mov	r2, r3
 2772 00a0 134B     		ldr	r3, .L25+20
 2773 00a2 1B88     		ldrh	r3, [r3]
 2774 00a4 0293     		str	r3, [sp, #8]
 2775 00a6 0192     		str	r2, [sp, #4]
 2776 00a8 0091     		str	r1, [sp]
 2777 00aa 2346     		mov	r3, r4
 2778 00ac 0246     		mov	r2, r0
 2779 00ae 1249     		ldr	r1, .L25+28
 2780 00b0 1248     		ldr	r0, .L25+32
 2781 00b2 FFF7FEFF 		bl	sprintf
 248:main.c        ****             UART_1_PutString(transmitBuffer);
 2782              		.loc 1 248 0 discriminator 2
 2783 00b6 1148     		ldr	r0, .L25+32
 2784 00b8 FFF7FEFF 		bl	UART_1_PutString
 249:main.c        ****             CyDelay(playRangeDelay);
 2785              		.loc 1 249 0 discriminator 2
 2786 00bc BB88     		ldrh	r3, [r7, #4]
 2787 00be 1846     		mov	r0, r3
 2788 00c0 FFF7FEFF 		bl	CyDelay
 241:main.c        ****             if (button2){
 2789              		.loc 1 241 0 discriminator 2
 2790 00c4 FB7B     		ldrb	r3, [r7, #15]	@ zero_extendqisi2
 2791 00c6 0133     		adds	r3, r3, #1
 2792 00c8 FB73     		strb	r3, [r7, #15]
 2793              	.L21:
 241:main.c        ****             if (button2){
 2794              		.loc 1 241 0 is_stmt 0 discriminator 1
 2795 00ca FA7B     		ldrb	r2, [r7, #15]	@ zero_extendqisi2
 2796 00cc BB79     		ldrb	r3, [r7, #6]	@ zero_extendqisi2
 2797 00ce 9A42     		cmp	r2, r3
 2798 00d0 AFD9     		bls	.L23
 2799 00d2 00E0     		b	.L18
 2800              	.L24:
 243:main.c        ****             }
 2801              		.loc 1 243 0 is_stmt 1
 2802 00d4 00BF     		nop
 2803              	.L18:
 2804              	.LBE3:
ARM GAS  C:\Users\silvan\AppData\Local\Temp\ccww2N2V.s 			page 55


 250:main.c        ****         }     
 251:main.c        ****     }
 252:main.c        **** }
 2805              		.loc 1 252 0
 2806 00d6 1437     		adds	r7, r7, #20
 2807              		.cfi_def_cfa_offset 12
 2808 00d8 BD46     		mov	sp, r7
 2809              		.cfi_def_cfa_register 13
 2810              		@ sp needed
 2811 00da 90BD     		pop	{r4, r7, pc}
 2812              	.L26:
 2813              		.align	2
 2814              	.L25:
 2815 00dc 00000000 		.word	button1
 2816 00e0 CC050000 		.word	.LC5
 2817 00e4 00000000 		.word	button2
 2818 00e8 00000000 		.word	intFrequency
 2819 00ec 90D00300 		.word	250000
 2820 00f0 00000000 		.word	freqClockDivCounter
 2821 00f4 00000000 		.word	notes
 2822 00f8 B4050000 		.word	.LC4
 2823 00fc 00000000 		.word	transmitBuffer
 2824              		.cfi_endproc
 2825              	.LFE66:
 2826              		.size	playRange, .-playRange
 2827              		.section	.rodata
 2828 05da 0000     		.align	2
 2829              	.LC6:
 2830 05dc 6F637461 		.ascii	"octaveSelect: %i\012\015\000"
 2830      76655365 
 2830      6C656374 
 2830      3A202569 
 2830      0A0D00
 2831 05ef 00       		.align	2
 2832              	.LC7:
 2833 05f0 6563686F 		.ascii	"echoTuneDelay: %i\012\015\000"
 2833      54756E65 
 2833      44656C61 
 2833      793A2025 
 2833      690A0D00 
 2834              		.align	2
 2835              	.LC8:
 2836 0604 63536361 		.ascii	"cScaleGroup: %i\012\015\000"
 2836      6C654772 
 2836      6F75703A 
 2836      2025690A 
 2836      0D00
 2837 0616 0000     		.align	2
 2838              	.LC9:
 2839 0618 63536361 		.ascii	"cScale:      %i\012\015\000"
 2839      6C653A20 
 2839      20202020 
 2839      2025690A 
 2839      0D00
 2840              		.global	__aeabi_ddiv
 2841              		.section	.text.distanceEchoPitch,"ax",%progbits
 2842              		.align	2
ARM GAS  C:\Users\silvan\AppData\Local\Temp\ccww2N2V.s 			page 56


 2843              		.global	distanceEchoPitch
 2844              		.thumb
 2845              		.thumb_func
 2846              		.type	distanceEchoPitch, %function
 2847              	distanceEchoPitch:
 2848              	.LFB67:
 253:main.c        **** 
 254:main.c        **** void distanceEchoPitch(){
 2849              		.loc 1 254 0
 2850              		.cfi_startproc
 2851              		@ args = 0, pretend = 0, frame = 8
 2852              		@ frame_needed = 1, uses_anonymous_args = 0
 2853 0000 90B5     		push	{r4, r7, lr}
 2854              		.cfi_def_cfa_offset 12
 2855              		.cfi_offset 4, -12
 2856              		.cfi_offset 7, -8
 2857              		.cfi_offset 14, -4
 2858 0002 83B0     		sub	sp, sp, #12
 2859              		.cfi_def_cfa_offset 24
 2860 0004 00AF     		add	r7, sp, #0
 2861              		.cfi_def_cfa_register 7
 255:main.c        ****     if (analogButFlag){
 2862              		.loc 1 255 0
 2863 0006 9E4B     		ldr	r3, .L48
 2864 0008 1B78     		ldrb	r3, [r3]	@ zero_extendqisi2
 2865 000a 002B     		cmp	r3, #0
 2866 000c 1CD0     		beq	.L28
 256:main.c        ****         octaveSelect++;
 2867              		.loc 1 256 0
 2868 000e 9D4B     		ldr	r3, .L48+4
 2869 0010 1B78     		ldrb	r3, [r3]
 2870 0012 DBB2     		uxtb	r3, r3
 2871 0014 0133     		adds	r3, r3, #1
 2872 0016 DAB2     		uxtb	r2, r3
 2873 0018 9A4B     		ldr	r3, .L48+4
 2874 001a 1A70     		strb	r2, [r3]
 257:main.c        ****         if (octaveSelect > 4){
 2875              		.loc 1 257 0
 2876 001c 994B     		ldr	r3, .L48+4
 2877 001e 1B78     		ldrb	r3, [r3]
 2878 0020 DBB2     		uxtb	r3, r3
 2879 0022 042B     		cmp	r3, #4
 2880 0024 02D9     		bls	.L29
 258:main.c        ****            octaveSelect = 1; 
 2881              		.loc 1 258 0
 2882 0026 974B     		ldr	r3, .L48+4
 2883 0028 0122     		movs	r2, #1
 2884 002a 1A70     		strb	r2, [r3]
 2885              	.L29:
 259:main.c        ****         }
 260:main.c        ****         sprintf(transmitBuffer, "octaveSelect: %i\n\r", octaveSelect);             
 2886              		.loc 1 260 0
 2887 002c 954B     		ldr	r3, .L48+4
 2888 002e 1B78     		ldrb	r3, [r3]
 2889 0030 DBB2     		uxtb	r3, r3
 2890 0032 1A46     		mov	r2, r3
 2891 0034 9449     		ldr	r1, .L48+8
ARM GAS  C:\Users\silvan\AppData\Local\Temp\ccww2N2V.s 			page 57


 2892 0036 9548     		ldr	r0, .L48+12
 2893 0038 FFF7FEFF 		bl	sprintf
 261:main.c        ****         UART_1_PutString(transmitBuffer);
 2894              		.loc 1 261 0
 2895 003c 9348     		ldr	r0, .L48+12
 2896 003e FFF7FEFF 		bl	UART_1_PutString
 262:main.c        ****         analogButFlag = 0;
 2897              		.loc 1 262 0
 2898 0042 8F4B     		ldr	r3, .L48
 2899 0044 0022     		movs	r2, #0
 2900 0046 1A70     		strb	r2, [r3]
 2901              	.L28:
 263:main.c        ****     }
 264:main.c        ****     if (button1){
 2902              		.loc 1 264 0
 2903 0048 914B     		ldr	r3, .L48+16
 2904 004a 1B78     		ldrb	r3, [r3]
 2905 004c DBB2     		uxtb	r3, r3
 2906 004e 002B     		cmp	r3, #0
 2907 0050 1DD0     		beq	.L30
 265:main.c        ****         echoTuneDelay *= 2;
 2908              		.loc 1 265 0
 2909 0052 904B     		ldr	r3, .L48+20
 2910 0054 1B88     		ldrh	r3, [r3]	@ movhi
 2911 0056 9BB2     		uxth	r3, r3
 2912 0058 5B00     		lsls	r3, r3, #1
 2913 005a 9AB2     		uxth	r2, r3
 2914 005c 8D4B     		ldr	r3, .L48+20
 2915 005e 1A80     		strh	r2, [r3]	@ movhi
 266:main.c        ****         if (echoTuneDelay > 300){
 2916              		.loc 1 266 0
 2917 0060 8C4B     		ldr	r3, .L48+20
 2918 0062 1B88     		ldrh	r3, [r3]	@ movhi
 2919 0064 9BB2     		uxth	r3, r3
 2920 0066 B3F5967F 		cmp	r3, #300
 2921 006a 02D9     		bls	.L31
 267:main.c        ****            echoTuneDelay = 40; 
 2922              		.loc 1 267 0
 2923 006c 894B     		ldr	r3, .L48+20
 2924 006e 2822     		movs	r2, #40
 2925 0070 1A80     		strh	r2, [r3]	@ movhi
 2926              	.L31:
 268:main.c        ****         }
 269:main.c        ****         sprintf(transmitBuffer, "echoTuneDelay: %i\n\r", echoTuneDelay);             
 2927              		.loc 1 269 0
 2928 0072 884B     		ldr	r3, .L48+20
 2929 0074 1B88     		ldrh	r3, [r3]	@ movhi
 2930 0076 9BB2     		uxth	r3, r3
 2931 0078 1A46     		mov	r2, r3
 2932 007a 8749     		ldr	r1, .L48+24
 2933 007c 8348     		ldr	r0, .L48+12
 2934 007e FFF7FEFF 		bl	sprintf
 270:main.c        ****         UART_1_PutString(transmitBuffer);
 2935              		.loc 1 270 0
 2936 0082 8248     		ldr	r0, .L48+12
 2937 0084 FFF7FEFF 		bl	UART_1_PutString
 271:main.c        ****         button1 = 0;
ARM GAS  C:\Users\silvan\AppData\Local\Temp\ccww2N2V.s 			page 58


 2938              		.loc 1 271 0
 2939 0088 814B     		ldr	r3, .L48+16
 2940 008a 0022     		movs	r2, #0
 2941 008c 1A70     		strb	r2, [r3]
 2942              	.L30:
 272:main.c        ****     }
 273:main.c        ****     if (button2){
 2943              		.loc 1 273 0
 2944 008e 834B     		ldr	r3, .L48+28
 2945 0090 1B78     		ldrb	r3, [r3]
 2946 0092 DBB2     		uxtb	r3, r3
 2947 0094 002B     		cmp	r3, #0
 2948 0096 2FD0     		beq	.L32
 274:main.c        ****         if (cScaleGroupSelect == 100){
 2949              		.loc 1 274 0
 2950 0098 814B     		ldr	r3, .L48+32
 2951 009a 1B78     		ldrb	r3, [r3]
 2952 009c DBB2     		uxtb	r3, r3
 2953 009e 642B     		cmp	r3, #100
 2954 00a0 06D1     		bne	.L33
 275:main.c        ****             cScaleGroupSelect = 0;
 2955              		.loc 1 275 0
 2956 00a2 7F4B     		ldr	r3, .L48+32
 2957 00a4 0022     		movs	r2, #0
 2958 00a6 1A70     		strb	r2, [r3]
 276:main.c        ****             cScaleSelect = 0;
 2959              		.loc 1 276 0
 2960 00a8 7E4B     		ldr	r3, .L48+36
 2961 00aa 0022     		movs	r2, #0
 2962 00ac 1A70     		strb	r2, [r3]
 2963 00ae 15E0     		b	.L34
 2964              	.L33:
 277:main.c        ****         }
 278:main.c        ****         else if (cScaleGroupSelect == cScaleGroupsLength - 1){
 2965              		.loc 1 278 0
 2966 00b0 7B4B     		ldr	r3, .L48+32
 2967 00b2 1B78     		ldrb	r3, [r3]
 2968 00b4 DBB2     		uxtb	r3, r3
 2969 00b6 1A46     		mov	r2, r3
 2970 00b8 0623     		movs	r3, #6
 2971 00ba 013B     		subs	r3, r3, #1
 2972 00bc 9A42     		cmp	r2, r3
 2973 00be 06D1     		bne	.L35
 279:main.c        ****             cScaleGroupSelect = 100;
 2974              		.loc 1 279 0
 2975 00c0 774B     		ldr	r3, .L48+32
 2976 00c2 6422     		movs	r2, #100
 2977 00c4 1A70     		strb	r2, [r3]
 280:main.c        ****             cScaleSelect = 0;
 2978              		.loc 1 280 0
 2979 00c6 774B     		ldr	r3, .L48+36
 2980 00c8 0022     		movs	r2, #0
 2981 00ca 1A70     		strb	r2, [r3]
 2982 00cc 06E0     		b	.L34
 2983              	.L35:
 281:main.c        ****         }
 282:main.c        ****         else{
ARM GAS  C:\Users\silvan\AppData\Local\Temp\ccww2N2V.s 			page 59


 283:main.c        ****             cScaleGroupSelect++;   
 2984              		.loc 1 283 0
 2985 00ce 744B     		ldr	r3, .L48+32
 2986 00d0 1B78     		ldrb	r3, [r3]
 2987 00d2 DBB2     		uxtb	r3, r3
 2988 00d4 0133     		adds	r3, r3, #1
 2989 00d6 DAB2     		uxtb	r2, r3
 2990 00d8 714B     		ldr	r3, .L48+32
 2991 00da 1A70     		strb	r2, [r3]
 2992              	.L34:
 284:main.c        ****         }
 285:main.c        ****         button2 = 0;
 2993              		.loc 1 285 0
 2994 00dc 6F4B     		ldr	r3, .L48+28
 2995 00de 0022     		movs	r2, #0
 2996 00e0 1A70     		strb	r2, [r3]
 286:main.c        ****         sprintf(transmitBuffer, "cScaleGroup: %i\n\r", cScaleGroupSelect);             
 2997              		.loc 1 286 0
 2998 00e2 6F4B     		ldr	r3, .L48+32
 2999 00e4 1B78     		ldrb	r3, [r3]
 3000 00e6 DBB2     		uxtb	r3, r3
 3001 00e8 1A46     		mov	r2, r3
 3002 00ea 6F49     		ldr	r1, .L48+40
 3003 00ec 6748     		ldr	r0, .L48+12
 3004 00ee FFF7FEFF 		bl	sprintf
 287:main.c        ****         UART_1_PutString(transmitBuffer);
 3005              		.loc 1 287 0
 3006 00f2 6648     		ldr	r0, .L48+12
 3007 00f4 FFF7FEFF 		bl	UART_1_PutString
 3008              	.L32:
 288:main.c        ****     }
 289:main.c        ****     if (button3){
 3009              		.loc 1 289 0
 3010 00f8 6C4B     		ldr	r3, .L48+44
 3011 00fa 1B78     		ldrb	r3, [r3]
 3012 00fc DBB2     		uxtb	r3, r3
 3013 00fe 002B     		cmp	r3, #0
 3014 0100 26D0     		beq	.L36
 290:main.c        ****         if (cScaleSelect == 100){
 3015              		.loc 1 290 0
 3016 0102 684B     		ldr	r3, .L48+36
 3017 0104 1B78     		ldrb	r3, [r3]
 3018 0106 DBB2     		uxtb	r3, r3
 3019 0108 642B     		cmp	r3, #100
 3020 010a 03D1     		bne	.L37
 291:main.c        ****             cScaleSelect = 0;
 3021              		.loc 1 291 0
 3022 010c 654B     		ldr	r3, .L48+36
 3023 010e 0022     		movs	r2, #0
 3024 0110 1A70     		strb	r2, [r3]
 3025 0112 0FE0     		b	.L38
 3026              	.L37:
 292:main.c        ****         }
 293:main.c        ****         else if (cScaleSelect == 7){
 3027              		.loc 1 293 0
 3028 0114 634B     		ldr	r3, .L48+36
 3029 0116 1B78     		ldrb	r3, [r3]
ARM GAS  C:\Users\silvan\AppData\Local\Temp\ccww2N2V.s 			page 60


 3030 0118 DBB2     		uxtb	r3, r3
 3031 011a 072B     		cmp	r3, #7
 3032 011c 03D1     		bne	.L39
 294:main.c        ****             cScaleSelect = 100;
 3033              		.loc 1 294 0
 3034 011e 614B     		ldr	r3, .L48+36
 3035 0120 6422     		movs	r2, #100
 3036 0122 1A70     		strb	r2, [r3]
 3037 0124 06E0     		b	.L38
 3038              	.L39:
 295:main.c        ****         }
 296:main.c        ****         else{
 297:main.c        ****             cScaleSelect++;   
 3039              		.loc 1 297 0
 3040 0126 5F4B     		ldr	r3, .L48+36
 3041 0128 1B78     		ldrb	r3, [r3]
 3042 012a DBB2     		uxtb	r3, r3
 3043 012c 0133     		adds	r3, r3, #1
 3044 012e DAB2     		uxtb	r2, r3
 3045 0130 5C4B     		ldr	r3, .L48+36
 3046 0132 1A70     		strb	r2, [r3]
 3047              	.L38:
 298:main.c        ****         }
 299:main.c        ****         button3 = 0;
 3048              		.loc 1 299 0
 3049 0134 5D4B     		ldr	r3, .L48+44
 3050 0136 0022     		movs	r2, #0
 3051 0138 1A70     		strb	r2, [r3]
 300:main.c        ****         sprintf(transmitBuffer, "cScale:      %i\n\r", cScaleSelect);             
 3052              		.loc 1 300 0
 3053 013a 5A4B     		ldr	r3, .L48+36
 3054 013c 1B78     		ldrb	r3, [r3]
 3055 013e DBB2     		uxtb	r3, r3
 3056 0140 1A46     		mov	r2, r3
 3057 0142 5B49     		ldr	r1, .L48+48
 3058 0144 5148     		ldr	r0, .L48+12
 3059 0146 FFF7FEFF 		bl	sprintf
 301:main.c        ****         UART_1_PutString(transmitBuffer);
 3060              		.loc 1 301 0
 3061 014a 5048     		ldr	r0, .L48+12
 3062 014c FFF7FEFF 		bl	UART_1_PutString
 3063              	.L36:
 302:main.c        ****     }
 303:main.c        ****     if (echoFlag == 0){
 3064              		.loc 1 303 0
 3065 0150 584B     		ldr	r3, .L48+52
 3066 0152 1B78     		ldrb	r3, [r3]
 3067 0154 DBB2     		uxtb	r3, r3
 3068 0156 002B     		cmp	r3, #0
 3069 0158 12D1     		bne	.L40
 304:main.c        ****         Pin_EchoTrig_Write(0);
 3070              		.loc 1 304 0
 3071 015a 0020     		movs	r0, #0
 3072 015c FFF7FEFF 		bl	Pin_EchoTrig_Write
 305:main.c        ****         CyDelayUs(2);
 3073              		.loc 1 305 0
 3074 0160 0220     		movs	r0, #2
ARM GAS  C:\Users\silvan\AppData\Local\Temp\ccww2N2V.s 			page 61


 3075 0162 FFF7FEFF 		bl	CyDelayUs
 306:main.c        ****         Pin_EchoTrig_Write(1);
 3076              		.loc 1 306 0
 3077 0166 0120     		movs	r0, #1
 3078 0168 FFF7FEFF 		bl	Pin_EchoTrig_Write
 307:main.c        ****         CyDelayUs(20);
 3079              		.loc 1 307 0
 3080 016c 1420     		movs	r0, #20
 3081 016e FFF7FEFF 		bl	CyDelayUs
 308:main.c        ****         Pin_EchoTrig_Write(0);
 3082              		.loc 1 308 0
 3083 0172 0020     		movs	r0, #0
 3084 0174 FFF7FEFF 		bl	Pin_EchoTrig_Write
 309:main.c        ****         echoFlag = 1;       
 3085              		.loc 1 309 0
 3086 0178 4E4B     		ldr	r3, .L48+52
 3087 017a 0122     		movs	r2, #1
 3088 017c 1A70     		strb	r2, [r3]
 3089 017e D7E0     		b	.L41
 3090              	.L40:
 310:main.c        ****     }
 311:main.c        ****     else if (echoFlag == 2){
 3091              		.loc 1 311 0
 3092 0180 4C4B     		ldr	r3, .L48+52
 3093 0182 1B78     		ldrb	r3, [r3]
 3094 0184 DBB2     		uxtb	r3, r3
 3095 0186 022B     		cmp	r3, #2
 3096 0188 40F0D280 		bne	.L41
 312:main.c        ****         echoDuration = echoTimerPeriod - echoReadCounter;
 3097              		.loc 1 312 0
 3098 018c 4A4B     		ldr	r3, .L48+56
 3099 018e 1B88     		ldrh	r3, [r3]	@ movhi
 3100 0190 9AB2     		uxth	r2, r3
 3101 0192 4A4B     		ldr	r3, .L48+60
 3102 0194 1B88     		ldrh	r3, [r3]	@ movhi
 3103 0196 9BB2     		uxth	r3, r3
 3104 0198 D31A     		subs	r3, r2, r3
 3105 019a 9AB2     		uxth	r2, r3
 3106 019c 484B     		ldr	r3, .L48+64
 3107 019e 1A80     		strh	r2, [r3]	@ movhi
 313:main.c        **** //        sprintf(transmitBuffer, "EchoDuration: %i\n\r", echoDuration);        
 314:main.c        **** //        UART_1_PutString(transmitBuffer); 
 315:main.c        ****         if (echoDuration < 320 && echoDuration > 10){                
 3108              		.loc 1 315 0
 3109 01a0 474B     		ldr	r3, .L48+64
 3110 01a2 1B88     		ldrh	r3, [r3]	@ movhi
 3111 01a4 9BB2     		uxth	r3, r3
 3112 01a6 B3F5A07F 		cmp	r3, #320
 3113 01aa 19D2     		bcs	.L42
 3114              		.loc 1 315 0 is_stmt 0 discriminator 1
 3115 01ac 444B     		ldr	r3, .L48+64
 3116 01ae 1B88     		ldrh	r3, [r3]	@ movhi
 3117 01b0 9BB2     		uxth	r3, r3
 3118 01b2 0A2B     		cmp	r3, #10
 3119 01b4 14D9     		bls	.L42
 316:main.c        ****            echoDistance = echoDuration / 5.5;  
 3120              		.loc 1 316 0 is_stmt 1
ARM GAS  C:\Users\silvan\AppData\Local\Temp\ccww2N2V.s 			page 62


 3121 01b6 424B     		ldr	r3, .L48+64
 3122 01b8 1B88     		ldrh	r3, [r3]	@ movhi
 3123 01ba 9BB2     		uxth	r3, r3
 3124 01bc 1846     		mov	r0, r3
 3125 01be FFF7FEFF 		bl	__aeabi_i2d
 3126 01c2 4FF00002 		mov	r2, #0
 3127 01c6 3F4B     		ldr	r3, .L48+68
 3128 01c8 FFF7FEFF 		bl	__aeabi_ddiv
 3129 01cc 0346     		mov	r3, r0
 3130 01ce 0C46     		mov	r4, r1
 3131 01d0 1846     		mov	r0, r3
 3132 01d2 2146     		mov	r1, r4
 3133 01d4 FFF7FEFF 		bl	__aeabi_d2uiz
 3134 01d8 0346     		mov	r3, r0
 3135 01da 9AB2     		uxth	r2, r3
 3136 01dc 3A4B     		ldr	r3, .L48+72
 3137 01de 1A80     		strh	r2, [r3]	@ movhi
 3138              	.L42:
 317:main.c        ****         }                 
 318:main.c        **** //        sprintf(transmitBuffer, "echoDistance: %i\n\r", echoDistance);             
 319:main.c        **** //        UART_1_PutString(transmitBuffer); 
 320:main.c        ****         if (cScaleGroupSelect != 100 && cScaleGroupSelect != 100){
 3139              		.loc 1 320 0
 3140 01e0 2F4B     		ldr	r3, .L48+32
 3141 01e2 1B78     		ldrb	r3, [r3]
 3142 01e4 DBB2     		uxtb	r3, r3
 3143 01e6 642B     		cmp	r3, #100
 3144 01e8 78D0     		beq	.L43
 3145              		.loc 1 320 0 is_stmt 0 discriminator 1
 3146 01ea 2D4B     		ldr	r3, .L48+32
 3147 01ec 1B78     		ldrb	r3, [r3]
 3148 01ee DBB2     		uxtb	r3, r3
 3149 01f0 642B     		cmp	r3, #100
 3150 01f2 73D0     		beq	.L43
 3151              	.LBB4:
 321:main.c        ****             for (int i = 0; i < 8; i++){
 3152              		.loc 1 321 0 is_stmt 1
 3153 01f4 0023     		movs	r3, #0
 3154 01f6 7B60     		str	r3, [r7, #4]
 3155 01f8 3DE0     		b	.L44
 3156              	.L46:
 322:main.c        ****                 if ((echoDistance + bassOffsetUp) % 12 == cScales[cScaleGroupSelect][cScaleSelect][
 3157              		.loc 1 322 0
 3158 01fa 334B     		ldr	r3, .L48+72
 3159 01fc 1B88     		ldrh	r3, [r3]	@ movhi
 3160 01fe 9BB2     		uxth	r3, r3
 3161 0200 1A46     		mov	r2, r3
 3162 0202 324B     		ldr	r3, .L48+76
 3163 0204 1B78     		ldrb	r3, [r3]
 3164 0206 DBB2     		uxtb	r3, r3
 3165 0208 D118     		adds	r1, r2, r3
 3166 020a 314B     		ldr	r3, .L48+80
 3167 020c 83FB0123 		smull	r2, r3, r3, r1
 3168 0210 5A10     		asrs	r2, r3, #1
 3169 0212 CB17     		asrs	r3, r1, #31
 3170 0214 D21A     		subs	r2, r2, r3
 3171 0216 1346     		mov	r3, r2
ARM GAS  C:\Users\silvan\AppData\Local\Temp\ccww2N2V.s 			page 63


 3172 0218 5B00     		lsls	r3, r3, #1
 3173 021a 1344     		add	r3, r3, r2
 3174 021c 9B00     		lsls	r3, r3, #2
 3175 021e CA1A     		subs	r2, r1, r3
 3176 0220 1F4B     		ldr	r3, .L48+32
 3177 0222 1B78     		ldrb	r3, [r3]
 3178 0224 DBB2     		uxtb	r3, r3
 3179 0226 1C46     		mov	r4, r3
 3180 0228 1E4B     		ldr	r3, .L48+36
 3181 022a 1B78     		ldrb	r3, [r3]
 3182 022c DBB2     		uxtb	r3, r3
 3183 022e 1846     		mov	r0, r3
 3184 0230 2849     		ldr	r1, .L48+84
 3185 0232 E300     		lsls	r3, r4, #3
 3186 0234 0344     		add	r3, r3, r0
 3187 0236 DB00     		lsls	r3, r3, #3
 3188 0238 1944     		add	r1, r1, r3
 3189 023a 7B68     		ldr	r3, [r7, #4]
 3190 023c 0B44     		add	r3, r3, r1
 3191 023e 1B78     		ldrb	r3, [r3]
 3192 0240 DBB2     		uxtb	r3, r3
 3193 0242 9A42     		cmp	r2, r3
 3194 0244 14D1     		bne	.L45
 323:main.c        ****                     noteIndex = echoDistance + bassOffsetUp + octaveSelect * 12;
 3195              		.loc 1 323 0
 3196 0246 204B     		ldr	r3, .L48+72
 3197 0248 1B88     		ldrh	r3, [r3]	@ movhi
 3198 024a 9BB2     		uxth	r3, r3
 3199 024c DAB2     		uxtb	r2, r3
 3200 024e 1F4B     		ldr	r3, .L48+76
 3201 0250 1B78     		ldrb	r3, [r3]
 3202 0252 DBB2     		uxtb	r3, r3
 3203 0254 1344     		add	r3, r3, r2
 3204 0256 DAB2     		uxtb	r2, r3
 3205 0258 0A4B     		ldr	r3, .L48+4
 3206 025a 1B78     		ldrb	r3, [r3]
 3207 025c DBB2     		uxtb	r3, r3
 3208 025e 1946     		mov	r1, r3
 3209 0260 4900     		lsls	r1, r1, #1
 3210 0262 0B44     		add	r3, r3, r1
 3211 0264 9B00     		lsls	r3, r3, #2
 3212 0266 DBB2     		uxtb	r3, r3
 3213 0268 1344     		add	r3, r3, r2
 3214 026a DAB2     		uxtb	r2, r3
 3215 026c 1A4B     		ldr	r3, .L48+88
 3216 026e 1A70     		strb	r2, [r3]
 3217              	.L45:
 321:main.c        ****             for (int i = 0; i < 8; i++){
 3218              		.loc 1 321 0 discriminator 2
 3219 0270 7B68     		ldr	r3, [r7, #4]
 3220 0272 0133     		adds	r3, r3, #1
 3221 0274 7B60     		str	r3, [r7, #4]
 3222              	.L44:
 321:main.c        ****             for (int i = 0; i < 8; i++){
 3223              		.loc 1 321 0 is_stmt 0 discriminator 1
 3224 0276 7B68     		ldr	r3, [r7, #4]
 3225 0278 072B     		cmp	r3, #7
ARM GAS  C:\Users\silvan\AppData\Local\Temp\ccww2N2V.s 			page 64


 3226 027a BEDD     		ble	.L46
 3227              	.LBE4:
 321:main.c        ****             for (int i = 0; i < 8; i++){
 3228              		.loc 1 321 0
 3229 027c 43E0     		b	.L47
 3230              	.L49:
 3231 027e 00BF     		.align	2
 3232              	.L48:
 3233 0280 00000000 		.word	analogButFlag
 3234 0284 00000000 		.word	octaveSelect
 3235 0288 DC050000 		.word	.LC6
 3236 028c 00000000 		.word	transmitBuffer
 3237 0290 00000000 		.word	button1
 3238 0294 00000000 		.word	echoTuneDelay
 3239 0298 F0050000 		.word	.LC7
 3240 029c 00000000 		.word	button2
 3241 02a0 00000000 		.word	cScaleGroupSelect
 3242 02a4 00000000 		.word	cScaleSelect
 3243 02a8 04060000 		.word	.LC8
 3244 02ac 00000000 		.word	button3
 3245 02b0 18060000 		.word	.LC9
 3246 02b4 00000000 		.word	echoFlag
 3247 02b8 00000000 		.word	echoTimerPeriod
 3248 02bc 00000000 		.word	echoReadCounter
 3249 02c0 00000000 		.word	echoDuration
 3250 02c4 00001640 		.word	1075183616
 3251 02c8 00000000 		.word	echoDistance
 3252 02cc 00000000 		.word	bassOffsetUp
 3253 02d0 ABAAAA2A 		.word	715827883
 3254 02d4 00000000 		.word	cScales
 3255 02d8 00000000 		.word	noteIndex
 3256              	.L43:
 324:main.c        ****                 }
 325:main.c        ****             }         
 326:main.c        ****         }
 327:main.c        ****         else{
 328:main.c        ****            noteIndex = echoDistance + bassOffsetUp + octaveSelect * 12;  
 3257              		.loc 1 328 0 is_stmt 1
 3258 02dc 194B     		ldr	r3, .L50
 3259 02de 1B88     		ldrh	r3, [r3]	@ movhi
 3260 02e0 9BB2     		uxth	r3, r3
 3261 02e2 DAB2     		uxtb	r2, r3
 3262 02e4 184B     		ldr	r3, .L50+4
 3263 02e6 1B78     		ldrb	r3, [r3]
 3264 02e8 DBB2     		uxtb	r3, r3
 3265 02ea 1344     		add	r3, r3, r2
 3266 02ec DAB2     		uxtb	r2, r3
 3267 02ee 174B     		ldr	r3, .L50+8
 3268 02f0 1B78     		ldrb	r3, [r3]
 3269 02f2 DBB2     		uxtb	r3, r3
 3270 02f4 1946     		mov	r1, r3
 3271 02f6 4900     		lsls	r1, r1, #1
 3272 02f8 0B44     		add	r3, r3, r1
 3273 02fa 9B00     		lsls	r3, r3, #2
 3274 02fc DBB2     		uxtb	r3, r3
 3275 02fe 1344     		add	r3, r3, r2
 3276 0300 DAB2     		uxtb	r2, r3
ARM GAS  C:\Users\silvan\AppData\Local\Temp\ccww2N2V.s 			page 65


 3277 0302 134B     		ldr	r3, .L50+12
 3278 0304 1A70     		strb	r2, [r3]
 3279              	.L47:
 329:main.c        ****         }
 330:main.c        ****         Clock_1_SetDividerValue(250000 / intFrequency[noteIndex]); 
 3280              		.loc 1 330 0
 3281 0306 124B     		ldr	r3, .L50+12
 3282 0308 1B78     		ldrb	r3, [r3]
 3283 030a DBB2     		uxtb	r3, r3
 3284 030c 1A46     		mov	r2, r3
 3285 030e 114B     		ldr	r3, .L50+16
 3286 0310 33F81230 		ldrh	r3, [r3, r2, lsl #1]
 3287 0314 1A46     		mov	r2, r3
 3288 0316 104B     		ldr	r3, .L50+20
 3289 0318 93FBF2F3 		sdiv	r3, r3, r2
 3290 031c 9BB2     		uxth	r3, r3
 3291 031e 013B     		subs	r3, r3, #1
 3292 0320 9BB2     		uxth	r3, r3
 3293 0322 0121     		movs	r1, #1
 3294 0324 1846     		mov	r0, r3
 3295 0326 FFF7FEFF 		bl	Clock_1_SetDividerRegister
 331:main.c        ****         echoFlag = 0;
 3296              		.loc 1 331 0
 3297 032a 0C4B     		ldr	r3, .L50+24
 3298 032c 0022     		movs	r2, #0
 3299 032e 1A70     		strb	r2, [r3]
 3300              	.L41:
 332:main.c        ****     }
 333:main.c        **** //    sprintf(transmitBuffer, "echoTuneDelay: %i\n\r", button1);             
 334:main.c        **** //    UART_1_PutString(transmitBuffer);
 335:main.c        ****     CyDelay(echoTuneDelay);
 3301              		.loc 1 335 0
 3302 0330 0B4B     		ldr	r3, .L50+28
 3303 0332 1B88     		ldrh	r3, [r3]	@ movhi
 3304 0334 9BB2     		uxth	r3, r3
 3305 0336 1846     		mov	r0, r3
 3306 0338 FFF7FEFF 		bl	CyDelay
 336:main.c        **** }
 3307              		.loc 1 336 0
 3308 033c 00BF     		nop
 3309 033e 0C37     		adds	r7, r7, #12
 3310              		.cfi_def_cfa_offset 12
 3311 0340 BD46     		mov	sp, r7
 3312              		.cfi_def_cfa_register 13
 3313              		@ sp needed
 3314 0342 90BD     		pop	{r4, r7, pc}
 3315              	.L51:
 3316              		.align	2
 3317              	.L50:
 3318 0344 00000000 		.word	echoDistance
 3319 0348 00000000 		.word	bassOffsetUp
 3320 034c 00000000 		.word	octaveSelect
 3321 0350 00000000 		.word	noteIndex
 3322 0354 00000000 		.word	intFrequency
 3323 0358 90D00300 		.word	250000
 3324 035c 00000000 		.word	echoFlag
 3325 0360 00000000 		.word	echoTuneDelay
ARM GAS  C:\Users\silvan\AppData\Local\Temp\ccww2N2V.s 			page 66


 3326              		.cfi_endproc
 3327              	.LFE67:
 3328              		.size	distanceEchoPitch, .-distanceEchoPitch
 3329              		.section	.rodata
 3330 062a 0000     		.align	2
 3331              	.LC10:
 3332 062c 0D0A7369 		.ascii	"\015\012sinewave\000"
 3332      6E657761 
 3332      766500
 3333 0637 00       		.align	2
 3334              	.LC11:
 3335 0638 0D0A7371 		.ascii	"\015\012squarewave\000"
 3335      75617265 
 3335      77617665 
 3335      00
 3336 0645 000000   		.align	2
 3337              	.LC12:
 3338 0648 0D0A7472 		.ascii	"\015\012trianglewave\000"
 3338      69616E67 
 3338      6C657761 
 3338      766500
 3339              		.section	.text.waveSelect,"ax",%progbits
 3340              		.align	2
 3341              		.global	waveSelect
 3342              		.thumb
 3343              		.thumb_func
 3344              		.type	waveSelect, %function
 3345              	waveSelect:
 3346              	.LFB68:
 337:main.c        **** 
 338:main.c        **** void waveSelect(int yInput)   {
 3347              		.loc 1 338 0
 3348              		.cfi_startproc
 3349              		@ args = 0, pretend = 0, frame = 8
 3350              		@ frame_needed = 1, uses_anonymous_args = 0
 3351 0000 80B5     		push	{r7, lr}
 3352              		.cfi_def_cfa_offset 8
 3353              		.cfi_offset 7, -8
 3354              		.cfi_offset 14, -4
 3355 0002 82B0     		sub	sp, sp, #8
 3356              		.cfi_def_cfa_offset 16
 3357 0004 00AF     		add	r7, sp, #0
 3358              		.cfi_def_cfa_register 7
 3359 0006 7860     		str	r0, [r7, #4]
 339:main.c        ****     if(yInput>190 && oldYinput<180)    {
 3360              		.loc 1 339 0
 3361 0008 7B68     		ldr	r3, [r7, #4]
 3362 000a BE2B     		cmp	r3, #190
 3363 000c 11DD     		ble	.L53
 3364              		.loc 1 339 0 is_stmt 0 discriminator 1
 3365 000e 294B     		ldr	r3, .L61
 3366 0010 1B68     		ldr	r3, [r3]
 3367 0012 B32B     		cmp	r3, #179
 3368 0014 0DDC     		bgt	.L53
 340:main.c        ****         if(waveMode==2)  {
 3369              		.loc 1 340 0 is_stmt 1
 3370 0016 284B     		ldr	r3, .L61+4
ARM GAS  C:\Users\silvan\AppData\Local\Temp\ccww2N2V.s 			page 67


 3371 0018 1B78     		ldrb	r3, [r3]	@ zero_extendqisi2
 3372 001a 022B     		cmp	r3, #2
 3373 001c 03D1     		bne	.L54
 341:main.c        ****                 waveMode=1;
 3374              		.loc 1 341 0
 3375 001e 264B     		ldr	r3, .L61+4
 3376 0020 0122     		movs	r2, #1
 3377 0022 1A70     		strb	r2, [r3]
 3378 0024 05E0     		b	.L53
 3379              	.L54:
 342:main.c        ****             }   else    {
 343:main.c        ****                 waveMode++;
 3380              		.loc 1 343 0
 3381 0026 244B     		ldr	r3, .L61+4
 3382 0028 1B78     		ldrb	r3, [r3]	@ zero_extendqisi2
 3383 002a 0133     		adds	r3, r3, #1
 3384 002c DAB2     		uxtb	r2, r3
 3385 002e 224B     		ldr	r3, .L61+4
 3386 0030 1A70     		strb	r2, [r3]
 3387              	.L53:
 344:main.c        ****             }
 345:main.c        ****         }
 346:main.c        ****     if(yInput <-190 && oldYinput>-180)    {
 3388              		.loc 1 346 0
 3389 0032 7B68     		ldr	r3, [r7, #4]
 3390 0034 13F1BE0F 		cmn	r3, #190
 3391 0038 35DA     		bge	.L55
 3392              		.loc 1 346 0 is_stmt 0 discriminator 1
 3393 003a 1E4B     		ldr	r3, .L61
 3394 003c 1B68     		ldr	r3, [r3]
 3395 003e 13F1B30F 		cmn	r3, #179
 3396 0042 30DB     		blt	.L55
 347:main.c        ****         if(waveMode==0)  {
 3397              		.loc 1 347 0 is_stmt 1
 3398 0044 1C4B     		ldr	r3, .L61+4
 3399 0046 1B78     		ldrb	r3, [r3]	@ zero_extendqisi2
 3400 0048 002B     		cmp	r3, #0
 3401 004a 03D1     		bne	.L56
 348:main.c        ****             waveMode=2;
 3402              		.loc 1 348 0
 3403 004c 1A4B     		ldr	r3, .L61+4
 3404 004e 0222     		movs	r2, #2
 3405 0050 1A70     		strb	r2, [r3]
 3406 0052 05E0     		b	.L57
 3407              	.L56:
 349:main.c        ****         }   else    {
 350:main.c        ****             waveMode--;
 3408              		.loc 1 350 0
 3409 0054 184B     		ldr	r3, .L61+4
 3410 0056 1B78     		ldrb	r3, [r3]	@ zero_extendqisi2
 3411 0058 013B     		subs	r3, r3, #1
 3412 005a DAB2     		uxtb	r2, r3
 3413 005c 164B     		ldr	r3, .L61+4
 3414 005e 1A70     		strb	r2, [r3]
 3415              	.L57:
 351:main.c        ****         }
 352:main.c        ****         switch(waveMode)    {
ARM GAS  C:\Users\silvan\AppData\Local\Temp\ccww2N2V.s 			page 68


 3416              		.loc 1 352 0
 3417 0060 154B     		ldr	r3, .L61+4
 3418 0062 1B78     		ldrb	r3, [r3]	@ zero_extendqisi2
 3419 0064 012B     		cmp	r3, #1
 3420 0066 0CD0     		beq	.L58
 3421 0068 022B     		cmp	r3, #2
 3422 006a 13D0     		beq	.L59
 3423 006c 002B     		cmp	r3, #0
 3424 006e 1AD1     		bne	.L55
 353:main.c        ****             case 0:
 354:main.c        ****                 WaveDAC8_1_Wave1Setup(sinewave, 502);
 3425              		.loc 1 354 0
 3426 0070 4FF4FB71 		mov	r1, #502
 3427 0074 1148     		ldr	r0, .L61+8
 3428 0076 FFF7FEFF 		bl	WaveDAC8_1_Wave1Setup
 355:main.c        ****                 UART_1_PutString("\r\nsinewave");
 3429              		.loc 1 355 0
 3430 007a 1148     		ldr	r0, .L61+12
 3431 007c FFF7FEFF 		bl	UART_1_PutString
 356:main.c        ****             break;
 3432              		.loc 1 356 0
 3433 0080 11E0     		b	.L55
 3434              	.L58:
 357:main.c        ****             case 1:
 358:main.c        ****                 WaveDAC8_1_Wave1Setup(squarewave, 502);
 3435              		.loc 1 358 0
 3436 0082 4FF4FB71 		mov	r1, #502
 3437 0086 0F48     		ldr	r0, .L61+16
 3438 0088 FFF7FEFF 		bl	WaveDAC8_1_Wave1Setup
 359:main.c        ****                 UART_1_PutString("\r\nsquarewave");
 3439              		.loc 1 359 0
 3440 008c 0E48     		ldr	r0, .L61+20
 3441 008e FFF7FEFF 		bl	UART_1_PutString
 360:main.c        ****             break;
 3442              		.loc 1 360 0
 3443 0092 08E0     		b	.L55
 3444              	.L59:
 361:main.c        ****             case 2:
 362:main.c        ****                 WaveDAC8_1_Wave1Setup(trianglewave, 502);
 3445              		.loc 1 362 0
 3446 0094 4FF4FB71 		mov	r1, #502
 3447 0098 0C48     		ldr	r0, .L61+24
 3448 009a FFF7FEFF 		bl	WaveDAC8_1_Wave1Setup
 363:main.c        ****                 UART_1_PutString("\r\ntrianglewave");
 3449              		.loc 1 363 0
 3450 009e 0C48     		ldr	r0, .L61+28
 3451 00a0 FFF7FEFF 		bl	UART_1_PutString
 364:main.c        ****             break;
 3452              		.loc 1 364 0
 3453 00a4 00BF     		nop
 3454              	.L55:
 365:main.c        ****         }
 366:main.c        ****     }
 367:main.c        ****     oldYinput = yInput;
 3455              		.loc 1 367 0
 3456 00a6 034A     		ldr	r2, .L61
 3457 00a8 7B68     		ldr	r3, [r7, #4]
ARM GAS  C:\Users\silvan\AppData\Local\Temp\ccww2N2V.s 			page 69


 3458 00aa 1360     		str	r3, [r2]
 368:main.c        **** }
 3459              		.loc 1 368 0
 3460 00ac 00BF     		nop
 3461 00ae 0837     		adds	r7, r7, #8
 3462              		.cfi_def_cfa_offset 8
 3463 00b0 BD46     		mov	sp, r7
 3464              		.cfi_def_cfa_register 13
 3465              		@ sp needed
 3466 00b2 80BD     		pop	{r7, pc}
 3467              	.L62:
 3468              		.align	2
 3469              	.L61:
 3470 00b4 00000000 		.word	oldYinput
 3471 00b8 00000000 		.word	waveMode
 3472 00bc 00000000 		.word	sinewave
 3473 00c0 2C060000 		.word	.LC10
 3474 00c4 00000000 		.word	squarewave
 3475 00c8 38060000 		.word	.LC11
 3476 00cc 00000000 		.word	trianglewave
 3477 00d0 48060000 		.word	.LC12
 3478              		.cfi_endproc
 3479              	.LFE68:
 3480              		.size	waveSelect, .-waveSelect
 3481              		.section	.rodata
 3482 0657 00       		.align	2
 3483              	.LC13:
 3484 0658 48656C6C 		.ascii	"Hello \012\015\000"
 3484      6F200A0D 
 3484      00
 3485              		.global	__aeabi_d2iz
 3486 0661 000000   		.align	2
 3487              	.LC14:
 3488 0664 0D0A00   		.ascii	"\015\012\000"
 3489              		.section	.text.main,"ax",%progbits
 3490              		.align	2
 3491              		.global	main
 3492              		.thumb
 3493              		.thumb_func
 3494              		.type	main, %function
 3495              	main:
 3496              	.LFB69:
 369:main.c        **** 
 370:main.c        **** int main(){
 3497              		.loc 1 370 0
 3498              		.cfi_startproc
 3499              		@ args = 0, pretend = 0, frame = 8
 3500              		@ frame_needed = 1, uses_anonymous_args = 0
 3501 0000 90B5     		push	{r4, r7, lr}
 3502              		.cfi_def_cfa_offset 12
 3503              		.cfi_offset 4, -12
 3504              		.cfi_offset 7, -8
 3505              		.cfi_offset 14, -4
 3506 0002 83B0     		sub	sp, sp, #12
 3507              		.cfi_def_cfa_offset 24
 3508 0004 00AF     		add	r7, sp, #0
 3509              		.cfi_def_cfa_register 7
ARM GAS  C:\Users\silvan\AppData\Local\Temp\ccww2N2V.s 			page 70


 371:main.c        ****     CyGlobalIntEnable;
 3510              		.loc 1 371 0
 3511              		.syntax unified
 3512              	@ 371 "main.c" 1
 3513 0006 62B6     		CPSIE   i
 3514              	@ 0 "" 2
 372:main.c        ****     
 373:main.c        ****     debouncerClock_Start();
 3515              		.loc 1 373 0
 3516              		.thumb
 3517              		.syntax unified
 3518 0008 FFF7FEFF 		bl	debouncerClock_Start
 374:main.c        ****     but1_isr_pos_StartEx(but1_isr_pos_vect);
 3519              		.loc 1 374 0
 3520 000c B248     		ldr	r0, .L83+8
 3521 000e FFF7FEFF 		bl	but1_isr_pos_StartEx
 375:main.c        ****     but1_isr_neg_StartEx(but1_isr_neg_vect);
 3522              		.loc 1 375 0
 3523 0012 B248     		ldr	r0, .L83+12
 3524 0014 FFF7FEFF 		bl	but1_isr_neg_StartEx
 376:main.c        ****     but2_isr_pos_StartEx(but2_isr_pos_vect);
 3525              		.loc 1 376 0
 3526 0018 B148     		ldr	r0, .L83+16
 3527 001a FFF7FEFF 		bl	but2_isr_pos_StartEx
 377:main.c        ****     but2_isr_neg_StartEx(but2_isr_neg_vect);
 3528              		.loc 1 377 0
 3529 001e B148     		ldr	r0, .L83+20
 3530 0020 FFF7FEFF 		bl	but2_isr_neg_StartEx
 378:main.c        ****     but3_isr_pos_StartEx(but3_isr_pos_vect);
 3531              		.loc 1 378 0
 3532 0024 B048     		ldr	r0, .L83+24
 3533 0026 FFF7FEFF 		bl	but3_isr_pos_StartEx
 379:main.c        ****     but3_isr_neg_StartEx(but3_isr_neg_vect);
 3534              		.loc 1 379 0
 3535 002a B048     		ldr	r0, .L83+28
 3536 002c FFF7FEFF 		bl	but3_isr_neg_StartEx
 380:main.c        ****     
 381:main.c        ****     analogBut_isr_StartEx(analogBut_isr_vect);
 3537              		.loc 1 381 0
 3538 0030 AF48     		ldr	r0, .L83+32
 3539 0032 FFF7FEFF 		bl	analogBut_isr_StartEx
 382:main.c        ****     ADC_isr_StartEx(adc_isr_vect);
 3540              		.loc 1 382 0
 3541 0036 AF48     		ldr	r0, .L83+36
 3542 0038 FFF7FEFF 		bl	ADC_isr_StartEx
 383:main.c        ****     analogMUX_Init(); 
 3543              		.loc 1 383 0
 3544 003c FFF7FEFF 		bl	analogMUX_Start
 384:main.c        ****     analogMUX_Select(muxChannel);
 3545              		.loc 1 384 0
 3546 0040 AD4B     		ldr	r3, .L83+40
 3547 0042 1B78     		ldrb	r3, [r3]
 3548 0044 DBB2     		uxtb	r3, r3
 3549 0046 1846     		mov	r0, r3
 3550 0048 FFF7FEFF 		bl	analogMUX_Select
 385:main.c        ****     
 386:main.c        ****     analogADC_Start();
ARM GAS  C:\Users\silvan\AppData\Local\Temp\ccww2N2V.s 			page 71


 3551              		.loc 1 386 0
 3552 004c FFF7FEFF 		bl	analogADC_Start
 387:main.c        ****     analogADC_StartConvert();
 3553              		.loc 1 387 0
 3554 0050 FFF7FEFF 		bl	analogADC_StartConvert
 388:main.c        ****     
 389:main.c        ****     UART_1_Start();
 3555              		.loc 1 389 0
 3556 0054 FFF7FEFF 		bl	UART_1_Start
 390:main.c        ****     UART_1_PutString("Hello \n\r");
 3557              		.loc 1 390 0
 3558 0058 A848     		ldr	r0, .L83+44
 3559 005a FFF7FEFF 		bl	UART_1_PutString
 391:main.c        ****     
 392:main.c        ****     Timer_Mode_Start();
 3560              		.loc 1 392 0
 3561 005e FFF7FEFF 		bl	Timer_Mode_Start
 393:main.c        ****     Clock_Mode_Start();
 3562              		.loc 1 393 0
 3563 0062 FFF7FEFF 		bl	Clock_Mode_Start
 394:main.c        ****     isr_checkMode_StartEx(userModeTimer_ISR);  
 3564              		.loc 1 394 0
 3565 0066 A648     		ldr	r0, .L83+48
 3566 0068 FFF7FEFF 		bl	isr_checkMode_StartEx
 395:main.c        ****     
 396:main.c        ****     Clock_Echo_Start();
 3567              		.loc 1 396 0
 3568 006c FFF7FEFF 		bl	Clock_Echo_Start
 397:main.c        ****     Timer_Echo_Start();
 3569              		.loc 1 397 0
 3570 0070 FFF7FEFF 		bl	Timer_Echo_Start
 398:main.c        ****     isr_Echo_StartEx(userEcho_ISR);
 3571              		.loc 1 398 0
 3572 0074 A348     		ldr	r0, .L83+52
 3573 0076 FFF7FEFF 		bl	isr_Echo_StartEx
 399:main.c        ****     echoTimerPeriod = Timer_Echo_ReadPeriod();
 3574              		.loc 1 399 0
 3575 007a FFF7FEFF 		bl	Timer_Echo_ReadPeriod
 3576 007e 0346     		mov	r3, r0
 3577 0080 1A46     		mov	r2, r3
 3578 0082 A14B     		ldr	r3, .L83+56
 3579 0084 1A80     		strh	r2, [r3]	@ movhi
 3580              	.L81:
 400:main.c        ****     for(;;){
 401:main.c        ****         if (checkingMode && modeFlag){
 3581              		.loc 1 401 0
 3582 0086 A14B     		ldr	r3, .L83+60
 3583 0088 1B78     		ldrb	r3, [r3]
 3584 008a DBB2     		uxtb	r3, r3
 3585 008c 002B     		cmp	r3, #0
 3586 008e 09D0     		beq	.L64
 3587              		.loc 1 401 0 is_stmt 0 discriminator 1
 3588 0090 9F4B     		ldr	r3, .L83+64
 3589 0092 1B78     		ldrb	r3, [r3]
 3590 0094 DBB2     		uxtb	r3, r3
 3591 0096 002B     		cmp	r3, #0
 3592 0098 04D0     		beq	.L64
ARM GAS  C:\Users\silvan\AppData\Local\Temp\ccww2N2V.s 			page 72


 402:main.c        ****             modecheck();
 3593              		.loc 1 402 0 is_stmt 1
 3594 009a FFF7FEFF 		bl	modecheck
 403:main.c        ****             modeFlag = 0;
 3595              		.loc 1 403 0
 3596 009e 9C4B     		ldr	r3, .L83+64
 3597 00a0 0022     		movs	r2, #0
 3598 00a2 1A70     		strb	r2, [r3]
 3599              	.L64:
 404:main.c        ****         }
 405:main.c        ****         if(adcFlag) {
 3600              		.loc 1 405 0
 3601 00a4 9B4B     		ldr	r3, .L83+68
 3602 00a6 1B78     		ldrb	r3, [r3]
 3603 00a8 DBB2     		uxtb	r3, r3
 3604 00aa 002B     		cmp	r3, #0
 3605 00ac 45D0     		beq	.L65
 3606              	.LBB5:
 406:main.c        ****             int analogRead = analogADC_GetResult16() -810;
 3607              		.loc 1 406 0
 3608 00ae FFF7FEFF 		bl	analogADC_GetResult16
 3609 00b2 0346     		mov	r3, r0
 3610 00b4 A3F22A33 		subw	r3, r3, #810
 3611 00b8 7B60     		str	r3, [r7, #4]
 407:main.c        ****             if(analogRead>0)  {
 3612              		.loc 1 407 0
 3613 00ba 7B68     		ldr	r3, [r7, #4]
 3614 00bc 002B     		cmp	r3, #0
 3615 00be 0EDD     		ble	.L66
 408:main.c        ****                 pitch[muxChannel] =  analogRead/33;
 3616              		.loc 1 408 0
 3617 00c0 8D4B     		ldr	r3, .L83+40
 3618 00c2 1B78     		ldrb	r3, [r3]
 3619 00c4 DBB2     		uxtb	r3, r3
 3620 00c6 1946     		mov	r1, r3
 3621 00c8 7B68     		ldr	r3, [r7, #4]
 3622 00ca 934A     		ldr	r2, .L83+72
 3623 00cc 82FB0302 		smull	r0, r2, r2, r3
 3624 00d0 D210     		asrs	r2, r2, #3
 3625 00d2 DB17     		asrs	r3, r3, #31
 3626 00d4 D31A     		subs	r3, r2, r3
 3627 00d6 914A     		ldr	r2, .L83+76
 3628 00d8 42F82130 		str	r3, [r2, r1, lsl #2]
 3629 00dc 15E0     		b	.L67
 3630              	.L66:
 409:main.c        ****             }   else    {
 410:main.c        ****                 pitch[muxChannel] = analogRead/3.3;
 3631              		.loc 1 410 0
 3632 00de 864B     		ldr	r3, .L83+40
 3633 00e0 1B78     		ldrb	r3, [r3]
 3634 00e2 DBB2     		uxtb	r3, r3
 3635 00e4 1C46     		mov	r4, r3
 3636 00e6 7868     		ldr	r0, [r7, #4]
 3637 00e8 FFF7FEFF 		bl	__aeabi_i2d
 3638 00ec 78A3     		adr	r3, .L83
 3639 00ee D3E90023 		ldrd	r2, [r3]
 3640 00f2 FFF7FEFF 		bl	__aeabi_ddiv
ARM GAS  C:\Users\silvan\AppData\Local\Temp\ccww2N2V.s 			page 73


 3641 00f6 0246     		mov	r2, r0
 3642 00f8 0B46     		mov	r3, r1
 3643 00fa 1046     		mov	r0, r2
 3644 00fc 1946     		mov	r1, r3
 3645 00fe FFF7FEFF 		bl	__aeabi_d2iz
 3646 0102 0246     		mov	r2, r0
 3647 0104 854B     		ldr	r3, .L83+76
 3648 0106 43F82420 		str	r2, [r3, r4, lsl #2]
 3649              	.L67:
 411:main.c        ****             }
 412:main.c        ****             waveSelect(pitch[1]);
 3650              		.loc 1 412 0
 3651 010a 844B     		ldr	r3, .L83+76
 3652 010c 5B68     		ldr	r3, [r3, #4]
 3653 010e 1846     		mov	r0, r3
 3654 0110 FFF7FEFF 		bl	waveSelect
 413:main.c        ****             muxChannel ^= 1;
 3655              		.loc 1 413 0
 3656 0114 784B     		ldr	r3, .L83+40
 3657 0116 1B78     		ldrb	r3, [r3]
 3658 0118 DBB2     		uxtb	r3, r3
 3659 011a 83F00103 		eor	r3, r3, #1
 3660 011e DAB2     		uxtb	r2, r3
 3661 0120 754B     		ldr	r3, .L83+40
 3662 0122 1A70     		strb	r2, [r3]
 414:main.c        ****             analogMUX_Select(muxChannel);
 3663              		.loc 1 414 0
 3664 0124 744B     		ldr	r3, .L83+40
 3665 0126 1B78     		ldrb	r3, [r3]
 3666 0128 DBB2     		uxtb	r3, r3
 3667 012a 1846     		mov	r0, r3
 3668 012c FFF7FEFF 		bl	analogMUX_Select
 415:main.c        ****             adcFlag = 0;
 3669              		.loc 1 415 0
 3670 0130 784B     		ldr	r3, .L83+68
 3671 0132 0022     		movs	r2, #0
 3672 0134 1A70     		strb	r2, [r3]
 416:main.c        ****             analogADC_StartConvert();
 3673              		.loc 1 416 0
 3674 0136 FFF7FEFF 		bl	analogADC_StartConvert
 3675              	.L65:
 3676              	.LBE5:
 417:main.c        ****         }
 418:main.c        ****         switch (mode){
 3677              		.loc 1 418 0
 3678 013a 794B     		ldr	r3, .L83+80
 3679 013c 1B78     		ldrb	r3, [r3]
 3680 013e DBB2     		uxtb	r3, r3
 3681 0140 032B     		cmp	r3, #3
 3682 0142 00F2BC80 		bhi	.L82
 3683 0146 01A2     		adr	r2, .L70
 3684 0148 52F823F0 		ldr	pc, [r2, r3, lsl #2]
 3685              		.p2align 2
 3686              	.L70:
 3687 014c 5D010000 		.word	.L69+1
 3688 0150 87010000 		.word	.L71+1
 3689 0154 BF020000 		.word	.L82+1
ARM GAS  C:\Users\silvan\AppData\Local\Temp\ccww2N2V.s 			page 74


 3690 0158 A1010000 		.word	.L73+1
 3691              		.p2align 1
 3692              	.L69:
 419:main.c        ****             case 0: 
 420:main.c        ****                 if (lastMode != mode){
 3693              		.loc 1 420 0
 3694 015c 714B     		ldr	r3, .L83+84
 3695 015e 1B78     		ldrb	r3, [r3]
 3696 0160 DAB2     		uxtb	r2, r3
 3697 0162 6F4B     		ldr	r3, .L83+80
 3698 0164 1B78     		ldrb	r3, [r3]
 3699 0166 DBB2     		uxtb	r3, r3
 3700 0168 9A42     		cmp	r2, r3
 3701 016a 01D0     		beq	.L74
 421:main.c        ****                     WaveDAC8_1_Start();
 3702              		.loc 1 421 0
 3703 016c FFF7FEFF 		bl	WaveDAC8_1_Start
 3704              	.L74:
 422:main.c        ****                 }
 423:main.c        ****                 playRange(noteIndex,90,120); // set min index, max Index, delay [ms]
 3705              		.loc 1 423 0
 3706 0170 6D4B     		ldr	r3, .L83+88
 3707 0172 1B78     		ldrb	r3, [r3]
 3708 0174 DBB2     		uxtb	r3, r3
 3709 0176 7822     		movs	r2, #120
 3710 0178 5A21     		movs	r1, #90
 3711 017a 1846     		mov	r0, r3
 3712 017c FFF7FEFF 		bl	playRange
 424:main.c        ****                 longSweep();
 3713              		.loc 1 424 0
 3714 0180 FFF7FEFF 		bl	longSweep
 425:main.c        ****                 break;
 3715              		.loc 1 425 0
 3716 0184 9CE0     		b	.L75
 3717              	.L71:
 426:main.c        ****             case 1:
 427:main.c        ****                 if (lastMode != mode){
 3718              		.loc 1 427 0
 3719 0186 674B     		ldr	r3, .L83+84
 3720 0188 1B78     		ldrb	r3, [r3]
 3721 018a DAB2     		uxtb	r2, r3
 3722 018c 644B     		ldr	r3, .L83+80
 3723 018e 1B78     		ldrb	r3, [r3]
 3724 0190 DBB2     		uxtb	r3, r3
 3725 0192 9A42     		cmp	r2, r3
 3726 0194 01D0     		beq	.L76
 428:main.c        ****                     WaveDAC8_1_Start();
 3727              		.loc 1 428 0
 3728 0196 FFF7FEFF 		bl	WaveDAC8_1_Start
 3729              	.L76:
 429:main.c        ****                 }
 430:main.c        ****                 distanceEchoPitch();        
 3730              		.loc 1 430 0
 3731 019a FFF7FEFF 		bl	distanceEchoPitch
 431:main.c        ****                 break;
 3732              		.loc 1 431 0
 3733 019e 8FE0     		b	.L75
ARM GAS  C:\Users\silvan\AppData\Local\Temp\ccww2N2V.s 			page 75


 3734              	.L73:
 432:main.c        ****             case 2:
 433:main.c        ****                 break;
 434:main.c        ****             case 3:
 435:main.c        ****                 if(button1){
 3735              		.loc 1 435 0
 3736 01a0 624B     		ldr	r3, .L83+92
 3737 01a2 1B78     		ldrb	r3, [r3]
 3738 01a4 DBB2     		uxtb	r3, r3
 3739 01a6 002B     		cmp	r3, #0
 3740 01a8 20D0     		beq	.L77
 436:main.c        ****                     WaveDAC8_1_Start();
 3741              		.loc 1 436 0
 3742 01aa FFF7FEFF 		bl	WaveDAC8_1_Start
 437:main.c        ****                     UART_1_PutString(transmitBuffer);
 3743              		.loc 1 437 0
 3744 01ae 6048     		ldr	r0, .L83+96
 3745 01b0 FFF7FEFF 		bl	UART_1_PutString
 438:main.c        ****                     Clock_1_SetDividerValue(250000 / (intFrequency[button1]+pitch[0]/50));
 3746              		.loc 1 438 0
 3747 01b4 5D4B     		ldr	r3, .L83+92
 3748 01b6 1B78     		ldrb	r3, [r3]
 3749 01b8 DBB2     		uxtb	r3, r3
 3750 01ba 1A46     		mov	r2, r3
 3751 01bc 5D4B     		ldr	r3, .L83+100
 3752 01be 33F81230 		ldrh	r3, [r3, r2, lsl #1]
 3753 01c2 1946     		mov	r1, r3
 3754 01c4 554B     		ldr	r3, .L83+76
 3755 01c6 1B68     		ldr	r3, [r3]
 3756 01c8 5B4A     		ldr	r2, .L83+104
 3757 01ca 82FB0302 		smull	r0, r2, r2, r3
 3758 01ce 1211     		asrs	r2, r2, #4
 3759 01d0 DB17     		asrs	r3, r3, #31
 3760 01d2 D31A     		subs	r3, r2, r3
 3761 01d4 0B44     		add	r3, r3, r1
 3762 01d6 594A     		ldr	r2, .L83+108
 3763 01d8 92FBF3F3 		sdiv	r3, r2, r3
 3764 01dc 9BB2     		uxth	r3, r3
 3765 01de 013B     		subs	r3, r3, #1
 3766 01e0 9BB2     		uxth	r3, r3
 3767 01e2 0121     		movs	r1, #1
 3768 01e4 1846     		mov	r0, r3
 3769 01e6 FFF7FEFF 		bl	Clock_1_SetDividerRegister
 439:main.c        ****                 }
 440:main.c        ****            
 441:main.c        ****                 else if(button2){
 442:main.c        ****                     WaveDAC8_1_Start();
 443:main.c        ****                     UART_1_PutString("\r\n");
 444:main.c        ****                     UART_1_PutChar(notes[button2][0]);
 445:main.c        ****                     Clock_1_SetDividerValue(250000 / (intFrequency[button2]+pitch[0]/50));
 446:main.c        ****                 }
 447:main.c        ****                 
 448:main.c        ****                 else if(button3){
 449:main.c        ****                     WaveDAC8_1_Start();
 450:main.c        ****                     UART_1_PutString("\r\n");
 451:main.c        ****                     UART_1_PutChar(notes[button3][0]);
 452:main.c        ****                     Clock_1_SetDividerValue(250000 / (intFrequency[button3]+pitch[0]/50));
ARM GAS  C:\Users\silvan\AppData\Local\Temp\ccww2N2V.s 			page 76


 453:main.c        ****                 } else  {
 454:main.c        ****                     WaveDAC8_1_Stop();
 455:main.c        ****                 }
 456:main.c        ****                 break;
 3770              		.loc 1 456 0
 3771 01ea 69E0     		b	.L75
 3772              	.L77:
 441:main.c        ****                     WaveDAC8_1_Start();
 3773              		.loc 1 441 0
 3774 01ec 544B     		ldr	r3, .L83+112
 3775 01ee 1B78     		ldrb	r3, [r3]
 3776 01f0 DBB2     		uxtb	r3, r3
 3777 01f2 002B     		cmp	r3, #0
 3778 01f4 2DD0     		beq	.L79
 442:main.c        ****                     UART_1_PutString("\r\n");
 3779              		.loc 1 442 0
 3780 01f6 FFF7FEFF 		bl	WaveDAC8_1_Start
 443:main.c        ****                     UART_1_PutChar(notes[button2][0]);
 3781              		.loc 1 443 0
 3782 01fa 5248     		ldr	r0, .L83+116
 3783 01fc FFF7FEFF 		bl	UART_1_PutString
 444:main.c        ****                     Clock_1_SetDividerValue(250000 / (intFrequency[button2]+pitch[0]/50));
 3784              		.loc 1 444 0
 3785 0200 4F4B     		ldr	r3, .L83+112
 3786 0202 1B78     		ldrb	r3, [r3]
 3787 0204 DBB2     		uxtb	r3, r3
 3788 0206 1946     		mov	r1, r3
 3789 0208 4F4A     		ldr	r2, .L83+120
 3790 020a 0B46     		mov	r3, r1
 3791 020c 5B00     		lsls	r3, r3, #1
 3792 020e 0B44     		add	r3, r3, r1
 3793 0210 1344     		add	r3, r3, r2
 3794 0212 1B78     		ldrb	r3, [r3]	@ zero_extendqisi2
 3795 0214 1846     		mov	r0, r3
 3796 0216 FFF7FEFF 		bl	UART_1_PutChar
 445:main.c        ****                 }
 3797              		.loc 1 445 0
 3798 021a 494B     		ldr	r3, .L83+112
 3799 021c 1B78     		ldrb	r3, [r3]
 3800 021e DBB2     		uxtb	r3, r3
 3801 0220 1A46     		mov	r2, r3
 3802 0222 444B     		ldr	r3, .L83+100
 3803 0224 33F81230 		ldrh	r3, [r3, r2, lsl #1]
 3804 0228 1946     		mov	r1, r3
 3805 022a 3C4B     		ldr	r3, .L83+76
 3806 022c 1B68     		ldr	r3, [r3]
 3807 022e 424A     		ldr	r2, .L83+104
 3808 0230 82FB0302 		smull	r0, r2, r2, r3
 3809 0234 1211     		asrs	r2, r2, #4
 3810 0236 DB17     		asrs	r3, r3, #31
 3811 0238 D31A     		subs	r3, r2, r3
 3812 023a 0B44     		add	r3, r3, r1
 3813 023c 3F4A     		ldr	r2, .L83+108
 3814 023e 92FBF3F3 		sdiv	r3, r2, r3
 3815 0242 9BB2     		uxth	r3, r3
 3816 0244 013B     		subs	r3, r3, #1
 3817 0246 9BB2     		uxth	r3, r3
ARM GAS  C:\Users\silvan\AppData\Local\Temp\ccww2N2V.s 			page 77


 3818 0248 0121     		movs	r1, #1
 3819 024a 1846     		mov	r0, r3
 3820 024c FFF7FEFF 		bl	Clock_1_SetDividerRegister
 3821              		.loc 1 456 0
 3822 0250 36E0     		b	.L75
 3823              	.L79:
 448:main.c        ****                     WaveDAC8_1_Start();
 3824              		.loc 1 448 0
 3825 0252 3E4B     		ldr	r3, .L83+124
 3826 0254 1B78     		ldrb	r3, [r3]
 3827 0256 DBB2     		uxtb	r3, r3
 3828 0258 002B     		cmp	r3, #0
 3829 025a 2DD0     		beq	.L80
 449:main.c        ****                     UART_1_PutString("\r\n");
 3830              		.loc 1 449 0
 3831 025c FFF7FEFF 		bl	WaveDAC8_1_Start
 450:main.c        ****                     UART_1_PutChar(notes[button3][0]);
 3832              		.loc 1 450 0
 3833 0260 3848     		ldr	r0, .L83+116
 3834 0262 FFF7FEFF 		bl	UART_1_PutString
 451:main.c        ****                     Clock_1_SetDividerValue(250000 / (intFrequency[button3]+pitch[0]/50));
 3835              		.loc 1 451 0
 3836 0266 394B     		ldr	r3, .L83+124
 3837 0268 1B78     		ldrb	r3, [r3]
 3838 026a DBB2     		uxtb	r3, r3
 3839 026c 1946     		mov	r1, r3
 3840 026e 364A     		ldr	r2, .L83+120
 3841 0270 0B46     		mov	r3, r1
 3842 0272 5B00     		lsls	r3, r3, #1
 3843 0274 0B44     		add	r3, r3, r1
 3844 0276 1344     		add	r3, r3, r2
 3845 0278 1B78     		ldrb	r3, [r3]	@ zero_extendqisi2
 3846 027a 1846     		mov	r0, r3
 3847 027c FFF7FEFF 		bl	UART_1_PutChar
 452:main.c        ****                 } else  {
 3848              		.loc 1 452 0
 3849 0280 324B     		ldr	r3, .L83+124
 3850 0282 1B78     		ldrb	r3, [r3]
 3851 0284 DBB2     		uxtb	r3, r3
 3852 0286 1A46     		mov	r2, r3
 3853 0288 2A4B     		ldr	r3, .L83+100
 3854 028a 33F81230 		ldrh	r3, [r3, r2, lsl #1]
 3855 028e 1946     		mov	r1, r3
 3856 0290 224B     		ldr	r3, .L83+76
 3857 0292 1B68     		ldr	r3, [r3]
 3858 0294 284A     		ldr	r2, .L83+104
 3859 0296 82FB0302 		smull	r0, r2, r2, r3
 3860 029a 1211     		asrs	r2, r2, #4
 3861 029c DB17     		asrs	r3, r3, #31
 3862 029e D31A     		subs	r3, r2, r3
 3863 02a0 0B44     		add	r3, r3, r1
 3864 02a2 264A     		ldr	r2, .L83+108
 3865 02a4 92FBF3F3 		sdiv	r3, r2, r3
 3866 02a8 9BB2     		uxth	r3, r3
 3867 02aa 013B     		subs	r3, r3, #1
 3868 02ac 9BB2     		uxth	r3, r3
 3869 02ae 0121     		movs	r1, #1
ARM GAS  C:\Users\silvan\AppData\Local\Temp\ccww2N2V.s 			page 78


 3870 02b0 1846     		mov	r0, r3
 3871 02b2 FFF7FEFF 		bl	Clock_1_SetDividerRegister
 3872              		.loc 1 456 0
 3873 02b6 03E0     		b	.L75
 3874              	.L80:
 454:main.c        ****                 }
 3875              		.loc 1 454 0
 3876 02b8 FFF7FEFF 		bl	WaveDAC8_1_Stop
 3877              		.loc 1 456 0
 3878 02bc 00E0     		b	.L75
 3879              	.L82:
 457:main.c        ****             default:
 458:main.c        ****                 break;
 3880              		.loc 1 458 0
 3881 02be 00BF     		nop
 3882              	.L75:
 459:main.c        ****         }
 460:main.c        ****         lastMode = mode;
 3883              		.loc 1 460 0
 3884 02c0 174B     		ldr	r3, .L83+80
 3885 02c2 1B78     		ldrb	r3, [r3]
 3886 02c4 DAB2     		uxtb	r2, r3
 3887 02c6 174B     		ldr	r3, .L83+84
 3888 02c8 1A70     		strb	r2, [r3]
 461:main.c        ****     }
 3889              		.loc 1 461 0
 3890 02ca DCE6     		b	.L81
 3891              	.L84:
 3892 02cc AFF30080 		.align	3
 3893              	.L83:
 3894 02d0 66666666 		.word	1717986918
 3895 02d4 66660A40 		.word	1074423398
 3896 02d8 00000000 		.word	but1_isr_pos_vect
 3897 02dc 00000000 		.word	but1_isr_neg_vect
 3898 02e0 00000000 		.word	but2_isr_pos_vect
 3899 02e4 00000000 		.word	but2_isr_neg_vect
 3900 02e8 00000000 		.word	but3_isr_pos_vect
 3901 02ec 00000000 		.word	but3_isr_neg_vect
 3902 02f0 00000000 		.word	analogBut_isr_vect
 3903 02f4 00000000 		.word	adc_isr_vect
 3904 02f8 00000000 		.word	muxChannel
 3905 02fc 58060000 		.word	.LC13
 3906 0300 00000000 		.word	userModeTimer_ISR
 3907 0304 00000000 		.word	userEcho_ISR
 3908 0308 00000000 		.word	echoTimerPeriod
 3909 030c 00000000 		.word	checkingMode
 3910 0310 00000000 		.word	modeFlag
 3911 0314 00000000 		.word	adcFlag
 3912 0318 E1830F3E 		.word	1041204193
 3913 031c 00000000 		.word	pitch
 3914 0320 00000000 		.word	mode
 3915 0324 00000000 		.word	lastMode
 3916 0328 00000000 		.word	noteIndex
 3917 032c 00000000 		.word	button1
 3918 0330 00000000 		.word	transmitBuffer
 3919 0334 00000000 		.word	intFrequency
 3920 0338 1F85EB51 		.word	1374389535
ARM GAS  C:\Users\silvan\AppData\Local\Temp\ccww2N2V.s 			page 79


 3921 033c 90D00300 		.word	250000
 3922 0340 00000000 		.word	button2
 3923 0344 64060000 		.word	.LC14
 3924 0348 00000000 		.word	notes
 3925 034c 00000000 		.word	button3
 3926              		.cfi_endproc
 3927              	.LFE69:
 3928              		.size	main, .-main
 3929              		.section	.text.analogBut_isr_vect,"ax",%progbits
 3930              		.align	2
 3931              		.global	analogBut_isr_vect
 3932              		.thumb
 3933              		.thumb_func
 3934              		.type	analogBut_isr_vect, %function
 3935              	analogBut_isr_vect:
 3936              	.LFB70:
 462:main.c        **** }
 463:main.c        **** 
 464:main.c        **** CY_ISR(analogBut_isr_vect)    {
 3937              		.loc 1 464 0
 3938              		.cfi_startproc
 3939              		@ args = 0, pretend = 0, frame = 0
 3940              		@ frame_needed = 1, uses_anonymous_args = 0
 3941              		@ link register save eliminated.
 3942 0000 80B4     		push	{r7}
 3943              		.cfi_def_cfa_offset 4
 3944              		.cfi_offset 7, -4
 3945 0002 00AF     		add	r7, sp, #0
 3946              		.cfi_def_cfa_register 7
 465:main.c        ****     analogButFlag = 1;
 3947              		.loc 1 465 0
 3948 0004 034B     		ldr	r3, .L86
 3949 0006 0122     		movs	r2, #1
 3950 0008 1A70     		strb	r2, [r3]
 466:main.c        **** //    UART_1_PutString("\r\nanalogbutton pressed");
 467:main.c        **** }
 3951              		.loc 1 467 0
 3952 000a 00BF     		nop
 3953 000c BD46     		mov	sp, r7
 3954              		.cfi_def_cfa_register 13
 3955              		@ sp needed
 3956 000e 80BC     		pop	{r7}
 3957              		.cfi_restore 7
 3958              		.cfi_def_cfa_offset 0
 3959 0010 7047     		bx	lr
 3960              	.L87:
 3961 0012 00BF     		.align	2
 3962              	.L86:
 3963 0014 00000000 		.word	analogButFlag
 3964              		.cfi_endproc
 3965              	.LFE70:
 3966              		.size	analogBut_isr_vect, .-analogBut_isr_vect
 3967              		.section	.text.adc_isr_vect,"ax",%progbits
 3968              		.align	2
 3969              		.global	adc_isr_vect
 3970              		.thumb
 3971              		.thumb_func
ARM GAS  C:\Users\silvan\AppData\Local\Temp\ccww2N2V.s 			page 80


 3972              		.type	adc_isr_vect, %function
 3973              	adc_isr_vect:
 3974              	.LFB71:
 468:main.c        **** 
 469:main.c        **** CY_ISR(adc_isr_vect)  {
 3975              		.loc 1 469 0
 3976              		.cfi_startproc
 3977              		@ args = 0, pretend = 0, frame = 0
 3978              		@ frame_needed = 1, uses_anonymous_args = 0
 3979              		@ link register save eliminated.
 3980 0000 80B4     		push	{r7}
 3981              		.cfi_def_cfa_offset 4
 3982              		.cfi_offset 7, -4
 3983 0002 00AF     		add	r7, sp, #0
 3984              		.cfi_def_cfa_register 7
 470:main.c        ****     adcFlag = 1;
 3985              		.loc 1 470 0
 3986 0004 034B     		ldr	r3, .L89
 3987 0006 0122     		movs	r2, #1
 3988 0008 1A70     		strb	r2, [r3]
 471:main.c        ****     //UART_1_PutString("\r\nconversion finished");
 472:main.c        **** }
 3989              		.loc 1 472 0
 3990 000a 00BF     		nop
 3991 000c BD46     		mov	sp, r7
 3992              		.cfi_def_cfa_register 13
 3993              		@ sp needed
 3994 000e 80BC     		pop	{r7}
 3995              		.cfi_restore 7
 3996              		.cfi_def_cfa_offset 0
 3997 0010 7047     		bx	lr
 3998              	.L90:
 3999 0012 00BF     		.align	2
 4000              	.L89:
 4001 0014 00000000 		.word	adcFlag
 4002              		.cfi_endproc
 4003              	.LFE71:
 4004              		.size	adc_isr_vect, .-adc_isr_vect
 4005              		.section	.text.but1_isr_pos_vect,"ax",%progbits
 4006              		.align	2
 4007              		.global	but1_isr_pos_vect
 4008              		.thumb
 4009              		.thumb_func
 4010              		.type	but1_isr_pos_vect, %function
 4011              	but1_isr_pos_vect:
 4012              	.LFB72:
 473:main.c        **** 
 474:main.c        **** CY_ISR(but1_isr_pos_vect)   {
 4013              		.loc 1 474 0
 4014              		.cfi_startproc
 4015              		@ args = 0, pretend = 0, frame = 0
 4016              		@ frame_needed = 1, uses_anonymous_args = 0
 4017              		@ link register save eliminated.
 4018 0000 80B4     		push	{r7}
 4019              		.cfi_def_cfa_offset 4
 4020              		.cfi_offset 7, -4
 4021 0002 00AF     		add	r7, sp, #0
ARM GAS  C:\Users\silvan\AppData\Local\Temp\ccww2N2V.s 			page 81


 4022              		.cfi_def_cfa_register 7
 475:main.c        **** //    UART_1_PutString("\r\nbutton 1 pressed");
 476:main.c        ****     button1 = 75;
 4023              		.loc 1 476 0
 4024 0004 034B     		ldr	r3, .L92
 4025 0006 4B22     		movs	r2, #75
 4026 0008 1A70     		strb	r2, [r3]
 477:main.c        **** }
 4027              		.loc 1 477 0
 4028 000a 00BF     		nop
 4029 000c BD46     		mov	sp, r7
 4030              		.cfi_def_cfa_register 13
 4031              		@ sp needed
 4032 000e 80BC     		pop	{r7}
 4033              		.cfi_restore 7
 4034              		.cfi_def_cfa_offset 0
 4035 0010 7047     		bx	lr
 4036              	.L93:
 4037 0012 00BF     		.align	2
 4038              	.L92:
 4039 0014 00000000 		.word	button1
 4040              		.cfi_endproc
 4041              	.LFE72:
 4042              		.size	but1_isr_pos_vect, .-but1_isr_pos_vect
 4043              		.section	.text.but1_isr_neg_vect,"ax",%progbits
 4044              		.align	2
 4045              		.global	but1_isr_neg_vect
 4046              		.thumb
 4047              		.thumb_func
 4048              		.type	but1_isr_neg_vect, %function
 4049              	but1_isr_neg_vect:
 4050              	.LFB73:
 478:main.c        **** CY_ISR(but1_isr_neg_vect)   {
 4051              		.loc 1 478 0
 4052              		.cfi_startproc
 4053              		@ args = 0, pretend = 0, frame = 0
 4054              		@ frame_needed = 1, uses_anonymous_args = 0
 4055              		@ link register save eliminated.
 4056 0000 80B4     		push	{r7}
 4057              		.cfi_def_cfa_offset 4
 4058              		.cfi_offset 7, -4
 4059 0002 00AF     		add	r7, sp, #0
 4060              		.cfi_def_cfa_register 7
 479:main.c        **** //    UART_1_PutString("\r\nbutton 1 released");
 480:main.c        ****     button1 = 0;
 4061              		.loc 1 480 0
 4062 0004 034B     		ldr	r3, .L95
 4063 0006 0022     		movs	r2, #0
 4064 0008 1A70     		strb	r2, [r3]
 481:main.c        **** }
 4065              		.loc 1 481 0
 4066 000a 00BF     		nop
 4067 000c BD46     		mov	sp, r7
 4068              		.cfi_def_cfa_register 13
 4069              		@ sp needed
 4070 000e 80BC     		pop	{r7}
 4071              		.cfi_restore 7
ARM GAS  C:\Users\silvan\AppData\Local\Temp\ccww2N2V.s 			page 82


 4072              		.cfi_def_cfa_offset 0
 4073 0010 7047     		bx	lr
 4074              	.L96:
 4075 0012 00BF     		.align	2
 4076              	.L95:
 4077 0014 00000000 		.word	button1
 4078              		.cfi_endproc
 4079              	.LFE73:
 4080              		.size	but1_isr_neg_vect, .-but1_isr_neg_vect
 4081              		.section	.text.but2_isr_pos_vect,"ax",%progbits
 4082              		.align	2
 4083              		.global	but2_isr_pos_vect
 4084              		.thumb
 4085              		.thumb_func
 4086              		.type	but2_isr_pos_vect, %function
 4087              	but2_isr_pos_vect:
 4088              	.LFB74:
 482:main.c        **** CY_ISR(but2_isr_pos_vect)   {
 4089              		.loc 1 482 0
 4090              		.cfi_startproc
 4091              		@ args = 0, pretend = 0, frame = 0
 4092              		@ frame_needed = 1, uses_anonymous_args = 0
 4093              		@ link register save eliminated.
 4094 0000 80B4     		push	{r7}
 4095              		.cfi_def_cfa_offset 4
 4096              		.cfi_offset 7, -4
 4097 0002 00AF     		add	r7, sp, #0
 4098              		.cfi_def_cfa_register 7
 483:main.c        **** //    UART_1_PutString("\r\nbutton 2 pressed");
 484:main.c        ****     button2 = 85;
 4099              		.loc 1 484 0
 4100 0004 034B     		ldr	r3, .L98
 4101 0006 5522     		movs	r2, #85
 4102 0008 1A70     		strb	r2, [r3]
 485:main.c        **** }
 4103              		.loc 1 485 0
 4104 000a 00BF     		nop
 4105 000c BD46     		mov	sp, r7
 4106              		.cfi_def_cfa_register 13
 4107              		@ sp needed
 4108 000e 80BC     		pop	{r7}
 4109              		.cfi_restore 7
 4110              		.cfi_def_cfa_offset 0
 4111 0010 7047     		bx	lr
 4112              	.L99:
 4113 0012 00BF     		.align	2
 4114              	.L98:
 4115 0014 00000000 		.word	button2
 4116              		.cfi_endproc
 4117              	.LFE74:
 4118              		.size	but2_isr_pos_vect, .-but2_isr_pos_vect
 4119              		.section	.text.but2_isr_neg_vect,"ax",%progbits
 4120              		.align	2
 4121              		.global	but2_isr_neg_vect
 4122              		.thumb
 4123              		.thumb_func
 4124              		.type	but2_isr_neg_vect, %function
ARM GAS  C:\Users\silvan\AppData\Local\Temp\ccww2N2V.s 			page 83


 4125              	but2_isr_neg_vect:
 4126              	.LFB75:
 486:main.c        **** CY_ISR(but2_isr_neg_vect)   {
 4127              		.loc 1 486 0
 4128              		.cfi_startproc
 4129              		@ args = 0, pretend = 0, frame = 0
 4130              		@ frame_needed = 1, uses_anonymous_args = 0
 4131              		@ link register save eliminated.
 4132 0000 80B4     		push	{r7}
 4133              		.cfi_def_cfa_offset 4
 4134              		.cfi_offset 7, -4
 4135 0002 00AF     		add	r7, sp, #0
 4136              		.cfi_def_cfa_register 7
 487:main.c        **** //    UART_1_PutString("\r\nbutton 2 released");
 488:main.c        ****     button2 = 0;
 4137              		.loc 1 488 0
 4138 0004 034B     		ldr	r3, .L101
 4139 0006 0022     		movs	r2, #0
 4140 0008 1A70     		strb	r2, [r3]
 489:main.c        **** }
 4141              		.loc 1 489 0
 4142 000a 00BF     		nop
 4143 000c BD46     		mov	sp, r7
 4144              		.cfi_def_cfa_register 13
 4145              		@ sp needed
 4146 000e 80BC     		pop	{r7}
 4147              		.cfi_restore 7
 4148              		.cfi_def_cfa_offset 0
 4149 0010 7047     		bx	lr
 4150              	.L102:
 4151 0012 00BF     		.align	2
 4152              	.L101:
 4153 0014 00000000 		.word	button2
 4154              		.cfi_endproc
 4155              	.LFE75:
 4156              		.size	but2_isr_neg_vect, .-but2_isr_neg_vect
 4157              		.section	.text.but3_isr_pos_vect,"ax",%progbits
 4158              		.align	2
 4159              		.global	but3_isr_pos_vect
 4160              		.thumb
 4161              		.thumb_func
 4162              		.type	but3_isr_pos_vect, %function
 4163              	but3_isr_pos_vect:
 4164              	.LFB76:
 490:main.c        **** CY_ISR(but3_isr_pos_vect)   {
 4165              		.loc 1 490 0
 4166              		.cfi_startproc
 4167              		@ args = 0, pretend = 0, frame = 0
 4168              		@ frame_needed = 1, uses_anonymous_args = 0
 4169              		@ link register save eliminated.
 4170 0000 80B4     		push	{r7}
 4171              		.cfi_def_cfa_offset 4
 4172              		.cfi_offset 7, -4
 4173 0002 00AF     		add	r7, sp, #0
 4174              		.cfi_def_cfa_register 7
 491:main.c        **** //    UART_1_PutString("\r\nbutton 3 pressed");
 492:main.c        ****     button3 = 80;
ARM GAS  C:\Users\silvan\AppData\Local\Temp\ccww2N2V.s 			page 84


 4175              		.loc 1 492 0
 4176 0004 034B     		ldr	r3, .L104
 4177 0006 5022     		movs	r2, #80
 4178 0008 1A70     		strb	r2, [r3]
 493:main.c        **** }
 4179              		.loc 1 493 0
 4180 000a 00BF     		nop
 4181 000c BD46     		mov	sp, r7
 4182              		.cfi_def_cfa_register 13
 4183              		@ sp needed
 4184 000e 80BC     		pop	{r7}
 4185              		.cfi_restore 7
 4186              		.cfi_def_cfa_offset 0
 4187 0010 7047     		bx	lr
 4188              	.L105:
 4189 0012 00BF     		.align	2
 4190              	.L104:
 4191 0014 00000000 		.word	button3
 4192              		.cfi_endproc
 4193              	.LFE76:
 4194              		.size	but3_isr_pos_vect, .-but3_isr_pos_vect
 4195              		.section	.text.but3_isr_neg_vect,"ax",%progbits
 4196              		.align	2
 4197              		.global	but3_isr_neg_vect
 4198              		.thumb
 4199              		.thumb_func
 4200              		.type	but3_isr_neg_vect, %function
 4201              	but3_isr_neg_vect:
 4202              	.LFB77:
 494:main.c        **** CY_ISR(but3_isr_neg_vect)   {
 4203              		.loc 1 494 0
 4204              		.cfi_startproc
 4205              		@ args = 0, pretend = 0, frame = 0
 4206              		@ frame_needed = 1, uses_anonymous_args = 0
 4207              		@ link register save eliminated.
 4208 0000 80B4     		push	{r7}
 4209              		.cfi_def_cfa_offset 4
 4210              		.cfi_offset 7, -4
 4211 0002 00AF     		add	r7, sp, #0
 4212              		.cfi_def_cfa_register 7
 495:main.c        **** //    UART_1_PutString("\r\nbutton 3 released");
 496:main.c        ****     button3 = 0;
 4213              		.loc 1 496 0
 4214 0004 034B     		ldr	r3, .L107
 4215 0006 0022     		movs	r2, #0
 4216 0008 1A70     		strb	r2, [r3]
 497:main.c        **** }
 4217              		.loc 1 497 0
 4218 000a 00BF     		nop
 4219 000c BD46     		mov	sp, r7
 4220              		.cfi_def_cfa_register 13
 4221              		@ sp needed
 4222 000e 80BC     		pop	{r7}
 4223              		.cfi_restore 7
 4224              		.cfi_def_cfa_offset 0
 4225 0010 7047     		bx	lr
 4226              	.L108:
ARM GAS  C:\Users\silvan\AppData\Local\Temp\ccww2N2V.s 			page 85


 4227 0012 00BF     		.align	2
 4228              	.L107:
 4229 0014 00000000 		.word	button3
 4230              		.cfi_endproc
 4231              	.LFE77:
 4232              		.size	but3_isr_neg_vect, .-but3_isr_neg_vect
 4233              		.section	.text.userEcho_ISR,"ax",%progbits
 4234              		.align	2
 4235              		.global	userEcho_ISR
 4236              		.thumb
 4237              		.thumb_func
 4238              		.type	userEcho_ISR, %function
 4239              	userEcho_ISR:
 4240              	.LFB78:
 498:main.c        **** CY_ISR(userEcho_ISR){
 4241              		.loc 1 498 0
 4242              		.cfi_startproc
 4243              		@ args = 0, pretend = 0, frame = 0
 4244              		@ frame_needed = 1, uses_anonymous_args = 0
 4245 0000 80B5     		push	{r7, lr}
 4246              		.cfi_def_cfa_offset 8
 4247              		.cfi_offset 7, -8
 4248              		.cfi_offset 14, -4
 4249 0002 00AF     		add	r7, sp, #0
 4250              		.cfi_def_cfa_register 7
 499:main.c        ****     if (echoFlag == 1){
 4251              		.loc 1 499 0
 4252 0004 0A4B     		ldr	r3, .L112
 4253 0006 1B78     		ldrb	r3, [r3]
 4254 0008 DBB2     		uxtb	r3, r3
 4255 000a 012B     		cmp	r3, #1
 4256 000c 0DD1     		bne	.L111
 500:main.c        ****         echoReadCounter = Timer_Echo_ReadCounter();
 4257              		.loc 1 500 0
 4258 000e FFF7FEFF 		bl	Timer_Echo_ReadCounter
 4259 0012 0346     		mov	r3, r0
 4260 0014 1A46     		mov	r2, r3
 4261 0016 074B     		ldr	r3, .L112+4
 4262 0018 1A80     		strh	r2, [r3]	@ movhi
 501:main.c        ****         echoFlag = 2;    
 4263              		.loc 1 501 0
 4264 001a 054B     		ldr	r3, .L112
 4265 001c 0222     		movs	r2, #2
 4266 001e 1A70     		strb	r2, [r3]
 502:main.c        ****         Timer_Echo_WriteCounter(0);
 4267              		.loc 1 502 0
 4268 0020 0020     		movs	r0, #0
 4269 0022 FFF7FEFF 		bl	Timer_Echo_WriteCounter
 503:main.c        ****         Pin_EchoReturn_ClearInterrupt();
 4270              		.loc 1 503 0
 4271 0026 FFF7FEFF 		bl	Pin_EchoReturn_ClearInterrupt
 4272              	.L111:
 504:main.c        ****     }
 505:main.c        **** }
 4273              		.loc 1 505 0
 4274 002a 00BF     		nop
 4275 002c 80BD     		pop	{r7, pc}
ARM GAS  C:\Users\silvan\AppData\Local\Temp\ccww2N2V.s 			page 86


 4276              	.L113:
 4277 002e 00BF     		.align	2
 4278              	.L112:
 4279 0030 00000000 		.word	echoFlag
 4280 0034 00000000 		.word	echoReadCounter
 4281              		.cfi_endproc
 4282              	.LFE78:
 4283              		.size	userEcho_ISR, .-userEcho_ISR
 4284              		.section	.text.userModeTimer_ISR,"ax",%progbits
 4285              		.align	2
 4286              		.global	userModeTimer_ISR
 4287              		.thumb
 4288              		.thumb_func
 4289              		.type	userModeTimer_ISR, %function
 4290              	userModeTimer_ISR:
 4291              	.LFB79:
 506:main.c        **** 
 507:main.c        **** CY_ISR(userModeTimer_ISR){ 
 4292              		.loc 1 507 0
 4293              		.cfi_startproc
 4294              		@ args = 0, pretend = 0, frame = 0
 4295              		@ frame_needed = 1, uses_anonymous_args = 0
 4296 0000 80B5     		push	{r7, lr}
 4297              		.cfi_def_cfa_offset 8
 4298              		.cfi_offset 7, -8
 4299              		.cfi_offset 14, -4
 4300 0002 00AF     		add	r7, sp, #0
 4301              		.cfi_def_cfa_register 7
 508:main.c        ****     modeFlag = 1;
 4302              		.loc 1 508 0
 4303 0004 034B     		ldr	r3, .L115
 4304 0006 0122     		movs	r2, #1
 4305 0008 1A70     		strb	r2, [r3]
 509:main.c        ****     Timer_Mode_ReadStatusRegister();
 4306              		.loc 1 509 0
 4307 000a FFF7FEFF 		bl	Timer_Mode_ReadStatusRegister
 510:main.c        **** }
 4308              		.loc 1 510 0
 4309 000e 00BF     		nop
 4310 0010 80BD     		pop	{r7, pc}
 4311              	.L116:
 4312 0012 00BF     		.align	2
 4313              	.L115:
 4314 0014 00000000 		.word	modeFlag
 4315              		.cfi_endproc
 4316              	.LFE79:
 4317              		.size	userModeTimer_ISR, .-userModeTimer_ISR
 4318              		.text
 4319              	.Letext0:
 4320              		.file 2 "c:\\program files (x86)\\cypress\\psoc creator\\4.4\\psoc creator\\import\\gnu\\arm\\5.4.
 4321              		.file 3 "c:\\program files (x86)\\cypress\\psoc creator\\4.4\\psoc creator\\import\\gnu\\arm\\5.4.
 4322              		.file 4 "Generated_Source\\PSoC5/cytypes.h"
 4323              		.file 5 "c:\\program files (x86)\\cypress\\psoc creator\\4.4\\psoc creator\\import\\gnu\\arm\\5.4.
 4324              		.file 6 "Generated_Source\\PSoC5/core_cm3.h"
 4325              		.section	.debug_info,"",%progbits
 4326              	.Ldebug_info0:
 4327 0000 46060000 		.4byte	0x646
ARM GAS  C:\Users\silvan\AppData\Local\Temp\ccww2N2V.s 			page 87


 4328 0004 0400     		.2byte	0x4
 4329 0006 00000000 		.4byte	.Ldebug_abbrev0
 4330 000a 04       		.byte	0x4
 4331 000b 01       		.uleb128 0x1
 4332 000c 82000000 		.4byte	.LASF82
 4333 0010 0C       		.byte	0xc
 4334 0011 5E030000 		.4byte	.LASF83
 4335 0015 31010000 		.4byte	.LASF84
 4336 0019 00000000 		.4byte	.Ldebug_ranges0+0
 4337 001d 00000000 		.4byte	0
 4338 0021 00000000 		.4byte	.Ldebug_line0
 4339 0025 02       		.uleb128 0x2
 4340 0026 01       		.byte	0x1
 4341 0027 06       		.byte	0x6
 4342 0028 82020000 		.4byte	.LASF0
 4343 002c 02       		.uleb128 0x2
 4344 002d 01       		.byte	0x1
 4345 002e 08       		.byte	0x8
 4346 002f 5B020000 		.4byte	.LASF1
 4347 0033 02       		.uleb128 0x2
 4348 0034 02       		.byte	0x2
 4349 0035 05       		.byte	0x5
 4350 0036 46000000 		.4byte	.LASF2
 4351 003a 02       		.uleb128 0x2
 4352 003b 02       		.byte	0x2
 4353 003c 07       		.byte	0x7
 4354 003d BE020000 		.4byte	.LASF3
 4355 0041 03       		.uleb128 0x3
 4356 0042 F3030000 		.4byte	.LASF9
 4357 0046 02       		.byte	0x2
 4358 0047 3F       		.byte	0x3f
 4359 0048 4C000000 		.4byte	0x4c
 4360 004c 02       		.uleb128 0x2
 4361 004d 04       		.byte	0x4
 4362 004e 05       		.byte	0x5
 4363 004f 1D020000 		.4byte	.LASF4
 4364 0053 02       		.uleb128 0x2
 4365 0054 04       		.byte	0x4
 4366 0055 07       		.byte	0x7
 4367 0056 65030000 		.4byte	.LASF5
 4368 005a 02       		.uleb128 0x2
 4369 005b 08       		.byte	0x8
 4370 005c 05       		.byte	0x5
 4371 005d EF010000 		.4byte	.LASF6
 4372 0061 02       		.uleb128 0x2
 4373 0062 08       		.byte	0x8
 4374 0063 07       		.byte	0x7
 4375 0064 FD010000 		.4byte	.LASF7
 4376 0068 04       		.uleb128 0x4
 4377 0069 04       		.byte	0x4
 4378 006a 05       		.byte	0x5
 4379 006b 696E7400 		.ascii	"int\000"
 4380 006f 02       		.uleb128 0x2
 4381 0070 04       		.byte	0x4
 4382 0071 07       		.byte	0x7
 4383 0072 97020000 		.4byte	.LASF8
 4384 0076 03       		.uleb128 0x3
ARM GAS  C:\Users\silvan\AppData\Local\Temp\ccww2N2V.s 			page 88


 4385 0077 FE020000 		.4byte	.LASF10
 4386 007b 03       		.byte	0x3
 4387 007c 2C       		.byte	0x2c
 4388 007d 41000000 		.4byte	0x41
 4389 0081 05       		.uleb128 0x5
 4390 0082 B8010000 		.4byte	.LASF11
 4391 0086 04       		.byte	0x4
 4392 0087 9201     		.2byte	0x192
 4393 0089 2C000000 		.4byte	0x2c
 4394 008d 05       		.uleb128 0x5
 4395 008e 97010000 		.4byte	.LASF12
 4396 0092 04       		.byte	0x4
 4397 0093 9301     		.2byte	0x193
 4398 0095 3A000000 		.4byte	0x3a
 4399 0099 02       		.uleb128 0x2
 4400 009a 04       		.byte	0x4
 4401 009b 04       		.byte	0x4
 4402 009c E4010000 		.4byte	.LASF13
 4403 00a0 02       		.uleb128 0x2
 4404 00a1 08       		.byte	0x8
 4405 00a2 04       		.byte	0x4
 4406 00a3 77030000 		.4byte	.LASF14
 4407 00a7 02       		.uleb128 0x2
 4408 00a8 01       		.byte	0x1
 4409 00a9 08       		.byte	0x8
 4410 00aa EC020000 		.4byte	.LASF15
 4411 00ae 06       		.uleb128 0x6
 4412 00af 81000000 		.4byte	0x81
 4413 00b3 06       		.uleb128 0x6
 4414 00b4 8D000000 		.4byte	0x8d
 4415 00b8 02       		.uleb128 0x2
 4416 00b9 08       		.byte	0x8
 4417 00ba 04       		.byte	0x4
 4418 00bb 69020000 		.4byte	.LASF16
 4419 00bf 02       		.uleb128 0x2
 4420 00c0 04       		.byte	0x4
 4421 00c1 07       		.byte	0x7
 4422 00c2 5D000000 		.4byte	.LASF17
 4423 00c6 07       		.uleb128 0x7
 4424 00c7 A7000000 		.4byte	0xa7
 4425 00cb 03       		.uleb128 0x3
 4426 00cc 1A010000 		.4byte	.LASF18
 4427 00d0 05       		.byte	0x5
 4428 00d1 6C       		.byte	0x6c
 4429 00d2 6F000000 		.4byte	0x6f
 4430 00d6 08       		.uleb128 0x8
 4431 00d7 2F000000 		.4byte	.LASF85
 4432 00db 01       		.byte	0x1
 4433 00dc B9       		.byte	0xb9
 4434 00dd 00000000 		.4byte	.LFB64
 4435 00e1 0C010000 		.4byte	.LFE64-.LFB64
 4436 00e5 01       		.uleb128 0x1
 4437 00e6 9C       		.byte	0x9c
 4438 00e7 09       		.uleb128 0x9
 4439 00e8 9A030000 		.4byte	.LASF22
 4440 00ec 01       		.byte	0x1
 4441 00ed D6       		.byte	0xd6
ARM GAS  C:\Users\silvan\AppData\Local\Temp\ccww2N2V.s 			page 89


 4442 00ee 00000000 		.4byte	.LFB65
 4443 00f2 5C010000 		.4byte	.LFE65-.LFB65
 4444 00f6 01       		.uleb128 0x1
 4445 00f7 9C       		.byte	0x9c
 4446 00f8 13010000 		.4byte	0x113
 4447 00fc 0A       		.uleb128 0xa
 4448 00fd 52000000 		.4byte	.LBB2
 4449 0101 96000000 		.4byte	.LBE2-.LBB2
 4450 0105 0B       		.uleb128 0xb
 4451 0106 6900     		.ascii	"i\000"
 4452 0108 01       		.byte	0x1
 4453 0109 DD       		.byte	0xdd
 4454 010a CB000000 		.4byte	0xcb
 4455 010e 02       		.uleb128 0x2
 4456 010f 91       		.byte	0x91
 4457 0110 6C       		.sleb128 -20
 4458 0111 00       		.byte	0
 4459 0112 00       		.byte	0
 4460 0113 0C       		.uleb128 0xc
 4461 0114 66000000 		.4byte	.LASF24
 4462 0118 01       		.byte	0x1
 4463 0119 EB       		.byte	0xeb
 4464 011a 00000000 		.4byte	.LFB66
 4465 011e 00010000 		.4byte	.LFE66-.LFB66
 4466 0122 01       		.uleb128 0x1
 4467 0123 9C       		.byte	0x9c
 4468 0124 69010000 		.4byte	0x169
 4469 0128 0D       		.uleb128 0xd
 4470 0129 A6010000 		.4byte	.LASF19
 4471 012d 01       		.byte	0x1
 4472 012e EB       		.byte	0xeb
 4473 012f 81000000 		.4byte	0x81
 4474 0133 02       		.uleb128 0x2
 4475 0134 91       		.byte	0x91
 4476 0135 67       		.sleb128 -25
 4477 0136 0D       		.uleb128 0xd
 4478 0137 37040000 		.4byte	.LASF20
 4479 013b 01       		.byte	0x1
 4480 013c EB       		.byte	0xeb
 4481 013d 81000000 		.4byte	0x81
 4482 0141 02       		.uleb128 0x2
 4483 0142 91       		.byte	0x91
 4484 0143 66       		.sleb128 -26
 4485 0144 0D       		.uleb128 0xd
 4486 0145 0C000000 		.4byte	.LASF21
 4487 0149 01       		.byte	0x1
 4488 014a EB       		.byte	0xeb
 4489 014b 8D000000 		.4byte	0x8d
 4490 014f 02       		.uleb128 0x2
 4491 0150 91       		.byte	0x91
 4492 0151 64       		.sleb128 -28
 4493 0152 0A       		.uleb128 0xa
 4494 0153 2C000000 		.4byte	.LBB3
 4495 0157 AA000000 		.4byte	.LBE3-.LBB3
 4496 015b 0B       		.uleb128 0xb
 4497 015c 6900     		.ascii	"i\000"
 4498 015e 01       		.byte	0x1
ARM GAS  C:\Users\silvan\AppData\Local\Temp\ccww2N2V.s 			page 90


 4499 015f F1       		.byte	0xf1
 4500 0160 81000000 		.4byte	0x81
 4501 0164 02       		.uleb128 0x2
 4502 0165 91       		.byte	0x91
 4503 0166 6F       		.sleb128 -17
 4504 0167 00       		.byte	0
 4505 0168 00       		.byte	0
 4506 0169 09       		.uleb128 0x9
 4507 016a 40040000 		.4byte	.LASF23
 4508 016e 01       		.byte	0x1
 4509 016f FE       		.byte	0xfe
 4510 0170 00000000 		.4byte	.LFB67
 4511 0174 64030000 		.4byte	.LFE67-.LFB67
 4512 0178 01       		.uleb128 0x1
 4513 0179 9C       		.byte	0x9c
 4514 017a 96010000 		.4byte	0x196
 4515 017e 0A       		.uleb128 0xa
 4516 017f F4010000 		.4byte	.LBB4
 4517 0183 88000000 		.4byte	.LBE4-.LBB4
 4518 0187 0E       		.uleb128 0xe
 4519 0188 6900     		.ascii	"i\000"
 4520 018a 01       		.byte	0x1
 4521 018b 4101     		.2byte	0x141
 4522 018d 68000000 		.4byte	0x68
 4523 0191 02       		.uleb128 0x2
 4524 0192 91       		.byte	0x91
 4525 0193 6C       		.sleb128 -20
 4526 0194 00       		.byte	0
 4527 0195 00       		.byte	0
 4528 0196 0F       		.uleb128 0xf
 4529 0197 2C040000 		.4byte	.LASF25
 4530 019b 01       		.byte	0x1
 4531 019c 5201     		.2byte	0x152
 4532 019e 00000000 		.4byte	.LFB68
 4533 01a2 D4000000 		.4byte	.LFE68-.LFB68
 4534 01a6 01       		.uleb128 0x1
 4535 01a7 9C       		.byte	0x9c
 4536 01a8 BC010000 		.4byte	0x1bc
 4537 01ac 10       		.uleb128 0x10
 4538 01ad 1B000000 		.4byte	.LASF26
 4539 01b1 01       		.byte	0x1
 4540 01b2 5201     		.2byte	0x152
 4541 01b4 68000000 		.4byte	0x68
 4542 01b8 02       		.uleb128 0x2
 4543 01b9 91       		.byte	0x91
 4544 01ba 74       		.sleb128 -12
 4545 01bb 00       		.byte	0
 4546 01bc 11       		.uleb128 0x11
 4547 01bd 10010000 		.4byte	.LASF27
 4548 01c1 01       		.byte	0x1
 4549 01c2 7201     		.2byte	0x172
 4550 01c4 68000000 		.4byte	0x68
 4551 01c8 00000000 		.4byte	.LFB69
 4552 01cc 50030000 		.4byte	.LFE69-.LFB69
 4553 01d0 01       		.uleb128 0x1
 4554 01d1 9C       		.byte	0x9c
 4555 01d2 F0010000 		.4byte	0x1f0
ARM GAS  C:\Users\silvan\AppData\Local\Temp\ccww2N2V.s 			page 91


 4556 01d6 0A       		.uleb128 0xa
 4557 01d7 AE000000 		.4byte	.LBB5
 4558 01db 8C000000 		.4byte	.LBE5-.LBB5
 4559 01df 12       		.uleb128 0x12
 4560 01e0 B6030000 		.4byte	.LASF28
 4561 01e4 01       		.byte	0x1
 4562 01e5 9601     		.2byte	0x196
 4563 01e7 68000000 		.4byte	0x68
 4564 01eb 02       		.uleb128 0x2
 4565 01ec 91       		.byte	0x91
 4566 01ed 6C       		.sleb128 -20
 4567 01ee 00       		.byte	0
 4568 01ef 00       		.byte	0
 4569 01f0 13       		.uleb128 0x13
 4570 01f1 26030000 		.4byte	.LASF29
 4571 01f5 01       		.byte	0x1
 4572 01f6 D001     		.2byte	0x1d0
 4573 01f8 00000000 		.4byte	.LFB70
 4574 01fc 18000000 		.4byte	.LFE70-.LFB70
 4575 0200 01       		.uleb128 0x1
 4576 0201 9C       		.byte	0x9c
 4577 0202 13       		.uleb128 0x13
 4578 0203 39020000 		.4byte	.LASF30
 4579 0207 01       		.byte	0x1
 4580 0208 D501     		.2byte	0x1d5
 4581 020a 00000000 		.4byte	.LFB71
 4582 020e 18000000 		.4byte	.LFE71-.LFB71
 4583 0212 01       		.uleb128 0x1
 4584 0213 9C       		.byte	0x9c
 4585 0214 13       		.uleb128 0x13
 4586 0215 81040000 		.4byte	.LASF31
 4587 0219 01       		.byte	0x1
 4588 021a DA01     		.2byte	0x1da
 4589 021c 00000000 		.4byte	.LFB72
 4590 0220 18000000 		.4byte	.LFE72-.LFB72
 4591 0224 01       		.uleb128 0x1
 4592 0225 9C       		.byte	0x9c
 4593 0226 13       		.uleb128 0x13
 4594 0227 5C040000 		.4byte	.LASF32
 4595 022b 01       		.byte	0x1
 4596 022c DE01     		.2byte	0x1de
 4597 022e 00000000 		.4byte	.LFB73
 4598 0232 18000000 		.4byte	.LFE73-.LFB73
 4599 0236 01       		.uleb128 0x1
 4600 0237 9C       		.byte	0x9c
 4601 0238 13       		.uleb128 0x13
 4602 0239 E1030000 		.4byte	.LASF33
 4603 023d 01       		.byte	0x1
 4604 023e E201     		.2byte	0x1e2
 4605 0240 00000000 		.4byte	.LFB74
 4606 0244 18000000 		.4byte	.LFE74-.LFB74
 4607 0248 01       		.uleb128 0x1
 4608 0249 9C       		.byte	0x9c
 4609 024a 13       		.uleb128 0x13
 4610 024b C1030000 		.4byte	.LASF34
 4611 024f 01       		.byte	0x1
 4612 0250 E601     		.2byte	0x1e6
ARM GAS  C:\Users\silvan\AppData\Local\Temp\ccww2N2V.s 			page 92


 4613 0252 00000000 		.4byte	.LFB75
 4614 0256 18000000 		.4byte	.LFE75-.LFB75
 4615 025a 01       		.uleb128 0x1
 4616 025b 9C       		.byte	0x9c
 4617 025c 13       		.uleb128 0x13
 4618 025d 0F030000 		.4byte	.LASF35
 4619 0261 01       		.byte	0x1
 4620 0262 EA01     		.2byte	0x1ea
 4621 0264 00000000 		.4byte	.LFB76
 4622 0268 18000000 		.4byte	.LFE76-.LFB76
 4623 026c 01       		.uleb128 0x1
 4624 026d 9C       		.byte	0x9c
 4625 026e 13       		.uleb128 0x13
 4626 026f A4030000 		.4byte	.LASF36
 4627 0273 01       		.byte	0x1
 4628 0274 EE01     		.2byte	0x1ee
 4629 0276 00000000 		.4byte	.LFB77
 4630 027a 18000000 		.4byte	.LFE77-.LFB77
 4631 027e 01       		.uleb128 0x1
 4632 027f 9C       		.byte	0x9c
 4633 0280 14       		.uleb128 0x14
 4634 0281 D1020000 		.4byte	.LASF37
 4635 0285 01       		.byte	0x1
 4636 0286 F201     		.2byte	0x1f2
 4637 0288 00000000 		.4byte	.LFB78
 4638 028c 38000000 		.4byte	.LFE78-.LFB78
 4639 0290 01       		.uleb128 0x1
 4640 0291 9C       		.byte	0x9c
 4641 0292 14       		.uleb128 0x14
 4642 0293 39030000 		.4byte	.LASF38
 4643 0297 01       		.byte	0x1
 4644 0298 FB01     		.2byte	0x1fb
 4645 029a 00000000 		.4byte	.LFB79
 4646 029e 18000000 		.4byte	.LFE79-.LFB79
 4647 02a2 01       		.uleb128 0x1
 4648 02a3 9C       		.byte	0x9c
 4649 02a4 15       		.uleb128 0x15
 4650 02a5 F1020000 		.4byte	.LASF39
 4651 02a9 06       		.byte	0x6
 4652 02aa 1207     		.2byte	0x712
 4653 02ac B0020000 		.4byte	0x2b0
 4654 02b0 06       		.uleb128 0x6
 4655 02b1 76000000 		.4byte	0x76
 4656 02b5 16       		.uleb128 0x16
 4657 02b6 FD030000 		.4byte	.LASF40
 4658 02ba 01       		.byte	0x1
 4659 02bb 17       		.byte	0x17
 4660 02bc AE000000 		.4byte	0xae
 4661 02c0 05       		.uleb128 0x5
 4662 02c1 03       		.byte	0x3
 4663 02c2 00000000 		.4byte	button1
 4664 02c6 16       		.uleb128 0x16
 4665 02c7 05040000 		.4byte	.LASF41
 4666 02cb 01       		.byte	0x1
 4667 02cc 18       		.byte	0x18
 4668 02cd AE000000 		.4byte	0xae
 4669 02d1 05       		.uleb128 0x5
ARM GAS  C:\Users\silvan\AppData\Local\Temp\ccww2N2V.s 			page 93


 4670 02d2 03       		.byte	0x3
 4671 02d3 00000000 		.4byte	button2
 4672 02d7 16       		.uleb128 0x16
 4673 02d8 0D040000 		.4byte	.LASF42
 4674 02dc 01       		.byte	0x1
 4675 02dd 19       		.byte	0x19
 4676 02de AE000000 		.4byte	0xae
 4677 02e2 05       		.uleb128 0x5
 4678 02e3 03       		.byte	0x3
 4679 02e4 00000000 		.4byte	button3
 4680 02e8 16       		.uleb128 0x16
 4681 02e9 78000000 		.4byte	.LASF43
 4682 02ed 01       		.byte	0x1
 4683 02ee 1A       		.byte	0x1a
 4684 02ef AE000000 		.4byte	0xae
 4685 02f3 05       		.uleb128 0x5
 4686 02f4 03       		.byte	0x3
 4687 02f5 00000000 		.4byte	analogBut
 4688 02f9 16       		.uleb128 0x16
 4689 02fa 46020000 		.4byte	.LASF44
 4690 02fe 01       		.byte	0x1
 4691 02ff 1C       		.byte	0x1c
 4692 0300 AE000000 		.4byte	0xae
 4693 0304 05       		.uleb128 0x5
 4694 0305 03       		.byte	0x3
 4695 0306 00000000 		.4byte	muxChannel
 4696 030a 16       		.uleb128 0x16
 4697 030b 70000000 		.4byte	.LASF45
 4698 030f 01       		.byte	0x1
 4699 0310 1D       		.byte	0x1d
 4700 0311 AE000000 		.4byte	0xae
 4701 0315 05       		.uleb128 0x5
 4702 0316 03       		.byte	0x3
 4703 0317 00000000 		.4byte	adcFlag
 4704 031b 17       		.uleb128 0x17
 4705 031c 68000000 		.4byte	0x68
 4706 0320 2B030000 		.4byte	0x32b
 4707 0324 18       		.uleb128 0x18
 4708 0325 BF000000 		.4byte	0xbf
 4709 0329 01       		.byte	0x1
 4710 032a 00       		.byte	0
 4711 032b 16       		.uleb128 0x16
 4712 032c 7B040000 		.4byte	.LASF46
 4713 0330 01       		.byte	0x1
 4714 0331 1E       		.byte	0x1e
 4715 0332 1B030000 		.4byte	0x31b
 4716 0336 05       		.uleb128 0x5
 4717 0337 03       		.byte	0x3
 4718 0338 00000000 		.4byte	pitch
 4719 033c 16       		.uleb128 0x16
 4720 033d 51020000 		.4byte	.LASF47
 4721 0341 01       		.byte	0x1
 4722 0342 1F       		.byte	0x1f
 4723 0343 68000000 		.4byte	0x68
 4724 0347 05       		.uleb128 0x5
 4725 0348 03       		.byte	0x3
 4726 0349 00000000 		.4byte	oldYinput
ARM GAS  C:\Users\silvan\AppData\Local\Temp\ccww2N2V.s 			page 94


 4727 034d 16       		.uleb128 0x16
 4728 034e D3030000 		.4byte	.LASF48
 4729 0352 01       		.byte	0x1
 4730 0353 20       		.byte	0x20
 4731 0354 81000000 		.4byte	0x81
 4732 0358 05       		.uleb128 0x5
 4733 0359 03       		.byte	0x3
 4734 035a 00000000 		.4byte	analogButFlag
 4735 035e 17       		.uleb128 0x17
 4736 035f 81000000 		.4byte	0x81
 4737 0363 6F030000 		.4byte	0x36f
 4738 0367 19       		.uleb128 0x19
 4739 0368 BF000000 		.4byte	0xbf
 4740 036c F501     		.2byte	0x1f5
 4741 036e 00       		.byte	0
 4742 036f 16       		.uleb128 0x16
 4743 0370 93040000 		.4byte	.LASF49
 4744 0374 01       		.byte	0x1
 4745 0375 22       		.byte	0x22
 4746 0376 5E030000 		.4byte	0x35e
 4747 037a 05       		.uleb128 0x5
 4748 037b 03       		.byte	0x3
 4749 037c 00000000 		.4byte	squarewave
 4750 0380 16       		.uleb128 0x16
 4751 0381 C7010000 		.4byte	.LASF50
 4752 0385 01       		.byte	0x1
 4753 0386 57       		.byte	0x57
 4754 0387 5E030000 		.4byte	0x35e
 4755 038b 05       		.uleb128 0x5
 4756 038c 03       		.byte	0x3
 4757 038d 00000000 		.4byte	trianglewave
 4758 0391 16       		.uleb128 0x16
 4759 0392 14020000 		.4byte	.LASF51
 4760 0396 01       		.byte	0x1
 4761 0397 58       		.byte	0x58
 4762 0398 5E030000 		.4byte	0x35e
 4763 039c 05       		.uleb128 0x5
 4764 039d 03       		.byte	0x3
 4765 039e 00000000 		.4byte	sinewave
 4766 03a2 16       		.uleb128 0x16
 4767 03a3 06030000 		.4byte	.LASF52
 4768 03a7 01       		.byte	0x1
 4769 03a8 5A       		.byte	0x5a
 4770 03a9 81000000 		.4byte	0x81
 4771 03ad 05       		.uleb128 0x5
 4772 03ae 03       		.byte	0x3
 4773 03af 00000000 		.4byte	waveMode
 4774 03b3 17       		.uleb128 0x17
 4775 03b4 C6000000 		.4byte	0xc6
 4776 03b8 C9030000 		.4byte	0x3c9
 4777 03bc 18       		.uleb128 0x18
 4778 03bd BF000000 		.4byte	0xbf
 4779 03c1 6B       		.byte	0x6b
 4780 03c2 18       		.uleb128 0x18
 4781 03c3 BF000000 		.4byte	0xbf
 4782 03c7 02       		.byte	0x2
 4783 03c8 00       		.byte	0
ARM GAS  C:\Users\silvan\AppData\Local\Temp\ccww2N2V.s 			page 95


 4784 03c9 16       		.uleb128 0x16
 4785 03ca 26020000 		.4byte	.LASF53
 4786 03ce 01       		.byte	0x1
 4787 03cf 5C       		.byte	0x5c
 4788 03d0 DA030000 		.4byte	0x3da
 4789 03d4 05       		.uleb128 0x5
 4790 03d5 03       		.byte	0x3
 4791 03d6 00000000 		.4byte	notes
 4792 03da 07       		.uleb128 0x7
 4793 03db B3030000 		.4byte	0x3b3
 4794 03df 17       		.uleb128 0x17
 4795 03e0 EF030000 		.4byte	0x3ef
 4796 03e4 EF030000 		.4byte	0x3ef
 4797 03e8 18       		.uleb128 0x18
 4798 03e9 BF000000 		.4byte	0xbf
 4799 03ed 6B       		.byte	0x6b
 4800 03ee 00       		.byte	0
 4801 03ef 07       		.uleb128 0x7
 4802 03f0 8D000000 		.4byte	0x8d
 4803 03f4 16       		.uleb128 0x16
 4804 03f5 6E040000 		.4byte	.LASF54
 4805 03f9 01       		.byte	0x1
 4806 03fa 5D       		.byte	0x5d
 4807 03fb 05040000 		.4byte	0x405
 4808 03ff 05       		.uleb128 0x5
 4809 0400 03       		.byte	0x3
 4810 0401 00000000 		.4byte	intFrequency
 4811 0405 07       		.uleb128 0x7
 4812 0406 DF030000 		.4byte	0x3df
 4813 040a 17       		.uleb128 0x17
 4814 040b 1A040000 		.4byte	0x41a
 4815 040f 1A040000 		.4byte	0x41a
 4816 0413 18       		.uleb128 0x18
 4817 0414 BF000000 		.4byte	0xbf
 4818 0418 6B       		.byte	0x6b
 4819 0419 00       		.byte	0
 4820 041a 07       		.uleb128 0x7
 4821 041b A0000000 		.4byte	0xa0
 4822 041f 16       		.uleb128 0x16
 4823 0420 22040000 		.4byte	.LASF55
 4824 0424 01       		.byte	0x1
 4825 0425 5E       		.byte	0x5e
 4826 0426 30040000 		.4byte	0x430
 4827 042a 05       		.uleb128 0x5
 4828 042b 03       		.byte	0x3
 4829 042c 00000000 		.4byte	frequency
 4830 0430 07       		.uleb128 0x7
 4831 0431 0A040000 		.4byte	0x40a
 4832 0435 16       		.uleb128 0x16
 4833 0436 9E040000 		.4byte	.LASF56
 4834 043a 01       		.byte	0x1
 4835 043b 60       		.byte	0x60
 4836 043c B3000000 		.4byte	0xb3
 4837 0440 05       		.uleb128 0x5
 4838 0441 03       		.byte	0x3
 4839 0442 00000000 		.4byte	delayMS
 4840 0446 16       		.uleb128 0x16
ARM GAS  C:\Users\silvan\AppData\Local\Temp\ccww2N2V.s 			page 96


 4841 0447 B3020000 		.4byte	.LASF57
 4842 044b 01       		.byte	0x1
 4843 044c 61       		.byte	0x61
 4844 044d AE000000 		.4byte	0xae
 4845 0451 05       		.uleb128 0x5
 4846 0452 03       		.byte	0x3
 4847 0453 00000000 		.4byte	onOffCount
 4848 0457 17       		.uleb128 0x17
 4849 0458 A7000000 		.4byte	0xa7
 4850 045c 67040000 		.4byte	0x467
 4851 0460 18       		.uleb128 0x18
 4852 0461 BF000000 		.4byte	0xbf
 4853 0465 63       		.byte	0x63
 4854 0466 00       		.byte	0
 4855 0467 16       		.uleb128 0x16
 4856 0468 A4020000 		.4byte	.LASF58
 4857 046c 01       		.byte	0x1
 4858 046d 62       		.byte	0x62
 4859 046e 57040000 		.4byte	0x457
 4860 0472 05       		.uleb128 0x5
 4861 0473 03       		.byte	0x3
 4862 0474 00000000 		.4byte	transmitBuffer
 4863 0478 16       		.uleb128 0x16
 4864 0479 EA010000 		.4byte	.LASF59
 4865 047d 01       		.byte	0x1
 4866 047e 63       		.byte	0x63
 4867 047f 89040000 		.4byte	0x489
 4868 0483 05       		.uleb128 0x5
 4869 0484 03       		.byte	0x3
 4870 0485 00000000 		.4byte	freq
 4871 0489 06       		.uleb128 0x6
 4872 048a A0000000 		.4byte	0xa0
 4873 048e 16       		.uleb128 0x16
 4874 048f 92030000 		.4byte	.LASF60
 4875 0493 01       		.byte	0x1
 4876 0494 64       		.byte	0x64
 4877 0495 B3000000 		.4byte	0xb3
 4878 0499 05       		.uleb128 0x5
 4879 049a 03       		.byte	0x3
 4880 049b 00000000 		.4byte	intFreq
 4881 049f 17       		.uleb128 0x17
 4882 04a0 AF040000 		.4byte	0x4af
 4883 04a4 AF040000 		.4byte	0x4af
 4884 04a8 18       		.uleb128 0x18
 4885 04a9 BF000000 		.4byte	0xbf
 4886 04ad 02       		.byte	0x2
 4887 04ae 00       		.byte	0
 4888 04af 06       		.uleb128 0x6
 4889 04b0 A7000000 		.4byte	0xa7
 4890 04b4 16       		.uleb128 0x16
 4891 04b5 21030000 		.4byte	.LASF61
 4892 04b9 01       		.byte	0x1
 4893 04ba 65       		.byte	0x65
 4894 04bb C5040000 		.4byte	0x4c5
 4895 04bf 05       		.uleb128 0x5
 4896 04c0 03       		.byte	0x3
 4897 04c1 00000000 		.4byte	note
ARM GAS  C:\Users\silvan\AppData\Local\Temp\ccww2N2V.s 			page 97


 4898 04c5 06       		.uleb128 0x6
 4899 04c6 9F040000 		.4byte	0x49f
 4900 04ca 16       		.uleb128 0x16
 4901 04cb 52040000 		.4byte	.LASF62
 4902 04cf 01       		.byte	0x1
 4903 04d0 66       		.byte	0x66
 4904 04d1 AE000000 		.4byte	0xae
 4905 04d5 05       		.uleb128 0x5
 4906 04d6 03       		.byte	0x3
 4907 04d7 00000000 		.4byte	noteIndex
 4908 04db 16       		.uleb128 0x16
 4909 04dc 15010000 		.4byte	.LASF63
 4910 04e0 01       		.byte	0x1
 4911 04e1 67       		.byte	0x67
 4912 04e2 AE000000 		.4byte	0xae
 4913 04e6 05       		.uleb128 0x5
 4914 04e7 03       		.byte	0x3
 4915 04e8 00000000 		.4byte	mode
 4916 04ec 16       		.uleb128 0x16
 4917 04ed AF010000 		.4byte	.LASF64
 4918 04f1 01       		.byte	0x1
 4919 04f2 68       		.byte	0x68
 4920 04f3 AE000000 		.4byte	0xae
 4921 04f7 05       		.uleb128 0x5
 4922 04f8 03       		.byte	0x3
 4923 04f9 00000000 		.4byte	modeFlag
 4924 04fd 16       		.uleb128 0x16
 4925 04fe 22000000 		.4byte	.LASF65
 4926 0502 01       		.byte	0x1
 4927 0503 69       		.byte	0x69
 4928 0504 AE000000 		.4byte	0xae
 4929 0508 05       		.uleb128 0x5
 4930 0509 03       		.byte	0x3
 4931 050a 00000000 		.4byte	checkingMode
 4932 050e 16       		.uleb128 0x16
 4933 050f 8E020000 		.4byte	.LASF66
 4934 0513 01       		.byte	0x1
 4935 0514 6A       		.byte	0x6a
 4936 0515 AE000000 		.4byte	0xae
 4937 0519 05       		.uleb128 0x5
 4938 051a 03       		.byte	0x3
 4939 051b 00000000 		.4byte	lastMode
 4940 051f 16       		.uleb128 0x16
 4941 0520 7E030000 		.4byte	.LASF67
 4942 0524 01       		.byte	0x1
 4943 0525 6B       		.byte	0x6b
 4944 0526 8D000000 		.4byte	0x8d
 4945 052a 05       		.uleb128 0x5
 4946 052b 03       		.byte	0x3
 4947 052c 00000000 		.4byte	freqClockDivCounter
 4948 0530 16       		.uleb128 0x16
 4949 0531 00000000 		.4byte	.LASF68
 4950 0535 01       		.byte	0x1
 4951 0536 6C       		.byte	0x6c
 4952 0537 41050000 		.4byte	0x541
 4953 053b 05       		.uleb128 0x5
 4954 053c 03       		.byte	0x3
ARM GAS  C:\Users\silvan\AppData\Local\Temp\ccww2N2V.s 			page 98


 4955 053d 00000000 		.4byte	dice1
 4956 0541 06       		.uleb128 0x6
 4957 0542 CB000000 		.4byte	0xcb
 4958 0546 16       		.uleb128 0x16
 4959 0547 06000000 		.4byte	.LASF69
 4960 054b 01       		.byte	0x1
 4961 054c 6D       		.byte	0x6d
 4962 054d 41050000 		.4byte	0x541
 4963 0551 05       		.uleb128 0x5
 4964 0552 03       		.byte	0x3
 4965 0553 00000000 		.4byte	dice2
 4966 0557 17       		.uleb128 0x17
 4967 0558 AE000000 		.4byte	0xae
 4968 055c 73050000 		.4byte	0x573
 4969 0560 18       		.uleb128 0x18
 4970 0561 BF000000 		.4byte	0xbf
 4971 0565 05       		.byte	0x5
 4972 0566 18       		.uleb128 0x18
 4973 0567 BF000000 		.4byte	0xbf
 4974 056b 07       		.byte	0x7
 4975 056c 18       		.uleb128 0x18
 4976 056d BF000000 		.4byte	0xbf
 4977 0571 07       		.byte	0x7
 4978 0572 00       		.byte	0
 4979 0573 16       		.uleb128 0x16
 4980 0574 9E010000 		.4byte	.LASF70
 4981 0578 01       		.byte	0x1
 4982 0579 70       		.byte	0x70
 4983 057a 84050000 		.4byte	0x584
 4984 057e 05       		.uleb128 0x5
 4985 057f 03       		.byte	0x3
 4986 0580 00000000 		.4byte	cScales
 4987 0584 06       		.uleb128 0x6
 4988 0585 57050000 		.4byte	0x557
 4989 0589 16       		.uleb128 0x16
 4990 058a 1F010000 		.4byte	.LASF71
 4991 058e 01       		.byte	0x1
 4992 058f A9       		.byte	0xa9
 4993 0590 AE000000 		.4byte	0xae
 4994 0594 05       		.uleb128 0x5
 4995 0595 03       		.byte	0x3
 4996 0596 00000000 		.4byte	cScaleGroupSelect
 4997 059a 16       		.uleb128 0x16
 4998 059b 4B030000 		.4byte	.LASF72
 4999 059f 01       		.byte	0x1
 5000 05a0 AA       		.byte	0xaa
 5001 05a1 AB050000 		.4byte	0x5ab
 5002 05a5 05       		.uleb128 0x5
 5003 05a6 03       		.byte	0x3
 5004 05a7 00000000 		.4byte	cScaleGroupsLength
 5005 05ab 07       		.uleb128 0x7
 5006 05ac 81000000 		.4byte	0x81
 5007 05b0 16       		.uleb128 0x16
 5008 05b1 15040000 		.4byte	.LASF73
 5009 05b5 01       		.byte	0x1
 5010 05b6 AB       		.byte	0xab
 5011 05b7 AE000000 		.4byte	0xae
ARM GAS  C:\Users\silvan\AppData\Local\Temp\ccww2N2V.s 			page 99


 5012 05bb 05       		.uleb128 0x5
 5013 05bc 03       		.byte	0x3
 5014 05bd 00000000 		.4byte	cScaleSelect
 5015 05c1 16       		.uleb128 0x16
 5016 05c2 50000000 		.4byte	.LASF74
 5017 05c6 01       		.byte	0x1
 5018 05c7 AC       		.byte	0xac
 5019 05c8 AE000000 		.4byte	0xae
 5020 05cc 05       		.uleb128 0x5
 5021 05cd 03       		.byte	0x3
 5022 05ce 00000000 		.4byte	octaveSelect
 5023 05d2 16       		.uleb128 0x16
 5024 05d3 39000000 		.4byte	.LASF75
 5025 05d7 01       		.byte	0x1
 5026 05d8 AD       		.byte	0xad
 5027 05d9 AE000000 		.4byte	0xae
 5028 05dd 05       		.uleb128 0x5
 5029 05de 03       		.byte	0x3
 5030 05df 00000000 		.4byte	bassOffsetUp
 5031 05e3 16       		.uleb128 0x16
 5032 05e4 75020000 		.4byte	.LASF76
 5033 05e8 01       		.byte	0x1
 5034 05e9 B0       		.byte	0xb0
 5035 05ea B3000000 		.4byte	0xb3
 5036 05ee 05       		.uleb128 0x5
 5037 05ef 03       		.byte	0x3
 5038 05f0 00000000 		.4byte	echoDuration
 5039 05f4 16       		.uleb128 0x16
 5040 05f5 2C020000 		.4byte	.LASF77
 5041 05f9 01       		.byte	0x1
 5042 05fa B1       		.byte	0xb1
 5043 05fb B3000000 		.4byte	0xb3
 5044 05ff 05       		.uleb128 0x5
 5045 0600 03       		.byte	0x3
 5046 0601 00000000 		.4byte	echoDistance
 5047 0605 16       		.uleb128 0x16
 5048 0606 BE010000 		.4byte	.LASF78
 5049 060a 01       		.byte	0x1
 5050 060b B2       		.byte	0xb2
 5051 060c AE000000 		.4byte	0xae
 5052 0610 05       		.uleb128 0x5
 5053 0611 03       		.byte	0x3
 5054 0612 00000000 		.4byte	echoFlag
 5055 0616 16       		.uleb128 0x16
 5056 0617 A6040000 		.4byte	.LASF79
 5057 061b 01       		.byte	0x1
 5058 061c B3       		.byte	0xb3
 5059 061d B3000000 		.4byte	0xb3
 5060 0621 05       		.uleb128 0x5
 5061 0622 03       		.byte	0x3
 5062 0623 00000000 		.4byte	echoTimerPeriod
 5063 0627 16       		.uleb128 0x16
 5064 0628 D4010000 		.4byte	.LASF80
 5065 062c 01       		.byte	0x1
 5066 062d B4       		.byte	0xb4
 5067 062e B3000000 		.4byte	0xb3
 5068 0632 05       		.uleb128 0x5
ARM GAS  C:\Users\silvan\AppData\Local\Temp\ccww2N2V.s 			page 100


 5069 0633 03       		.byte	0x3
 5070 0634 00000000 		.4byte	echoReadCounter
 5071 0638 16       		.uleb128 0x16
 5072 0639 DE020000 		.4byte	.LASF81
 5073 063d 01       		.byte	0x1
 5074 063e B5       		.byte	0xb5
 5075 063f B3000000 		.4byte	0xb3
 5076 0643 05       		.uleb128 0x5
 5077 0644 03       		.byte	0x3
 5078 0645 00000000 		.4byte	echoTuneDelay
 5079 0649 00       		.byte	0
 5080              		.section	.debug_abbrev,"",%progbits
 5081              	.Ldebug_abbrev0:
 5082 0000 01       		.uleb128 0x1
 5083 0001 11       		.uleb128 0x11
 5084 0002 01       		.byte	0x1
 5085 0003 25       		.uleb128 0x25
 5086 0004 0E       		.uleb128 0xe
 5087 0005 13       		.uleb128 0x13
 5088 0006 0B       		.uleb128 0xb
 5089 0007 03       		.uleb128 0x3
 5090 0008 0E       		.uleb128 0xe
 5091 0009 1B       		.uleb128 0x1b
 5092 000a 0E       		.uleb128 0xe
 5093 000b 55       		.uleb128 0x55
 5094 000c 17       		.uleb128 0x17
 5095 000d 11       		.uleb128 0x11
 5096 000e 01       		.uleb128 0x1
 5097 000f 10       		.uleb128 0x10
 5098 0010 17       		.uleb128 0x17
 5099 0011 00       		.byte	0
 5100 0012 00       		.byte	0
 5101 0013 02       		.uleb128 0x2
 5102 0014 24       		.uleb128 0x24
 5103 0015 00       		.byte	0
 5104 0016 0B       		.uleb128 0xb
 5105 0017 0B       		.uleb128 0xb
 5106 0018 3E       		.uleb128 0x3e
 5107 0019 0B       		.uleb128 0xb
 5108 001a 03       		.uleb128 0x3
 5109 001b 0E       		.uleb128 0xe
 5110 001c 00       		.byte	0
 5111 001d 00       		.byte	0
 5112 001e 03       		.uleb128 0x3
 5113 001f 16       		.uleb128 0x16
 5114 0020 00       		.byte	0
 5115 0021 03       		.uleb128 0x3
 5116 0022 0E       		.uleb128 0xe
 5117 0023 3A       		.uleb128 0x3a
 5118 0024 0B       		.uleb128 0xb
 5119 0025 3B       		.uleb128 0x3b
 5120 0026 0B       		.uleb128 0xb
 5121 0027 49       		.uleb128 0x49
 5122 0028 13       		.uleb128 0x13
 5123 0029 00       		.byte	0
 5124 002a 00       		.byte	0
 5125 002b 04       		.uleb128 0x4
ARM GAS  C:\Users\silvan\AppData\Local\Temp\ccww2N2V.s 			page 101


 5126 002c 24       		.uleb128 0x24
 5127 002d 00       		.byte	0
 5128 002e 0B       		.uleb128 0xb
 5129 002f 0B       		.uleb128 0xb
 5130 0030 3E       		.uleb128 0x3e
 5131 0031 0B       		.uleb128 0xb
 5132 0032 03       		.uleb128 0x3
 5133 0033 08       		.uleb128 0x8
 5134 0034 00       		.byte	0
 5135 0035 00       		.byte	0
 5136 0036 05       		.uleb128 0x5
 5137 0037 16       		.uleb128 0x16
 5138 0038 00       		.byte	0
 5139 0039 03       		.uleb128 0x3
 5140 003a 0E       		.uleb128 0xe
 5141 003b 3A       		.uleb128 0x3a
 5142 003c 0B       		.uleb128 0xb
 5143 003d 3B       		.uleb128 0x3b
 5144 003e 05       		.uleb128 0x5
 5145 003f 49       		.uleb128 0x49
 5146 0040 13       		.uleb128 0x13
 5147 0041 00       		.byte	0
 5148 0042 00       		.byte	0
 5149 0043 06       		.uleb128 0x6
 5150 0044 35       		.uleb128 0x35
 5151 0045 00       		.byte	0
 5152 0046 49       		.uleb128 0x49
 5153 0047 13       		.uleb128 0x13
 5154 0048 00       		.byte	0
 5155 0049 00       		.byte	0
 5156 004a 07       		.uleb128 0x7
 5157 004b 26       		.uleb128 0x26
 5158 004c 00       		.byte	0
 5159 004d 49       		.uleb128 0x49
 5160 004e 13       		.uleb128 0x13
 5161 004f 00       		.byte	0
 5162 0050 00       		.byte	0
 5163 0051 08       		.uleb128 0x8
 5164 0052 2E       		.uleb128 0x2e
 5165 0053 00       		.byte	0
 5166 0054 3F       		.uleb128 0x3f
 5167 0055 19       		.uleb128 0x19
 5168 0056 03       		.uleb128 0x3
 5169 0057 0E       		.uleb128 0xe
 5170 0058 3A       		.uleb128 0x3a
 5171 0059 0B       		.uleb128 0xb
 5172 005a 3B       		.uleb128 0x3b
 5173 005b 0B       		.uleb128 0xb
 5174 005c 11       		.uleb128 0x11
 5175 005d 01       		.uleb128 0x1
 5176 005e 12       		.uleb128 0x12
 5177 005f 06       		.uleb128 0x6
 5178 0060 40       		.uleb128 0x40
 5179 0061 18       		.uleb128 0x18
 5180 0062 9642     		.uleb128 0x2116
 5181 0064 19       		.uleb128 0x19
 5182 0065 00       		.byte	0
ARM GAS  C:\Users\silvan\AppData\Local\Temp\ccww2N2V.s 			page 102


 5183 0066 00       		.byte	0
 5184 0067 09       		.uleb128 0x9
 5185 0068 2E       		.uleb128 0x2e
 5186 0069 01       		.byte	0x1
 5187 006a 3F       		.uleb128 0x3f
 5188 006b 19       		.uleb128 0x19
 5189 006c 03       		.uleb128 0x3
 5190 006d 0E       		.uleb128 0xe
 5191 006e 3A       		.uleb128 0x3a
 5192 006f 0B       		.uleb128 0xb
 5193 0070 3B       		.uleb128 0x3b
 5194 0071 0B       		.uleb128 0xb
 5195 0072 11       		.uleb128 0x11
 5196 0073 01       		.uleb128 0x1
 5197 0074 12       		.uleb128 0x12
 5198 0075 06       		.uleb128 0x6
 5199 0076 40       		.uleb128 0x40
 5200 0077 18       		.uleb128 0x18
 5201 0078 9642     		.uleb128 0x2116
 5202 007a 19       		.uleb128 0x19
 5203 007b 01       		.uleb128 0x1
 5204 007c 13       		.uleb128 0x13
 5205 007d 00       		.byte	0
 5206 007e 00       		.byte	0
 5207 007f 0A       		.uleb128 0xa
 5208 0080 0B       		.uleb128 0xb
 5209 0081 01       		.byte	0x1
 5210 0082 11       		.uleb128 0x11
 5211 0083 01       		.uleb128 0x1
 5212 0084 12       		.uleb128 0x12
 5213 0085 06       		.uleb128 0x6
 5214 0086 00       		.byte	0
 5215 0087 00       		.byte	0
 5216 0088 0B       		.uleb128 0xb
 5217 0089 34       		.uleb128 0x34
 5218 008a 00       		.byte	0
 5219 008b 03       		.uleb128 0x3
 5220 008c 08       		.uleb128 0x8
 5221 008d 3A       		.uleb128 0x3a
 5222 008e 0B       		.uleb128 0xb
 5223 008f 3B       		.uleb128 0x3b
 5224 0090 0B       		.uleb128 0xb
 5225 0091 49       		.uleb128 0x49
 5226 0092 13       		.uleb128 0x13
 5227 0093 02       		.uleb128 0x2
 5228 0094 18       		.uleb128 0x18
 5229 0095 00       		.byte	0
 5230 0096 00       		.byte	0
 5231 0097 0C       		.uleb128 0xc
 5232 0098 2E       		.uleb128 0x2e
 5233 0099 01       		.byte	0x1
 5234 009a 3F       		.uleb128 0x3f
 5235 009b 19       		.uleb128 0x19
 5236 009c 03       		.uleb128 0x3
 5237 009d 0E       		.uleb128 0xe
 5238 009e 3A       		.uleb128 0x3a
 5239 009f 0B       		.uleb128 0xb
ARM GAS  C:\Users\silvan\AppData\Local\Temp\ccww2N2V.s 			page 103


 5240 00a0 3B       		.uleb128 0x3b
 5241 00a1 0B       		.uleb128 0xb
 5242 00a2 27       		.uleb128 0x27
 5243 00a3 19       		.uleb128 0x19
 5244 00a4 11       		.uleb128 0x11
 5245 00a5 01       		.uleb128 0x1
 5246 00a6 12       		.uleb128 0x12
 5247 00a7 06       		.uleb128 0x6
 5248 00a8 40       		.uleb128 0x40
 5249 00a9 18       		.uleb128 0x18
 5250 00aa 9642     		.uleb128 0x2116
 5251 00ac 19       		.uleb128 0x19
 5252 00ad 01       		.uleb128 0x1
 5253 00ae 13       		.uleb128 0x13
 5254 00af 00       		.byte	0
 5255 00b0 00       		.byte	0
 5256 00b1 0D       		.uleb128 0xd
 5257 00b2 05       		.uleb128 0x5
 5258 00b3 00       		.byte	0
 5259 00b4 03       		.uleb128 0x3
 5260 00b5 0E       		.uleb128 0xe
 5261 00b6 3A       		.uleb128 0x3a
 5262 00b7 0B       		.uleb128 0xb
 5263 00b8 3B       		.uleb128 0x3b
 5264 00b9 0B       		.uleb128 0xb
 5265 00ba 49       		.uleb128 0x49
 5266 00bb 13       		.uleb128 0x13
 5267 00bc 02       		.uleb128 0x2
 5268 00bd 18       		.uleb128 0x18
 5269 00be 00       		.byte	0
 5270 00bf 00       		.byte	0
 5271 00c0 0E       		.uleb128 0xe
 5272 00c1 34       		.uleb128 0x34
 5273 00c2 00       		.byte	0
 5274 00c3 03       		.uleb128 0x3
 5275 00c4 08       		.uleb128 0x8
 5276 00c5 3A       		.uleb128 0x3a
 5277 00c6 0B       		.uleb128 0xb
 5278 00c7 3B       		.uleb128 0x3b
 5279 00c8 05       		.uleb128 0x5
 5280 00c9 49       		.uleb128 0x49
 5281 00ca 13       		.uleb128 0x13
 5282 00cb 02       		.uleb128 0x2
 5283 00cc 18       		.uleb128 0x18
 5284 00cd 00       		.byte	0
 5285 00ce 00       		.byte	0
 5286 00cf 0F       		.uleb128 0xf
 5287 00d0 2E       		.uleb128 0x2e
 5288 00d1 01       		.byte	0x1
 5289 00d2 3F       		.uleb128 0x3f
 5290 00d3 19       		.uleb128 0x19
 5291 00d4 03       		.uleb128 0x3
 5292 00d5 0E       		.uleb128 0xe
 5293 00d6 3A       		.uleb128 0x3a
 5294 00d7 0B       		.uleb128 0xb
 5295 00d8 3B       		.uleb128 0x3b
 5296 00d9 05       		.uleb128 0x5
ARM GAS  C:\Users\silvan\AppData\Local\Temp\ccww2N2V.s 			page 104


 5297 00da 27       		.uleb128 0x27
 5298 00db 19       		.uleb128 0x19
 5299 00dc 11       		.uleb128 0x11
 5300 00dd 01       		.uleb128 0x1
 5301 00de 12       		.uleb128 0x12
 5302 00df 06       		.uleb128 0x6
 5303 00e0 40       		.uleb128 0x40
 5304 00e1 18       		.uleb128 0x18
 5305 00e2 9642     		.uleb128 0x2116
 5306 00e4 19       		.uleb128 0x19
 5307 00e5 01       		.uleb128 0x1
 5308 00e6 13       		.uleb128 0x13
 5309 00e7 00       		.byte	0
 5310 00e8 00       		.byte	0
 5311 00e9 10       		.uleb128 0x10
 5312 00ea 05       		.uleb128 0x5
 5313 00eb 00       		.byte	0
 5314 00ec 03       		.uleb128 0x3
 5315 00ed 0E       		.uleb128 0xe
 5316 00ee 3A       		.uleb128 0x3a
 5317 00ef 0B       		.uleb128 0xb
 5318 00f0 3B       		.uleb128 0x3b
 5319 00f1 05       		.uleb128 0x5
 5320 00f2 49       		.uleb128 0x49
 5321 00f3 13       		.uleb128 0x13
 5322 00f4 02       		.uleb128 0x2
 5323 00f5 18       		.uleb128 0x18
 5324 00f6 00       		.byte	0
 5325 00f7 00       		.byte	0
 5326 00f8 11       		.uleb128 0x11
 5327 00f9 2E       		.uleb128 0x2e
 5328 00fa 01       		.byte	0x1
 5329 00fb 3F       		.uleb128 0x3f
 5330 00fc 19       		.uleb128 0x19
 5331 00fd 03       		.uleb128 0x3
 5332 00fe 0E       		.uleb128 0xe
 5333 00ff 3A       		.uleb128 0x3a
 5334 0100 0B       		.uleb128 0xb
 5335 0101 3B       		.uleb128 0x3b
 5336 0102 05       		.uleb128 0x5
 5337 0103 49       		.uleb128 0x49
 5338 0104 13       		.uleb128 0x13
 5339 0105 11       		.uleb128 0x11
 5340 0106 01       		.uleb128 0x1
 5341 0107 12       		.uleb128 0x12
 5342 0108 06       		.uleb128 0x6
 5343 0109 40       		.uleb128 0x40
 5344 010a 18       		.uleb128 0x18
 5345 010b 9642     		.uleb128 0x2116
 5346 010d 19       		.uleb128 0x19
 5347 010e 01       		.uleb128 0x1
 5348 010f 13       		.uleb128 0x13
 5349 0110 00       		.byte	0
 5350 0111 00       		.byte	0
 5351 0112 12       		.uleb128 0x12
 5352 0113 34       		.uleb128 0x34
 5353 0114 00       		.byte	0
ARM GAS  C:\Users\silvan\AppData\Local\Temp\ccww2N2V.s 			page 105


 5354 0115 03       		.uleb128 0x3
 5355 0116 0E       		.uleb128 0xe
 5356 0117 3A       		.uleb128 0x3a
 5357 0118 0B       		.uleb128 0xb
 5358 0119 3B       		.uleb128 0x3b
 5359 011a 05       		.uleb128 0x5
 5360 011b 49       		.uleb128 0x49
 5361 011c 13       		.uleb128 0x13
 5362 011d 02       		.uleb128 0x2
 5363 011e 18       		.uleb128 0x18
 5364 011f 00       		.byte	0
 5365 0120 00       		.byte	0
 5366 0121 13       		.uleb128 0x13
 5367 0122 2E       		.uleb128 0x2e
 5368 0123 00       		.byte	0
 5369 0124 3F       		.uleb128 0x3f
 5370 0125 19       		.uleb128 0x19
 5371 0126 03       		.uleb128 0x3
 5372 0127 0E       		.uleb128 0xe
 5373 0128 3A       		.uleb128 0x3a
 5374 0129 0B       		.uleb128 0xb
 5375 012a 3B       		.uleb128 0x3b
 5376 012b 05       		.uleb128 0x5
 5377 012c 27       		.uleb128 0x27
 5378 012d 19       		.uleb128 0x19
 5379 012e 11       		.uleb128 0x11
 5380 012f 01       		.uleb128 0x1
 5381 0130 12       		.uleb128 0x12
 5382 0131 06       		.uleb128 0x6
 5383 0132 40       		.uleb128 0x40
 5384 0133 18       		.uleb128 0x18
 5385 0134 9742     		.uleb128 0x2117
 5386 0136 19       		.uleb128 0x19
 5387 0137 00       		.byte	0
 5388 0138 00       		.byte	0
 5389 0139 14       		.uleb128 0x14
 5390 013a 2E       		.uleb128 0x2e
 5391 013b 00       		.byte	0
 5392 013c 3F       		.uleb128 0x3f
 5393 013d 19       		.uleb128 0x19
 5394 013e 03       		.uleb128 0x3
 5395 013f 0E       		.uleb128 0xe
 5396 0140 3A       		.uleb128 0x3a
 5397 0141 0B       		.uleb128 0xb
 5398 0142 3B       		.uleb128 0x3b
 5399 0143 05       		.uleb128 0x5
 5400 0144 27       		.uleb128 0x27
 5401 0145 19       		.uleb128 0x19
 5402 0146 11       		.uleb128 0x11
 5403 0147 01       		.uleb128 0x1
 5404 0148 12       		.uleb128 0x12
 5405 0149 06       		.uleb128 0x6
 5406 014a 40       		.uleb128 0x40
 5407 014b 18       		.uleb128 0x18
 5408 014c 9642     		.uleb128 0x2116
 5409 014e 19       		.uleb128 0x19
 5410 014f 00       		.byte	0
ARM GAS  C:\Users\silvan\AppData\Local\Temp\ccww2N2V.s 			page 106


 5411 0150 00       		.byte	0
 5412 0151 15       		.uleb128 0x15
 5413 0152 34       		.uleb128 0x34
 5414 0153 00       		.byte	0
 5415 0154 03       		.uleb128 0x3
 5416 0155 0E       		.uleb128 0xe
 5417 0156 3A       		.uleb128 0x3a
 5418 0157 0B       		.uleb128 0xb
 5419 0158 3B       		.uleb128 0x3b
 5420 0159 05       		.uleb128 0x5
 5421 015a 49       		.uleb128 0x49
 5422 015b 13       		.uleb128 0x13
 5423 015c 3F       		.uleb128 0x3f
 5424 015d 19       		.uleb128 0x19
 5425 015e 3C       		.uleb128 0x3c
 5426 015f 19       		.uleb128 0x19
 5427 0160 00       		.byte	0
 5428 0161 00       		.byte	0
 5429 0162 16       		.uleb128 0x16
 5430 0163 34       		.uleb128 0x34
 5431 0164 00       		.byte	0
 5432 0165 03       		.uleb128 0x3
 5433 0166 0E       		.uleb128 0xe
 5434 0167 3A       		.uleb128 0x3a
 5435 0168 0B       		.uleb128 0xb
 5436 0169 3B       		.uleb128 0x3b
 5437 016a 0B       		.uleb128 0xb
 5438 016b 49       		.uleb128 0x49
 5439 016c 13       		.uleb128 0x13
 5440 016d 3F       		.uleb128 0x3f
 5441 016e 19       		.uleb128 0x19
 5442 016f 02       		.uleb128 0x2
 5443 0170 18       		.uleb128 0x18
 5444 0171 00       		.byte	0
 5445 0172 00       		.byte	0
 5446 0173 17       		.uleb128 0x17
 5447 0174 01       		.uleb128 0x1
 5448 0175 01       		.byte	0x1
 5449 0176 49       		.uleb128 0x49
 5450 0177 13       		.uleb128 0x13
 5451 0178 01       		.uleb128 0x1
 5452 0179 13       		.uleb128 0x13
 5453 017a 00       		.byte	0
 5454 017b 00       		.byte	0
 5455 017c 18       		.uleb128 0x18
 5456 017d 21       		.uleb128 0x21
 5457 017e 00       		.byte	0
 5458 017f 49       		.uleb128 0x49
 5459 0180 13       		.uleb128 0x13
 5460 0181 2F       		.uleb128 0x2f
 5461 0182 0B       		.uleb128 0xb
 5462 0183 00       		.byte	0
 5463 0184 00       		.byte	0
 5464 0185 19       		.uleb128 0x19
 5465 0186 21       		.uleb128 0x21
 5466 0187 00       		.byte	0
 5467 0188 49       		.uleb128 0x49
ARM GAS  C:\Users\silvan\AppData\Local\Temp\ccww2N2V.s 			page 107


 5468 0189 13       		.uleb128 0x13
 5469 018a 2F       		.uleb128 0x2f
 5470 018b 05       		.uleb128 0x5
 5471 018c 00       		.byte	0
 5472 018d 00       		.byte	0
 5473 018e 00       		.byte	0
 5474              		.section	.debug_aranges,"",%progbits
 5475 0000 94000000 		.4byte	0x94
 5476 0004 0200     		.2byte	0x2
 5477 0006 00000000 		.4byte	.Ldebug_info0
 5478 000a 04       		.byte	0x4
 5479 000b 00       		.byte	0
 5480 000c 0000     		.2byte	0
 5481 000e 0000     		.2byte	0
 5482 0010 00000000 		.4byte	.LFB64
 5483 0014 0C010000 		.4byte	.LFE64-.LFB64
 5484 0018 00000000 		.4byte	.LFB65
 5485 001c 5C010000 		.4byte	.LFE65-.LFB65
 5486 0020 00000000 		.4byte	.LFB66
 5487 0024 00010000 		.4byte	.LFE66-.LFB66
 5488 0028 00000000 		.4byte	.LFB67
 5489 002c 64030000 		.4byte	.LFE67-.LFB67
 5490 0030 00000000 		.4byte	.LFB68
 5491 0034 D4000000 		.4byte	.LFE68-.LFB68
 5492 0038 00000000 		.4byte	.LFB69
 5493 003c 50030000 		.4byte	.LFE69-.LFB69
 5494 0040 00000000 		.4byte	.LFB70
 5495 0044 18000000 		.4byte	.LFE70-.LFB70
 5496 0048 00000000 		.4byte	.LFB71
 5497 004c 18000000 		.4byte	.LFE71-.LFB71
 5498 0050 00000000 		.4byte	.LFB72
 5499 0054 18000000 		.4byte	.LFE72-.LFB72
 5500 0058 00000000 		.4byte	.LFB73
 5501 005c 18000000 		.4byte	.LFE73-.LFB73
 5502 0060 00000000 		.4byte	.LFB74
 5503 0064 18000000 		.4byte	.LFE74-.LFB74
 5504 0068 00000000 		.4byte	.LFB75
 5505 006c 18000000 		.4byte	.LFE75-.LFB75
 5506 0070 00000000 		.4byte	.LFB76
 5507 0074 18000000 		.4byte	.LFE76-.LFB76
 5508 0078 00000000 		.4byte	.LFB77
 5509 007c 18000000 		.4byte	.LFE77-.LFB77
 5510 0080 00000000 		.4byte	.LFB78
 5511 0084 38000000 		.4byte	.LFE78-.LFB78
 5512 0088 00000000 		.4byte	.LFB79
 5513 008c 18000000 		.4byte	.LFE79-.LFB79
 5514 0090 00000000 		.4byte	0
 5515 0094 00000000 		.4byte	0
 5516              		.section	.debug_ranges,"",%progbits
 5517              	.Ldebug_ranges0:
 5518 0000 00000000 		.4byte	.LFB64
 5519 0004 0C010000 		.4byte	.LFE64
 5520 0008 00000000 		.4byte	.LFB65
 5521 000c 5C010000 		.4byte	.LFE65
 5522 0010 00000000 		.4byte	.LFB66
 5523 0014 00010000 		.4byte	.LFE66
 5524 0018 00000000 		.4byte	.LFB67
ARM GAS  C:\Users\silvan\AppData\Local\Temp\ccww2N2V.s 			page 108


 5525 001c 64030000 		.4byte	.LFE67
 5526 0020 00000000 		.4byte	.LFB68
 5527 0024 D4000000 		.4byte	.LFE68
 5528 0028 00000000 		.4byte	.LFB69
 5529 002c 50030000 		.4byte	.LFE69
 5530 0030 00000000 		.4byte	.LFB70
 5531 0034 18000000 		.4byte	.LFE70
 5532 0038 00000000 		.4byte	.LFB71
 5533 003c 18000000 		.4byte	.LFE71
 5534 0040 00000000 		.4byte	.LFB72
 5535 0044 18000000 		.4byte	.LFE72
 5536 0048 00000000 		.4byte	.LFB73
 5537 004c 18000000 		.4byte	.LFE73
 5538 0050 00000000 		.4byte	.LFB74
 5539 0054 18000000 		.4byte	.LFE74
 5540 0058 00000000 		.4byte	.LFB75
 5541 005c 18000000 		.4byte	.LFE75
 5542 0060 00000000 		.4byte	.LFB76
 5543 0064 18000000 		.4byte	.LFE76
 5544 0068 00000000 		.4byte	.LFB77
 5545 006c 18000000 		.4byte	.LFE77
 5546 0070 00000000 		.4byte	.LFB78
 5547 0074 38000000 		.4byte	.LFE78
 5548 0078 00000000 		.4byte	.LFB79
 5549 007c 18000000 		.4byte	.LFE79
 5550 0080 00000000 		.4byte	0
 5551 0084 00000000 		.4byte	0
 5552              		.section	.debug_line,"",%progbits
 5553              	.Ldebug_line0:
 5554 0000 DF030000 		.section	.debug_str,"MS",%progbits,1
 5554      02005701 
 5554      00000201 
 5554      FB0E0D00 
 5554      01010101 
 5555              	.LASF68:
 5556 0000 64696365 		.ascii	"dice1\000"
 5556      3100
 5557              	.LASF69:
 5558 0006 64696365 		.ascii	"dice2\000"
 5558      3200
 5559              	.LASF21:
 5560 000c 706C6179 		.ascii	"playRangeDelay\000"
 5560      52616E67 
 5560      6544656C 
 5560      617900
 5561              	.LASF26:
 5562 001b 79496E70 		.ascii	"yInput\000"
 5562      757400
 5563              	.LASF65:
 5564 0022 63686563 		.ascii	"checkingMode\000"
 5564      6B696E67 
 5564      4D6F6465 
 5564      00
 5565              	.LASF85:
 5566 002f 6D6F6465 		.ascii	"modecheck\000"
 5566      63686563 
 5566      6B00
ARM GAS  C:\Users\silvan\AppData\Local\Temp\ccww2N2V.s 			page 109


 5567              	.LASF75:
 5568 0039 62617373 		.ascii	"bassOffsetUp\000"
 5568      4F666673 
 5568      65745570 
 5568      00
 5569              	.LASF2:
 5570 0046 73686F72 		.ascii	"short int\000"
 5570      7420696E 
 5570      7400
 5571              	.LASF74:
 5572 0050 6F637461 		.ascii	"octaveSelect\000"
 5572      76655365 
 5572      6C656374 
 5572      00
 5573              	.LASF17:
 5574 005d 73697A65 		.ascii	"sizetype\000"
 5574      74797065 
 5574      00
 5575              	.LASF24:
 5576 0066 706C6179 		.ascii	"playRange\000"
 5576      52616E67 
 5576      6500
 5577              	.LASF45:
 5578 0070 61646346 		.ascii	"adcFlag\000"
 5578      6C616700 
 5579              	.LASF43:
 5580 0078 616E616C 		.ascii	"analogBut\000"
 5580      6F674275 
 5580      7400
 5581              	.LASF82:
 5582 0082 474E5520 		.ascii	"GNU C11 5.4.1 20160609 (release) [ARM/embedded-5-br"
 5582      43313120 
 5582      352E342E 
 5582      31203230 
 5582      31363036 
 5583 00b5 616E6368 		.ascii	"anch revision 237715] -mcpu=cortex-m3 -mthumb -g -O"
 5583      20726576 
 5583      6973696F 
 5583      6E203233 
 5583      37373135 
 5584 00e8 30202D66 		.ascii	"0 -ffunction-sections -ffat-lto-objects\000"
 5584      66756E63 
 5584      74696F6E 
 5584      2D736563 
 5584      74696F6E 
 5585              	.LASF27:
 5586 0110 6D61696E 		.ascii	"main\000"
 5586      00
 5587              	.LASF63:
 5588 0115 6D6F6465 		.ascii	"mode\000"
 5588      00
 5589              	.LASF18:
 5590 011a 75696E74 		.ascii	"uint\000"
 5590      00
 5591              	.LASF71:
 5592 011f 63536361 		.ascii	"cScaleGroupSelect\000"
 5592      6C654772 
ARM GAS  C:\Users\silvan\AppData\Local\Temp\ccww2N2V.s 			page 110


 5592      6F757053 
 5592      656C6563 
 5592      7400
 5593              	.LASF84:
 5594 0131 433A5C55 		.ascii	"C:\\Users\\silvan\\OneDrive\\Dokumente\\PSoC Creato"
 5594      73657273 
 5594      5C73696C 
 5594      76616E5C 
 5594      4F6E6544 
 5595 015f 725C5053 		.ascii	"r\\PSoC_Audio_MIDI\\PSoC_Audio_MIDI\\PSoC_Audio_MID"
 5595      6F435F41 
 5595      7564696F 
 5595      5F4D4944 
 5595      495C5053 
 5596 018f 492E6379 		.ascii	"I.cydsn\000"
 5596      64736E00 
 5597              	.LASF12:
 5598 0197 75696E74 		.ascii	"uint16\000"
 5598      313600
 5599              	.LASF70:
 5600 019e 63536361 		.ascii	"cScales\000"
 5600      6C657300 
 5601              	.LASF19:
 5602 01a6 6D696E49 		.ascii	"minIndex\000"
 5602      6E646578 
 5602      00
 5603              	.LASF64:
 5604 01af 6D6F6465 		.ascii	"modeFlag\000"
 5604      466C6167 
 5604      00
 5605              	.LASF11:
 5606 01b8 75696E74 		.ascii	"uint8\000"
 5606      3800
 5607              	.LASF78:
 5608 01be 6563686F 		.ascii	"echoFlag\000"
 5608      466C6167 
 5608      00
 5609              	.LASF50:
 5610 01c7 74726961 		.ascii	"trianglewave\000"
 5610      6E676C65 
 5610      77617665 
 5610      00
 5611              	.LASF80:
 5612 01d4 6563686F 		.ascii	"echoReadCounter\000"
 5612      52656164 
 5612      436F756E 
 5612      74657200 
 5613              	.LASF13:
 5614 01e4 666C6F61 		.ascii	"float\000"
 5614      7400
 5615              	.LASF59:
 5616 01ea 66726571 		.ascii	"freq\000"
 5616      00
 5617              	.LASF6:
 5618 01ef 6C6F6E67 		.ascii	"long long int\000"
 5618      206C6F6E 
 5618      6720696E 
ARM GAS  C:\Users\silvan\AppData\Local\Temp\ccww2N2V.s 			page 111


 5618      7400
 5619              	.LASF7:
 5620 01fd 6C6F6E67 		.ascii	"long long unsigned int\000"
 5620      206C6F6E 
 5620      6720756E 
 5620      7369676E 
 5620      65642069 
 5621              	.LASF51:
 5622 0214 73696E65 		.ascii	"sinewave\000"
 5622      77617665 
 5622      00
 5623              	.LASF4:
 5624 021d 6C6F6E67 		.ascii	"long int\000"
 5624      20696E74 
 5624      00
 5625              	.LASF53:
 5626 0226 6E6F7465 		.ascii	"notes\000"
 5626      7300
 5627              	.LASF77:
 5628 022c 6563686F 		.ascii	"echoDistance\000"
 5628      44697374 
 5628      616E6365 
 5628      00
 5629              	.LASF30:
 5630 0239 6164635F 		.ascii	"adc_isr_vect\000"
 5630      6973725F 
 5630      76656374 
 5630      00
 5631              	.LASF44:
 5632 0246 6D757843 		.ascii	"muxChannel\000"
 5632      68616E6E 
 5632      656C00
 5633              	.LASF47:
 5634 0251 6F6C6459 		.ascii	"oldYinput\000"
 5634      696E7075 
 5634      7400
 5635              	.LASF1:
 5636 025b 756E7369 		.ascii	"unsigned char\000"
 5636      676E6564 
 5636      20636861 
 5636      7200
 5637              	.LASF16:
 5638 0269 6C6F6E67 		.ascii	"long double\000"
 5638      20646F75 
 5638      626C6500 
 5639              	.LASF76:
 5640 0275 6563686F 		.ascii	"echoDuration\000"
 5640      44757261 
 5640      74696F6E 
 5640      00
 5641              	.LASF0:
 5642 0282 7369676E 		.ascii	"signed char\000"
 5642      65642063 
 5642      68617200 
 5643              	.LASF66:
 5644 028e 6C617374 		.ascii	"lastMode\000"
 5644      4D6F6465 
ARM GAS  C:\Users\silvan\AppData\Local\Temp\ccww2N2V.s 			page 112


 5644      00
 5645              	.LASF8:
 5646 0297 756E7369 		.ascii	"unsigned int\000"
 5646      676E6564 
 5646      20696E74 
 5646      00
 5647              	.LASF58:
 5648 02a4 7472616E 		.ascii	"transmitBuffer\000"
 5648      736D6974 
 5648      42756666 
 5648      657200
 5649              	.LASF57:
 5650 02b3 6F6E4F66 		.ascii	"onOffCount\000"
 5650      66436F75 
 5650      6E7400
 5651              	.LASF3:
 5652 02be 73686F72 		.ascii	"short unsigned int\000"
 5652      7420756E 
 5652      7369676E 
 5652      65642069 
 5652      6E7400
 5653              	.LASF37:
 5654 02d1 75736572 		.ascii	"userEcho_ISR\000"
 5654      4563686F 
 5654      5F495352 
 5654      00
 5655              	.LASF81:
 5656 02de 6563686F 		.ascii	"echoTuneDelay\000"
 5656      54756E65 
 5656      44656C61 
 5656      7900
 5657              	.LASF15:
 5658 02ec 63686172 		.ascii	"char\000"
 5658      00
 5659              	.LASF39:
 5660 02f1 49544D5F 		.ascii	"ITM_RxBuffer\000"
 5660      52784275 
 5660      66666572 
 5660      00
 5661              	.LASF10:
 5662 02fe 696E7433 		.ascii	"int32_t\000"
 5662      325F7400 
 5663              	.LASF52:
 5664 0306 77617665 		.ascii	"waveMode\000"
 5664      4D6F6465 
 5664      00
 5665              	.LASF35:
 5666 030f 62757433 		.ascii	"but3_isr_pos_vect\000"
 5666      5F697372 
 5666      5F706F73 
 5666      5F766563 
 5666      7400
 5667              	.LASF61:
 5668 0321 6E6F7465 		.ascii	"note\000"
 5668      00
 5669              	.LASF29:
 5670 0326 616E616C 		.ascii	"analogBut_isr_vect\000"
ARM GAS  C:\Users\silvan\AppData\Local\Temp\ccww2N2V.s 			page 113


 5670      6F674275 
 5670      745F6973 
 5670      725F7665 
 5670      637400
 5671              	.LASF38:
 5672 0339 75736572 		.ascii	"userModeTimer_ISR\000"
 5672      4D6F6465 
 5672      54696D65 
 5672      725F4953 
 5672      5200
 5673              	.LASF72:
 5674 034b 63536361 		.ascii	"cScaleGroupsLength\000"
 5674      6C654772 
 5674      6F757073 
 5674      4C656E67 
 5674      746800
 5675              	.LASF83:
 5676 035e 6D61696E 		.ascii	"main.c\000"
 5676      2E6300
 5677              	.LASF5:
 5678 0365 6C6F6E67 		.ascii	"long unsigned int\000"
 5678      20756E73 
 5678      69676E65 
 5678      6420696E 
 5678      7400
 5679              	.LASF14:
 5680 0377 646F7562 		.ascii	"double\000"
 5680      6C6500
 5681              	.LASF67:
 5682 037e 66726571 		.ascii	"freqClockDivCounter\000"
 5682      436C6F63 
 5682      6B446976 
 5682      436F756E 
 5682      74657200 
 5683              	.LASF60:
 5684 0392 696E7446 		.ascii	"intFreq\000"
 5684      72657100 
 5685              	.LASF22:
 5686 039a 6C6F6E67 		.ascii	"longSweep\000"
 5686      53776565 
 5686      7000
 5687              	.LASF36:
 5688 03a4 62757433 		.ascii	"but3_isr_neg_vect\000"
 5688      5F697372 
 5688      5F6E6567 
 5688      5F766563 
 5688      7400
 5689              	.LASF28:
 5690 03b6 616E616C 		.ascii	"analogRead\000"
 5690      6F675265 
 5690      616400
 5691              	.LASF34:
 5692 03c1 62757432 		.ascii	"but2_isr_neg_vect\000"
 5692      5F697372 
 5692      5F6E6567 
 5692      5F766563 
 5692      7400
ARM GAS  C:\Users\silvan\AppData\Local\Temp\ccww2N2V.s 			page 114


 5693              	.LASF48:
 5694 03d3 616E616C 		.ascii	"analogButFlag\000"
 5694      6F674275 
 5694      74466C61 
 5694      6700
 5695              	.LASF33:
 5696 03e1 62757432 		.ascii	"but2_isr_pos_vect\000"
 5696      5F697372 
 5696      5F706F73 
 5696      5F766563 
 5696      7400
 5697              	.LASF9:
 5698 03f3 5F5F696E 		.ascii	"__int32_t\000"
 5698      7433325F 
 5698      7400
 5699              	.LASF40:
 5700 03fd 62757474 		.ascii	"button1\000"
 5700      6F6E3100 
 5701              	.LASF41:
 5702 0405 62757474 		.ascii	"button2\000"
 5702      6F6E3200 
 5703              	.LASF42:
 5704 040d 62757474 		.ascii	"button3\000"
 5704      6F6E3300 
 5705              	.LASF73:
 5706 0415 63536361 		.ascii	"cScaleSelect\000"
 5706      6C655365 
 5706      6C656374 
 5706      00
 5707              	.LASF55:
 5708 0422 66726571 		.ascii	"frequency\000"
 5708      75656E63 
 5708      7900
 5709              	.LASF25:
 5710 042c 77617665 		.ascii	"waveSelect\000"
 5710      53656C65 
 5710      637400
 5711              	.LASF20:
 5712 0437 6D617849 		.ascii	"maxIndex\000"
 5712      6E646578 
 5712      00
 5713              	.LASF23:
 5714 0440 64697374 		.ascii	"distanceEchoPitch\000"
 5714      616E6365 
 5714      4563686F 
 5714      50697463 
 5714      6800
 5715              	.LASF62:
 5716 0452 6E6F7465 		.ascii	"noteIndex\000"
 5716      496E6465 
 5716      7800
 5717              	.LASF32:
 5718 045c 62757431 		.ascii	"but1_isr_neg_vect\000"
 5718      5F697372 
 5718      5F6E6567 
 5718      5F766563 
 5718      7400
ARM GAS  C:\Users\silvan\AppData\Local\Temp\ccww2N2V.s 			page 115


 5719              	.LASF54:
 5720 046e 696E7446 		.ascii	"intFrequency\000"
 5720      72657175 
 5720      656E6379 
 5720      00
 5721              	.LASF46:
 5722 047b 70697463 		.ascii	"pitch\000"
 5722      6800
 5723              	.LASF31:
 5724 0481 62757431 		.ascii	"but1_isr_pos_vect\000"
 5724      5F697372 
 5724      5F706F73 
 5724      5F766563 
 5724      7400
 5725              	.LASF49:
 5726 0493 73717561 		.ascii	"squarewave\000"
 5726      72657761 
 5726      766500
 5727              	.LASF56:
 5728 049e 64656C61 		.ascii	"delayMS\000"
 5728      794D5300 
 5729              	.LASF79:
 5730 04a6 6563686F 		.ascii	"echoTimerPeriod\000"
 5730      54696D65 
 5730      72506572 
 5730      696F6400 
 5731              		.ident	"GCC: (GNU Tools for ARM Embedded Processors) 5.4.1 20160609 (release) [ARM/embedded-5-bran
