ARM GAS  C:\Users\mariu\AppData\Local\Temp\ccmFU017.s 			page 1


   1              		.syntax unified
   2              		.cpu cortex-m3
   3              		.fpu softvfp
   4              		.eabi_attribute 20, 1
   5              		.eabi_attribute 21, 1
   6              		.eabi_attribute 23, 3
   7              		.eabi_attribute 24, 1
   8              		.eabi_attribute 25, 1
   9              		.eabi_attribute 26, 1
  10              		.eabi_attribute 30, 6
  11              		.eabi_attribute 34, 1
  12              		.eabi_attribute 18, 4
  13              		.thumb
  14              		.syntax unified
  15              		.file	"ssd1306.c"
  16              		.text
  17              	.Ltext0:
  18              		.cfi_sections	.debug_frame
  19              		.section	.rodata
  20              		.align	2
  21              		.type	font, %object
  22              		.size	font, 1275
  23              	font:
  24 0000 00       		.byte	0
  25 0001 00       		.byte	0
  26 0002 00       		.byte	0
  27 0003 00       		.byte	0
  28 0004 00       		.byte	0
  29 0005 3E       		.byte	62
  30 0006 5B       		.byte	91
  31 0007 4F       		.byte	79
  32 0008 5B       		.byte	91
  33 0009 3E       		.byte	62
  34 000a 3E       		.byte	62
  35 000b 6B       		.byte	107
  36 000c 4F       		.byte	79
  37 000d 6B       		.byte	107
  38 000e 3E       		.byte	62
  39 000f 1C       		.byte	28
  40 0010 3E       		.byte	62
  41 0011 7C       		.byte	124
  42 0012 3E       		.byte	62
  43 0013 1C       		.byte	28
  44 0014 18       		.byte	24
  45 0015 3C       		.byte	60
  46 0016 7E       		.byte	126
  47 0017 3C       		.byte	60
  48 0018 18       		.byte	24
  49 0019 1C       		.byte	28
  50 001a 57       		.byte	87
  51 001b 7D       		.byte	125
  52 001c 57       		.byte	87
  53 001d 1C       		.byte	28
  54 001e 1C       		.byte	28
  55 001f 5E       		.byte	94
  56 0020 7F       		.byte	127
  57 0021 5E       		.byte	94
ARM GAS  C:\Users\mariu\AppData\Local\Temp\ccmFU017.s 			page 2


  58 0022 1C       		.byte	28
  59 0023 00       		.byte	0
  60 0024 18       		.byte	24
  61 0025 3C       		.byte	60
  62 0026 18       		.byte	24
  63 0027 00       		.byte	0
  64 0028 FF       		.byte	-1
  65 0029 E7       		.byte	-25
  66 002a C3       		.byte	-61
  67 002b E7       		.byte	-25
  68 002c FF       		.byte	-1
  69 002d 00       		.byte	0
  70 002e 18       		.byte	24
  71 002f 24       		.byte	36
  72 0030 18       		.byte	24
  73 0031 00       		.byte	0
  74 0032 FF       		.byte	-1
  75 0033 E7       		.byte	-25
  76 0034 DB       		.byte	-37
  77 0035 E7       		.byte	-25
  78 0036 FF       		.byte	-1
  79 0037 30       		.byte	48
  80 0038 48       		.byte	72
  81 0039 3A       		.byte	58
  82 003a 06       		.byte	6
  83 003b 0E       		.byte	14
  84 003c 26       		.byte	38
  85 003d 29       		.byte	41
  86 003e 79       		.byte	121
  87 003f 29       		.byte	41
  88 0040 26       		.byte	38
  89 0041 40       		.byte	64
  90 0042 7F       		.byte	127
  91 0043 05       		.byte	5
  92 0044 05       		.byte	5
  93 0045 07       		.byte	7
  94 0046 40       		.byte	64
  95 0047 7F       		.byte	127
  96 0048 05       		.byte	5
  97 0049 25       		.byte	37
  98 004a 3F       		.byte	63
  99 004b 5A       		.byte	90
 100 004c 3C       		.byte	60
 101 004d E7       		.byte	-25
 102 004e 3C       		.byte	60
 103 004f 5A       		.byte	90
 104 0050 7F       		.byte	127
 105 0051 3E       		.byte	62
 106 0052 1C       		.byte	28
 107 0053 1C       		.byte	28
 108 0054 08       		.byte	8
 109 0055 08       		.byte	8
 110 0056 1C       		.byte	28
 111 0057 1C       		.byte	28
 112 0058 3E       		.byte	62
 113 0059 7F       		.byte	127
 114 005a 14       		.byte	20
ARM GAS  C:\Users\mariu\AppData\Local\Temp\ccmFU017.s 			page 3


 115 005b 22       		.byte	34
 116 005c 7F       		.byte	127
 117 005d 22       		.byte	34
 118 005e 14       		.byte	20
 119 005f 5F       		.byte	95
 120 0060 5F       		.byte	95
 121 0061 00       		.byte	0
 122 0062 5F       		.byte	95
 123 0063 5F       		.byte	95
 124 0064 06       		.byte	6
 125 0065 09       		.byte	9
 126 0066 7F       		.byte	127
 127 0067 01       		.byte	1
 128 0068 7F       		.byte	127
 129 0069 00       		.byte	0
 130 006a 66       		.byte	102
 131 006b 89       		.byte	-119
 132 006c 95       		.byte	-107
 133 006d 6A       		.byte	106
 134 006e 60       		.byte	96
 135 006f 60       		.byte	96
 136 0070 60       		.byte	96
 137 0071 60       		.byte	96
 138 0072 60       		.byte	96
 139 0073 94       		.byte	-108
 140 0074 A2       		.byte	-94
 141 0075 FF       		.byte	-1
 142 0076 A2       		.byte	-94
 143 0077 94       		.byte	-108
 144 0078 08       		.byte	8
 145 0079 04       		.byte	4
 146 007a 7E       		.byte	126
 147 007b 04       		.byte	4
 148 007c 08       		.byte	8
 149 007d 10       		.byte	16
 150 007e 20       		.byte	32
 151 007f 7E       		.byte	126
 152 0080 20       		.byte	32
 153 0081 10       		.byte	16
 154 0082 08       		.byte	8
 155 0083 08       		.byte	8
 156 0084 2A       		.byte	42
 157 0085 1C       		.byte	28
 158 0086 08       		.byte	8
 159 0087 08       		.byte	8
 160 0088 1C       		.byte	28
 161 0089 2A       		.byte	42
 162 008a 08       		.byte	8
 163 008b 08       		.byte	8
 164 008c 1E       		.byte	30
 165 008d 10       		.byte	16
 166 008e 10       		.byte	16
 167 008f 10       		.byte	16
 168 0090 10       		.byte	16
 169 0091 0C       		.byte	12
 170 0092 1E       		.byte	30
 171 0093 0C       		.byte	12
ARM GAS  C:\Users\mariu\AppData\Local\Temp\ccmFU017.s 			page 4


 172 0094 1E       		.byte	30
 173 0095 0C       		.byte	12
 174 0096 30       		.byte	48
 175 0097 38       		.byte	56
 176 0098 3E       		.byte	62
 177 0099 38       		.byte	56
 178 009a 30       		.byte	48
 179 009b 06       		.byte	6
 180 009c 0E       		.byte	14
 181 009d 3E       		.byte	62
 182 009e 0E       		.byte	14
 183 009f 06       		.byte	6
 184 00a0 00       		.byte	0
 185 00a1 00       		.byte	0
 186 00a2 00       		.byte	0
 187 00a3 00       		.byte	0
 188 00a4 00       		.byte	0
 189 00a5 00       		.byte	0
 190 00a6 00       		.byte	0
 191 00a7 5F       		.byte	95
 192 00a8 00       		.byte	0
 193 00a9 00       		.byte	0
 194 00aa 00       		.byte	0
 195 00ab 07       		.byte	7
 196 00ac 00       		.byte	0
 197 00ad 07       		.byte	7
 198 00ae 00       		.byte	0
 199 00af 14       		.byte	20
 200 00b0 7F       		.byte	127
 201 00b1 14       		.byte	20
 202 00b2 7F       		.byte	127
 203 00b3 14       		.byte	20
 204 00b4 24       		.byte	36
 205 00b5 2A       		.byte	42
 206 00b6 7F       		.byte	127
 207 00b7 2A       		.byte	42
 208 00b8 12       		.byte	18
 209 00b9 23       		.byte	35
 210 00ba 13       		.byte	19
 211 00bb 08       		.byte	8
 212 00bc 64       		.byte	100
 213 00bd 62       		.byte	98
 214 00be 36       		.byte	54
 215 00bf 49       		.byte	73
 216 00c0 56       		.byte	86
 217 00c1 20       		.byte	32
 218 00c2 50       		.byte	80
 219 00c3 00       		.byte	0
 220 00c4 08       		.byte	8
 221 00c5 07       		.byte	7
 222 00c6 03       		.byte	3
 223 00c7 00       		.byte	0
 224 00c8 00       		.byte	0
 225 00c9 1C       		.byte	28
 226 00ca 22       		.byte	34
 227 00cb 41       		.byte	65
 228 00cc 00       		.byte	0
ARM GAS  C:\Users\mariu\AppData\Local\Temp\ccmFU017.s 			page 5


 229 00cd 00       		.byte	0
 230 00ce 41       		.byte	65
 231 00cf 22       		.byte	34
 232 00d0 1C       		.byte	28
 233 00d1 00       		.byte	0
 234 00d2 2A       		.byte	42
 235 00d3 1C       		.byte	28
 236 00d4 7F       		.byte	127
 237 00d5 1C       		.byte	28
 238 00d6 2A       		.byte	42
 239 00d7 08       		.byte	8
 240 00d8 08       		.byte	8
 241 00d9 3E       		.byte	62
 242 00da 08       		.byte	8
 243 00db 08       		.byte	8
 244 00dc 00       		.byte	0
 245 00dd 80       		.byte	-128
 246 00de 70       		.byte	112
 247 00df 30       		.byte	48
 248 00e0 00       		.byte	0
 249 00e1 08       		.byte	8
 250 00e2 08       		.byte	8
 251 00e3 08       		.byte	8
 252 00e4 08       		.byte	8
 253 00e5 08       		.byte	8
 254 00e6 00       		.byte	0
 255 00e7 00       		.byte	0
 256 00e8 60       		.byte	96
 257 00e9 60       		.byte	96
 258 00ea 00       		.byte	0
 259 00eb 20       		.byte	32
 260 00ec 10       		.byte	16
 261 00ed 08       		.byte	8
 262 00ee 04       		.byte	4
 263 00ef 02       		.byte	2
 264 00f0 3E       		.byte	62
 265 00f1 51       		.byte	81
 266 00f2 49       		.byte	73
 267 00f3 45       		.byte	69
 268 00f4 3E       		.byte	62
 269 00f5 00       		.byte	0
 270 00f6 42       		.byte	66
 271 00f7 7F       		.byte	127
 272 00f8 40       		.byte	64
 273 00f9 00       		.byte	0
 274 00fa 72       		.byte	114
 275 00fb 49       		.byte	73
 276 00fc 49       		.byte	73
 277 00fd 49       		.byte	73
 278 00fe 46       		.byte	70
 279 00ff 21       		.byte	33
 280 0100 41       		.byte	65
 281 0101 49       		.byte	73
 282 0102 4D       		.byte	77
 283 0103 33       		.byte	51
 284 0104 18       		.byte	24
 285 0105 14       		.byte	20
ARM GAS  C:\Users\mariu\AppData\Local\Temp\ccmFU017.s 			page 6


 286 0106 12       		.byte	18
 287 0107 7F       		.byte	127
 288 0108 10       		.byte	16
 289 0109 27       		.byte	39
 290 010a 45       		.byte	69
 291 010b 45       		.byte	69
 292 010c 45       		.byte	69
 293 010d 39       		.byte	57
 294 010e 3C       		.byte	60
 295 010f 4A       		.byte	74
 296 0110 49       		.byte	73
 297 0111 49       		.byte	73
 298 0112 31       		.byte	49
 299 0113 41       		.byte	65
 300 0114 21       		.byte	33
 301 0115 11       		.byte	17
 302 0116 09       		.byte	9
 303 0117 07       		.byte	7
 304 0118 36       		.byte	54
 305 0119 49       		.byte	73
 306 011a 49       		.byte	73
 307 011b 49       		.byte	73
 308 011c 36       		.byte	54
 309 011d 46       		.byte	70
 310 011e 49       		.byte	73
 311 011f 49       		.byte	73
 312 0120 29       		.byte	41
 313 0121 1E       		.byte	30
 314 0122 00       		.byte	0
 315 0123 00       		.byte	0
 316 0124 14       		.byte	20
 317 0125 00       		.byte	0
 318 0126 00       		.byte	0
 319 0127 00       		.byte	0
 320 0128 40       		.byte	64
 321 0129 34       		.byte	52
 322 012a 00       		.byte	0
 323 012b 00       		.byte	0
 324 012c 00       		.byte	0
 325 012d 08       		.byte	8
 326 012e 14       		.byte	20
 327 012f 22       		.byte	34
 328 0130 41       		.byte	65
 329 0131 14       		.byte	20
 330 0132 14       		.byte	20
 331 0133 14       		.byte	20
 332 0134 14       		.byte	20
 333 0135 14       		.byte	20
 334 0136 00       		.byte	0
 335 0137 41       		.byte	65
 336 0138 22       		.byte	34
 337 0139 14       		.byte	20
 338 013a 08       		.byte	8
 339 013b 02       		.byte	2
 340 013c 01       		.byte	1
 341 013d 59       		.byte	89
 342 013e 09       		.byte	9
ARM GAS  C:\Users\mariu\AppData\Local\Temp\ccmFU017.s 			page 7


 343 013f 06       		.byte	6
 344 0140 3E       		.byte	62
 345 0141 41       		.byte	65
 346 0142 5D       		.byte	93
 347 0143 59       		.byte	89
 348 0144 4E       		.byte	78
 349 0145 7C       		.byte	124
 350 0146 12       		.byte	18
 351 0147 11       		.byte	17
 352 0148 12       		.byte	18
 353 0149 7C       		.byte	124
 354 014a 7F       		.byte	127
 355 014b 49       		.byte	73
 356 014c 49       		.byte	73
 357 014d 49       		.byte	73
 358 014e 36       		.byte	54
 359 014f 3E       		.byte	62
 360 0150 41       		.byte	65
 361 0151 41       		.byte	65
 362 0152 41       		.byte	65
 363 0153 22       		.byte	34
 364 0154 7F       		.byte	127
 365 0155 41       		.byte	65
 366 0156 41       		.byte	65
 367 0157 41       		.byte	65
 368 0158 3E       		.byte	62
 369 0159 7F       		.byte	127
 370 015a 49       		.byte	73
 371 015b 49       		.byte	73
 372 015c 49       		.byte	73
 373 015d 41       		.byte	65
 374 015e 7F       		.byte	127
 375 015f 09       		.byte	9
 376 0160 09       		.byte	9
 377 0161 09       		.byte	9
 378 0162 01       		.byte	1
 379 0163 3E       		.byte	62
 380 0164 41       		.byte	65
 381 0165 41       		.byte	65
 382 0166 51       		.byte	81
 383 0167 73       		.byte	115
 384 0168 7F       		.byte	127
 385 0169 08       		.byte	8
 386 016a 08       		.byte	8
 387 016b 08       		.byte	8
 388 016c 7F       		.byte	127
 389 016d 00       		.byte	0
 390 016e 41       		.byte	65
 391 016f 7F       		.byte	127
 392 0170 41       		.byte	65
 393 0171 00       		.byte	0
 394 0172 20       		.byte	32
 395 0173 40       		.byte	64
 396 0174 41       		.byte	65
 397 0175 3F       		.byte	63
 398 0176 01       		.byte	1
 399 0177 7F       		.byte	127
ARM GAS  C:\Users\mariu\AppData\Local\Temp\ccmFU017.s 			page 8


 400 0178 08       		.byte	8
 401 0179 14       		.byte	20
 402 017a 22       		.byte	34
 403 017b 41       		.byte	65
 404 017c 7F       		.byte	127
 405 017d 40       		.byte	64
 406 017e 40       		.byte	64
 407 017f 40       		.byte	64
 408 0180 40       		.byte	64
 409 0181 7F       		.byte	127
 410 0182 02       		.byte	2
 411 0183 1C       		.byte	28
 412 0184 02       		.byte	2
 413 0185 7F       		.byte	127
 414 0186 7F       		.byte	127
 415 0187 04       		.byte	4
 416 0188 08       		.byte	8
 417 0189 10       		.byte	16
 418 018a 7F       		.byte	127
 419 018b 3E       		.byte	62
 420 018c 41       		.byte	65
 421 018d 41       		.byte	65
 422 018e 41       		.byte	65
 423 018f 3E       		.byte	62
 424 0190 7F       		.byte	127
 425 0191 09       		.byte	9
 426 0192 09       		.byte	9
 427 0193 09       		.byte	9
 428 0194 06       		.byte	6
 429 0195 3E       		.byte	62
 430 0196 41       		.byte	65
 431 0197 51       		.byte	81
 432 0198 21       		.byte	33
 433 0199 5E       		.byte	94
 434 019a 7F       		.byte	127
 435 019b 09       		.byte	9
 436 019c 19       		.byte	25
 437 019d 29       		.byte	41
 438 019e 46       		.byte	70
 439 019f 26       		.byte	38
 440 01a0 49       		.byte	73
 441 01a1 49       		.byte	73
 442 01a2 49       		.byte	73
 443 01a3 32       		.byte	50
 444 01a4 03       		.byte	3
 445 01a5 01       		.byte	1
 446 01a6 7F       		.byte	127
 447 01a7 01       		.byte	1
 448 01a8 03       		.byte	3
 449 01a9 3F       		.byte	63
 450 01aa 40       		.byte	64
 451 01ab 40       		.byte	64
 452 01ac 40       		.byte	64
 453 01ad 3F       		.byte	63
 454 01ae 1F       		.byte	31
 455 01af 20       		.byte	32
 456 01b0 40       		.byte	64
ARM GAS  C:\Users\mariu\AppData\Local\Temp\ccmFU017.s 			page 9


 457 01b1 20       		.byte	32
 458 01b2 1F       		.byte	31
 459 01b3 3F       		.byte	63
 460 01b4 40       		.byte	64
 461 01b5 38       		.byte	56
 462 01b6 40       		.byte	64
 463 01b7 3F       		.byte	63
 464 01b8 63       		.byte	99
 465 01b9 14       		.byte	20
 466 01ba 08       		.byte	8
 467 01bb 14       		.byte	20
 468 01bc 63       		.byte	99
 469 01bd 03       		.byte	3
 470 01be 04       		.byte	4
 471 01bf 78       		.byte	120
 472 01c0 04       		.byte	4
 473 01c1 03       		.byte	3
 474 01c2 61       		.byte	97
 475 01c3 59       		.byte	89
 476 01c4 49       		.byte	73
 477 01c5 4D       		.byte	77
 478 01c6 43       		.byte	67
 479 01c7 00       		.byte	0
 480 01c8 7F       		.byte	127
 481 01c9 41       		.byte	65
 482 01ca 41       		.byte	65
 483 01cb 41       		.byte	65
 484 01cc 02       		.byte	2
 485 01cd 04       		.byte	4
 486 01ce 08       		.byte	8
 487 01cf 10       		.byte	16
 488 01d0 20       		.byte	32
 489 01d1 00       		.byte	0
 490 01d2 41       		.byte	65
 491 01d3 41       		.byte	65
 492 01d4 41       		.byte	65
 493 01d5 7F       		.byte	127
 494 01d6 04       		.byte	4
 495 01d7 02       		.byte	2
 496 01d8 01       		.byte	1
 497 01d9 02       		.byte	2
 498 01da 04       		.byte	4
 499 01db 40       		.byte	64
 500 01dc 40       		.byte	64
 501 01dd 40       		.byte	64
 502 01de 40       		.byte	64
 503 01df 40       		.byte	64
 504 01e0 00       		.byte	0
 505 01e1 03       		.byte	3
 506 01e2 07       		.byte	7
 507 01e3 08       		.byte	8
 508 01e4 00       		.byte	0
 509 01e5 20       		.byte	32
 510 01e6 54       		.byte	84
 511 01e7 54       		.byte	84
 512 01e8 78       		.byte	120
 513 01e9 40       		.byte	64
ARM GAS  C:\Users\mariu\AppData\Local\Temp\ccmFU017.s 			page 10


 514 01ea 7F       		.byte	127
 515 01eb 28       		.byte	40
 516 01ec 44       		.byte	68
 517 01ed 44       		.byte	68
 518 01ee 38       		.byte	56
 519 01ef 38       		.byte	56
 520 01f0 44       		.byte	68
 521 01f1 44       		.byte	68
 522 01f2 44       		.byte	68
 523 01f3 28       		.byte	40
 524 01f4 38       		.byte	56
 525 01f5 44       		.byte	68
 526 01f6 44       		.byte	68
 527 01f7 28       		.byte	40
 528 01f8 7F       		.byte	127
 529 01f9 38       		.byte	56
 530 01fa 54       		.byte	84
 531 01fb 54       		.byte	84
 532 01fc 54       		.byte	84
 533 01fd 18       		.byte	24
 534 01fe 00       		.byte	0
 535 01ff 08       		.byte	8
 536 0200 7E       		.byte	126
 537 0201 09       		.byte	9
 538 0202 02       		.byte	2
 539 0203 18       		.byte	24
 540 0204 A4       		.byte	-92
 541 0205 A4       		.byte	-92
 542 0206 9C       		.byte	-100
 543 0207 78       		.byte	120
 544 0208 7F       		.byte	127
 545 0209 08       		.byte	8
 546 020a 04       		.byte	4
 547 020b 04       		.byte	4
 548 020c 78       		.byte	120
 549 020d 00       		.byte	0
 550 020e 44       		.byte	68
 551 020f 7D       		.byte	125
 552 0210 40       		.byte	64
 553 0211 00       		.byte	0
 554 0212 20       		.byte	32
 555 0213 40       		.byte	64
 556 0214 40       		.byte	64
 557 0215 3D       		.byte	61
 558 0216 00       		.byte	0
 559 0217 7F       		.byte	127
 560 0218 10       		.byte	16
 561 0219 28       		.byte	40
 562 021a 44       		.byte	68
 563 021b 00       		.byte	0
 564 021c 00       		.byte	0
 565 021d 41       		.byte	65
 566 021e 7F       		.byte	127
 567 021f 40       		.byte	64
 568 0220 00       		.byte	0
 569 0221 7C       		.byte	124
 570 0222 04       		.byte	4
ARM GAS  C:\Users\mariu\AppData\Local\Temp\ccmFU017.s 			page 11


 571 0223 78       		.byte	120
 572 0224 04       		.byte	4
 573 0225 78       		.byte	120
 574 0226 7C       		.byte	124
 575 0227 08       		.byte	8
 576 0228 04       		.byte	4
 577 0229 04       		.byte	4
 578 022a 78       		.byte	120
 579 022b 38       		.byte	56
 580 022c 44       		.byte	68
 581 022d 44       		.byte	68
 582 022e 44       		.byte	68
 583 022f 38       		.byte	56
 584 0230 FC       		.byte	-4
 585 0231 18       		.byte	24
 586 0232 24       		.byte	36
 587 0233 24       		.byte	36
 588 0234 18       		.byte	24
 589 0235 18       		.byte	24
 590 0236 24       		.byte	36
 591 0237 24       		.byte	36
 592 0238 18       		.byte	24
 593 0239 FC       		.byte	-4
 594 023a 7C       		.byte	124
 595 023b 08       		.byte	8
 596 023c 04       		.byte	4
 597 023d 04       		.byte	4
 598 023e 08       		.byte	8
 599 023f 48       		.byte	72
 600 0240 54       		.byte	84
 601 0241 54       		.byte	84
 602 0242 54       		.byte	84
 603 0243 24       		.byte	36
 604 0244 04       		.byte	4
 605 0245 04       		.byte	4
 606 0246 3F       		.byte	63
 607 0247 44       		.byte	68
 608 0248 24       		.byte	36
 609 0249 3C       		.byte	60
 610 024a 40       		.byte	64
 611 024b 40       		.byte	64
 612 024c 20       		.byte	32
 613 024d 7C       		.byte	124
 614 024e 1C       		.byte	28
 615 024f 20       		.byte	32
 616 0250 40       		.byte	64
 617 0251 20       		.byte	32
 618 0252 1C       		.byte	28
 619 0253 3C       		.byte	60
 620 0254 40       		.byte	64
 621 0255 30       		.byte	48
 622 0256 40       		.byte	64
 623 0257 3C       		.byte	60
 624 0258 44       		.byte	68
 625 0259 28       		.byte	40
 626 025a 10       		.byte	16
 627 025b 28       		.byte	40
ARM GAS  C:\Users\mariu\AppData\Local\Temp\ccmFU017.s 			page 12


 628 025c 44       		.byte	68
 629 025d 4C       		.byte	76
 630 025e 90       		.byte	-112
 631 025f 90       		.byte	-112
 632 0260 90       		.byte	-112
 633 0261 7C       		.byte	124
 634 0262 44       		.byte	68
 635 0263 64       		.byte	100
 636 0264 54       		.byte	84
 637 0265 4C       		.byte	76
 638 0266 44       		.byte	68
 639 0267 00       		.byte	0
 640 0268 08       		.byte	8
 641 0269 36       		.byte	54
 642 026a 41       		.byte	65
 643 026b 00       		.byte	0
 644 026c 00       		.byte	0
 645 026d 00       		.byte	0
 646 026e 77       		.byte	119
 647 026f 00       		.byte	0
 648 0270 00       		.byte	0
 649 0271 00       		.byte	0
 650 0272 41       		.byte	65
 651 0273 36       		.byte	54
 652 0274 08       		.byte	8
 653 0275 00       		.byte	0
 654 0276 02       		.byte	2
 655 0277 01       		.byte	1
 656 0278 02       		.byte	2
 657 0279 04       		.byte	4
 658 027a 02       		.byte	2
 659 027b 3C       		.byte	60
 660 027c 26       		.byte	38
 661 027d 23       		.byte	35
 662 027e 26       		.byte	38
 663 027f 3C       		.byte	60
 664 0280 1E       		.byte	30
 665 0281 A1       		.byte	-95
 666 0282 A1       		.byte	-95
 667 0283 61       		.byte	97
 668 0284 12       		.byte	18
 669 0285 3A       		.byte	58
 670 0286 40       		.byte	64
 671 0287 40       		.byte	64
 672 0288 20       		.byte	32
 673 0289 7A       		.byte	122
 674 028a 38       		.byte	56
 675 028b 54       		.byte	84
 676 028c 54       		.byte	84
 677 028d 55       		.byte	85
 678 028e 59       		.byte	89
 679 028f 21       		.byte	33
 680 0290 55       		.byte	85
 681 0291 55       		.byte	85
 682 0292 79       		.byte	121
 683 0293 41       		.byte	65
 684 0294 22       		.byte	34
ARM GAS  C:\Users\mariu\AppData\Local\Temp\ccmFU017.s 			page 13


 685 0295 54       		.byte	84
 686 0296 54       		.byte	84
 687 0297 78       		.byte	120
 688 0298 42       		.byte	66
 689 0299 21       		.byte	33
 690 029a 55       		.byte	85
 691 029b 54       		.byte	84
 692 029c 78       		.byte	120
 693 029d 40       		.byte	64
 694 029e 20       		.byte	32
 695 029f 54       		.byte	84
 696 02a0 55       		.byte	85
 697 02a1 79       		.byte	121
 698 02a2 40       		.byte	64
 699 02a3 0C       		.byte	12
 700 02a4 1E       		.byte	30
 701 02a5 52       		.byte	82
 702 02a6 72       		.byte	114
 703 02a7 12       		.byte	18
 704 02a8 39       		.byte	57
 705 02a9 55       		.byte	85
 706 02aa 55       		.byte	85
 707 02ab 55       		.byte	85
 708 02ac 59       		.byte	89
 709 02ad 39       		.byte	57
 710 02ae 54       		.byte	84
 711 02af 54       		.byte	84
 712 02b0 54       		.byte	84
 713 02b1 59       		.byte	89
 714 02b2 39       		.byte	57
 715 02b3 55       		.byte	85
 716 02b4 54       		.byte	84
 717 02b5 54       		.byte	84
 718 02b6 58       		.byte	88
 719 02b7 00       		.byte	0
 720 02b8 00       		.byte	0
 721 02b9 45       		.byte	69
 722 02ba 7C       		.byte	124
 723 02bb 41       		.byte	65
 724 02bc 00       		.byte	0
 725 02bd 02       		.byte	2
 726 02be 45       		.byte	69
 727 02bf 7D       		.byte	125
 728 02c0 42       		.byte	66
 729 02c1 00       		.byte	0
 730 02c2 01       		.byte	1
 731 02c3 45       		.byte	69
 732 02c4 7C       		.byte	124
 733 02c5 40       		.byte	64
 734 02c6 7D       		.byte	125
 735 02c7 12       		.byte	18
 736 02c8 11       		.byte	17
 737 02c9 12       		.byte	18
 738 02ca 7D       		.byte	125
 739 02cb F0       		.byte	-16
 740 02cc 28       		.byte	40
 741 02cd 25       		.byte	37
ARM GAS  C:\Users\mariu\AppData\Local\Temp\ccmFU017.s 			page 14


 742 02ce 28       		.byte	40
 743 02cf F0       		.byte	-16
 744 02d0 7C       		.byte	124
 745 02d1 54       		.byte	84
 746 02d2 55       		.byte	85
 747 02d3 45       		.byte	69
 748 02d4 00       		.byte	0
 749 02d5 20       		.byte	32
 750 02d6 54       		.byte	84
 751 02d7 54       		.byte	84
 752 02d8 7C       		.byte	124
 753 02d9 54       		.byte	84
 754 02da 7C       		.byte	124
 755 02db 0A       		.byte	10
 756 02dc 09       		.byte	9
 757 02dd 7F       		.byte	127
 758 02de 49       		.byte	73
 759 02df 32       		.byte	50
 760 02e0 49       		.byte	73
 761 02e1 49       		.byte	73
 762 02e2 49       		.byte	73
 763 02e3 32       		.byte	50
 764 02e4 3A       		.byte	58
 765 02e5 44       		.byte	68
 766 02e6 44       		.byte	68
 767 02e7 44       		.byte	68
 768 02e8 3A       		.byte	58
 769 02e9 32       		.byte	50
 770 02ea 4A       		.byte	74
 771 02eb 48       		.byte	72
 772 02ec 48       		.byte	72
 773 02ed 30       		.byte	48
 774 02ee 3A       		.byte	58
 775 02ef 41       		.byte	65
 776 02f0 41       		.byte	65
 777 02f1 21       		.byte	33
 778 02f2 7A       		.byte	122
 779 02f3 3A       		.byte	58
 780 02f4 42       		.byte	66
 781 02f5 40       		.byte	64
 782 02f6 20       		.byte	32
 783 02f7 78       		.byte	120
 784 02f8 00       		.byte	0
 785 02f9 9D       		.byte	-99
 786 02fa A0       		.byte	-96
 787 02fb A0       		.byte	-96
 788 02fc 7D       		.byte	125
 789 02fd 3D       		.byte	61
 790 02fe 42       		.byte	66
 791 02ff 42       		.byte	66
 792 0300 42       		.byte	66
 793 0301 3D       		.byte	61
 794 0302 3D       		.byte	61
 795 0303 40       		.byte	64
 796 0304 40       		.byte	64
 797 0305 40       		.byte	64
 798 0306 3D       		.byte	61
ARM GAS  C:\Users\mariu\AppData\Local\Temp\ccmFU017.s 			page 15


 799 0307 3C       		.byte	60
 800 0308 24       		.byte	36
 801 0309 FF       		.byte	-1
 802 030a 24       		.byte	36
 803 030b 24       		.byte	36
 804 030c 48       		.byte	72
 805 030d 7E       		.byte	126
 806 030e 49       		.byte	73
 807 030f 43       		.byte	67
 808 0310 66       		.byte	102
 809 0311 2B       		.byte	43
 810 0312 2F       		.byte	47
 811 0313 FC       		.byte	-4
 812 0314 2F       		.byte	47
 813 0315 2B       		.byte	43
 814 0316 FF       		.byte	-1
 815 0317 09       		.byte	9
 816 0318 29       		.byte	41
 817 0319 F6       		.byte	-10
 818 031a 20       		.byte	32
 819 031b C0       		.byte	-64
 820 031c 88       		.byte	-120
 821 031d 7E       		.byte	126
 822 031e 09       		.byte	9
 823 031f 03       		.byte	3
 824 0320 20       		.byte	32
 825 0321 54       		.byte	84
 826 0322 54       		.byte	84
 827 0323 79       		.byte	121
 828 0324 41       		.byte	65
 829 0325 00       		.byte	0
 830 0326 00       		.byte	0
 831 0327 44       		.byte	68
 832 0328 7D       		.byte	125
 833 0329 41       		.byte	65
 834 032a 30       		.byte	48
 835 032b 48       		.byte	72
 836 032c 48       		.byte	72
 837 032d 4A       		.byte	74
 838 032e 32       		.byte	50
 839 032f 38       		.byte	56
 840 0330 40       		.byte	64
 841 0331 40       		.byte	64
 842 0332 22       		.byte	34
 843 0333 7A       		.byte	122
 844 0334 00       		.byte	0
 845 0335 7A       		.byte	122
 846 0336 0A       		.byte	10
 847 0337 0A       		.byte	10
 848 0338 72       		.byte	114
 849 0339 7D       		.byte	125
 850 033a 0D       		.byte	13
 851 033b 19       		.byte	25
 852 033c 31       		.byte	49
 853 033d 7D       		.byte	125
 854 033e 26       		.byte	38
 855 033f 29       		.byte	41
ARM GAS  C:\Users\mariu\AppData\Local\Temp\ccmFU017.s 			page 16


 856 0340 29       		.byte	41
 857 0341 2F       		.byte	47
 858 0342 28       		.byte	40
 859 0343 26       		.byte	38
 860 0344 29       		.byte	41
 861 0345 29       		.byte	41
 862 0346 29       		.byte	41
 863 0347 26       		.byte	38
 864 0348 30       		.byte	48
 865 0349 48       		.byte	72
 866 034a 4D       		.byte	77
 867 034b 40       		.byte	64
 868 034c 20       		.byte	32
 869 034d 38       		.byte	56
 870 034e 08       		.byte	8
 871 034f 08       		.byte	8
 872 0350 08       		.byte	8
 873 0351 08       		.byte	8
 874 0352 08       		.byte	8
 875 0353 08       		.byte	8
 876 0354 08       		.byte	8
 877 0355 08       		.byte	8
 878 0356 38       		.byte	56
 879 0357 2F       		.byte	47
 880 0358 10       		.byte	16
 881 0359 C8       		.byte	-56
 882 035a AC       		.byte	-84
 883 035b BA       		.byte	-70
 884 035c 2F       		.byte	47
 885 035d 10       		.byte	16
 886 035e 28       		.byte	40
 887 035f 34       		.byte	52
 888 0360 FA       		.byte	-6
 889 0361 00       		.byte	0
 890 0362 00       		.byte	0
 891 0363 7B       		.byte	123
 892 0364 00       		.byte	0
 893 0365 00       		.byte	0
 894 0366 08       		.byte	8
 895 0367 14       		.byte	20
 896 0368 2A       		.byte	42
 897 0369 14       		.byte	20
 898 036a 22       		.byte	34
 899 036b 22       		.byte	34
 900 036c 14       		.byte	20
 901 036d 2A       		.byte	42
 902 036e 14       		.byte	20
 903 036f 08       		.byte	8
 904 0370 AA       		.byte	-86
 905 0371 00       		.byte	0
 906 0372 55       		.byte	85
 907 0373 00       		.byte	0
 908 0374 AA       		.byte	-86
 909 0375 AA       		.byte	-86
 910 0376 55       		.byte	85
 911 0377 AA       		.byte	-86
 912 0378 55       		.byte	85
ARM GAS  C:\Users\mariu\AppData\Local\Temp\ccmFU017.s 			page 17


 913 0379 AA       		.byte	-86
 914 037a 00       		.byte	0
 915 037b 00       		.byte	0
 916 037c 00       		.byte	0
 917 037d FF       		.byte	-1
 918 037e 00       		.byte	0
 919 037f 10       		.byte	16
 920 0380 10       		.byte	16
 921 0381 10       		.byte	16
 922 0382 FF       		.byte	-1
 923 0383 00       		.byte	0
 924 0384 14       		.byte	20
 925 0385 14       		.byte	20
 926 0386 14       		.byte	20
 927 0387 FF       		.byte	-1
 928 0388 00       		.byte	0
 929 0389 10       		.byte	16
 930 038a 10       		.byte	16
 931 038b FF       		.byte	-1
 932 038c 00       		.byte	0
 933 038d FF       		.byte	-1
 934 038e 10       		.byte	16
 935 038f 10       		.byte	16
 936 0390 F0       		.byte	-16
 937 0391 10       		.byte	16
 938 0392 F0       		.byte	-16
 939 0393 14       		.byte	20
 940 0394 14       		.byte	20
 941 0395 14       		.byte	20
 942 0396 FC       		.byte	-4
 943 0397 00       		.byte	0
 944 0398 14       		.byte	20
 945 0399 14       		.byte	20
 946 039a F7       		.byte	-9
 947 039b 00       		.byte	0
 948 039c FF       		.byte	-1
 949 039d 00       		.byte	0
 950 039e 00       		.byte	0
 951 039f FF       		.byte	-1
 952 03a0 00       		.byte	0
 953 03a1 FF       		.byte	-1
 954 03a2 14       		.byte	20
 955 03a3 14       		.byte	20
 956 03a4 F4       		.byte	-12
 957 03a5 04       		.byte	4
 958 03a6 FC       		.byte	-4
 959 03a7 14       		.byte	20
 960 03a8 14       		.byte	20
 961 03a9 17       		.byte	23
 962 03aa 10       		.byte	16
 963 03ab 1F       		.byte	31
 964 03ac 10       		.byte	16
 965 03ad 10       		.byte	16
 966 03ae 1F       		.byte	31
 967 03af 10       		.byte	16
 968 03b0 1F       		.byte	31
 969 03b1 14       		.byte	20
ARM GAS  C:\Users\mariu\AppData\Local\Temp\ccmFU017.s 			page 18


 970 03b2 14       		.byte	20
 971 03b3 14       		.byte	20
 972 03b4 1F       		.byte	31
 973 03b5 00       		.byte	0
 974 03b6 10       		.byte	16
 975 03b7 10       		.byte	16
 976 03b8 10       		.byte	16
 977 03b9 F0       		.byte	-16
 978 03ba 00       		.byte	0
 979 03bb 00       		.byte	0
 980 03bc 00       		.byte	0
 981 03bd 00       		.byte	0
 982 03be 1F       		.byte	31
 983 03bf 10       		.byte	16
 984 03c0 10       		.byte	16
 985 03c1 10       		.byte	16
 986 03c2 10       		.byte	16
 987 03c3 1F       		.byte	31
 988 03c4 10       		.byte	16
 989 03c5 10       		.byte	16
 990 03c6 10       		.byte	16
 991 03c7 10       		.byte	16
 992 03c8 F0       		.byte	-16
 993 03c9 10       		.byte	16
 994 03ca 00       		.byte	0
 995 03cb 00       		.byte	0
 996 03cc 00       		.byte	0
 997 03cd FF       		.byte	-1
 998 03ce 10       		.byte	16
 999 03cf 10       		.byte	16
 1000 03d0 10       		.byte	16
 1001 03d1 10       		.byte	16
 1002 03d2 10       		.byte	16
 1003 03d3 10       		.byte	16
 1004 03d4 10       		.byte	16
 1005 03d5 10       		.byte	16
 1006 03d6 10       		.byte	16
 1007 03d7 FF       		.byte	-1
 1008 03d8 10       		.byte	16
 1009 03d9 00       		.byte	0
 1010 03da 00       		.byte	0
 1011 03db 00       		.byte	0
 1012 03dc FF       		.byte	-1
 1013 03dd 14       		.byte	20
 1014 03de 00       		.byte	0
 1015 03df 00       		.byte	0
 1016 03e0 FF       		.byte	-1
 1017 03e1 00       		.byte	0
 1018 03e2 FF       		.byte	-1
 1019 03e3 00       		.byte	0
 1020 03e4 00       		.byte	0
 1021 03e5 1F       		.byte	31
 1022 03e6 10       		.byte	16
 1023 03e7 17       		.byte	23
 1024 03e8 00       		.byte	0
 1025 03e9 00       		.byte	0
 1026 03ea FC       		.byte	-4
ARM GAS  C:\Users\mariu\AppData\Local\Temp\ccmFU017.s 			page 19


 1027 03eb 04       		.byte	4
 1028 03ec F4       		.byte	-12
 1029 03ed 14       		.byte	20
 1030 03ee 14       		.byte	20
 1031 03ef 17       		.byte	23
 1032 03f0 10       		.byte	16
 1033 03f1 17       		.byte	23
 1034 03f2 14       		.byte	20
 1035 03f3 14       		.byte	20
 1036 03f4 F4       		.byte	-12
 1037 03f5 04       		.byte	4
 1038 03f6 F4       		.byte	-12
 1039 03f7 00       		.byte	0
 1040 03f8 00       		.byte	0
 1041 03f9 FF       		.byte	-1
 1042 03fa 00       		.byte	0
 1043 03fb F7       		.byte	-9
 1044 03fc 14       		.byte	20
 1045 03fd 14       		.byte	20
 1046 03fe 14       		.byte	20
 1047 03ff 14       		.byte	20
 1048 0400 14       		.byte	20
 1049 0401 14       		.byte	20
 1050 0402 14       		.byte	20
 1051 0403 F7       		.byte	-9
 1052 0404 00       		.byte	0
 1053 0405 F7       		.byte	-9
 1054 0406 14       		.byte	20
 1055 0407 14       		.byte	20
 1056 0408 14       		.byte	20
 1057 0409 17       		.byte	23
 1058 040a 14       		.byte	20
 1059 040b 10       		.byte	16
 1060 040c 10       		.byte	16
 1061 040d 1F       		.byte	31
 1062 040e 10       		.byte	16
 1063 040f 1F       		.byte	31
 1064 0410 14       		.byte	20
 1065 0411 14       		.byte	20
 1066 0412 14       		.byte	20
 1067 0413 F4       		.byte	-12
 1068 0414 14       		.byte	20
 1069 0415 10       		.byte	16
 1070 0416 10       		.byte	16
 1071 0417 F0       		.byte	-16
 1072 0418 10       		.byte	16
 1073 0419 F0       		.byte	-16
 1074 041a 00       		.byte	0
 1075 041b 00       		.byte	0
 1076 041c 1F       		.byte	31
 1077 041d 10       		.byte	16
 1078 041e 1F       		.byte	31
 1079 041f 00       		.byte	0
 1080 0420 00       		.byte	0
 1081 0421 00       		.byte	0
 1082 0422 1F       		.byte	31
 1083 0423 14       		.byte	20
ARM GAS  C:\Users\mariu\AppData\Local\Temp\ccmFU017.s 			page 20


 1084 0424 00       		.byte	0
 1085 0425 00       		.byte	0
 1086 0426 00       		.byte	0
 1087 0427 FC       		.byte	-4
 1088 0428 14       		.byte	20
 1089 0429 00       		.byte	0
 1090 042a 00       		.byte	0
 1091 042b F0       		.byte	-16
 1092 042c 10       		.byte	16
 1093 042d F0       		.byte	-16
 1094 042e 10       		.byte	16
 1095 042f 10       		.byte	16
 1096 0430 FF       		.byte	-1
 1097 0431 10       		.byte	16
 1098 0432 FF       		.byte	-1
 1099 0433 14       		.byte	20
 1100 0434 14       		.byte	20
 1101 0435 14       		.byte	20
 1102 0436 FF       		.byte	-1
 1103 0437 14       		.byte	20
 1104 0438 10       		.byte	16
 1105 0439 10       		.byte	16
 1106 043a 10       		.byte	16
 1107 043b 1F       		.byte	31
 1108 043c 00       		.byte	0
 1109 043d 00       		.byte	0
 1110 043e 00       		.byte	0
 1111 043f 00       		.byte	0
 1112 0440 F0       		.byte	-16
 1113 0441 10       		.byte	16
 1114 0442 FF       		.byte	-1
 1115 0443 FF       		.byte	-1
 1116 0444 FF       		.byte	-1
 1117 0445 FF       		.byte	-1
 1118 0446 FF       		.byte	-1
 1119 0447 F0       		.byte	-16
 1120 0448 F0       		.byte	-16
 1121 0449 F0       		.byte	-16
 1122 044a F0       		.byte	-16
 1123 044b F0       		.byte	-16
 1124 044c FF       		.byte	-1
 1125 044d FF       		.byte	-1
 1126 044e FF       		.byte	-1
 1127 044f 00       		.byte	0
 1128 0450 00       		.byte	0
 1129 0451 00       		.byte	0
 1130 0452 00       		.byte	0
 1131 0453 00       		.byte	0
 1132 0454 FF       		.byte	-1
 1133 0455 FF       		.byte	-1
 1134 0456 0F       		.byte	15
 1135 0457 0F       		.byte	15
 1136 0458 0F       		.byte	15
 1137 0459 0F       		.byte	15
 1138 045a 0F       		.byte	15
 1139 045b 38       		.byte	56
 1140 045c 44       		.byte	68
ARM GAS  C:\Users\mariu\AppData\Local\Temp\ccmFU017.s 			page 21


 1141 045d 44       		.byte	68
 1142 045e 38       		.byte	56
 1143 045f 44       		.byte	68
 1144 0460 FC       		.byte	-4
 1145 0461 4A       		.byte	74
 1146 0462 4A       		.byte	74
 1147 0463 4A       		.byte	74
 1148 0464 34       		.byte	52
 1149 0465 7E       		.byte	126
 1150 0466 02       		.byte	2
 1151 0467 02       		.byte	2
 1152 0468 06       		.byte	6
 1153 0469 06       		.byte	6
 1154 046a 02       		.byte	2
 1155 046b 7E       		.byte	126
 1156 046c 02       		.byte	2
 1157 046d 7E       		.byte	126
 1158 046e 02       		.byte	2
 1159 046f 63       		.byte	99
 1160 0470 55       		.byte	85
 1161 0471 49       		.byte	73
 1162 0472 41       		.byte	65
 1163 0473 63       		.byte	99
 1164 0474 38       		.byte	56
 1165 0475 44       		.byte	68
 1166 0476 44       		.byte	68
 1167 0477 3C       		.byte	60
 1168 0478 04       		.byte	4
 1169 0479 40       		.byte	64
 1170 047a 7E       		.byte	126
 1171 047b 20       		.byte	32
 1172 047c 1E       		.byte	30
 1173 047d 20       		.byte	32
 1174 047e 06       		.byte	6
 1175 047f 02       		.byte	2
 1176 0480 7E       		.byte	126
 1177 0481 02       		.byte	2
 1178 0482 02       		.byte	2
 1179 0483 99       		.byte	-103
 1180 0484 A5       		.byte	-91
 1181 0485 E7       		.byte	-25
 1182 0486 A5       		.byte	-91
 1183 0487 99       		.byte	-103
 1184 0488 1C       		.byte	28
 1185 0489 2A       		.byte	42
 1186 048a 49       		.byte	73
 1187 048b 2A       		.byte	42
 1188 048c 1C       		.byte	28
 1189 048d 4C       		.byte	76
 1190 048e 72       		.byte	114
 1191 048f 01       		.byte	1
 1192 0490 72       		.byte	114
 1193 0491 4C       		.byte	76
 1194 0492 30       		.byte	48
 1195 0493 4A       		.byte	74
 1196 0494 4D       		.byte	77
 1197 0495 4D       		.byte	77
ARM GAS  C:\Users\mariu\AppData\Local\Temp\ccmFU017.s 			page 22


 1198 0496 30       		.byte	48
 1199 0497 30       		.byte	48
 1200 0498 48       		.byte	72
 1201 0499 78       		.byte	120
 1202 049a 48       		.byte	72
 1203 049b 30       		.byte	48
 1204 049c BC       		.byte	-68
 1205 049d 62       		.byte	98
 1206 049e 5A       		.byte	90
 1207 049f 46       		.byte	70
 1208 04a0 3D       		.byte	61
 1209 04a1 3E       		.byte	62
 1210 04a2 49       		.byte	73
 1211 04a3 49       		.byte	73
 1212 04a4 49       		.byte	73
 1213 04a5 00       		.byte	0
 1214 04a6 7E       		.byte	126
 1215 04a7 01       		.byte	1
 1216 04a8 01       		.byte	1
 1217 04a9 01       		.byte	1
 1218 04aa 7E       		.byte	126
 1219 04ab 2A       		.byte	42
 1220 04ac 2A       		.byte	42
 1221 04ad 2A       		.byte	42
 1222 04ae 2A       		.byte	42
 1223 04af 2A       		.byte	42
 1224 04b0 44       		.byte	68
 1225 04b1 44       		.byte	68
 1226 04b2 5F       		.byte	95
 1227 04b3 44       		.byte	68
 1228 04b4 44       		.byte	68
 1229 04b5 40       		.byte	64
 1230 04b6 51       		.byte	81
 1231 04b7 4A       		.byte	74
 1232 04b8 44       		.byte	68
 1233 04b9 40       		.byte	64
 1234 04ba 40       		.byte	64
 1235 04bb 44       		.byte	68
 1236 04bc 4A       		.byte	74
 1237 04bd 51       		.byte	81
 1238 04be 40       		.byte	64
 1239 04bf 00       		.byte	0
 1240 04c0 00       		.byte	0
 1241 04c1 FF       		.byte	-1
 1242 04c2 01       		.byte	1
 1243 04c3 03       		.byte	3
 1244 04c4 E0       		.byte	-32
 1245 04c5 80       		.byte	-128
 1246 04c6 FF       		.byte	-1
 1247 04c7 00       		.byte	0
 1248 04c8 00       		.byte	0
 1249 04c9 08       		.byte	8
 1250 04ca 08       		.byte	8
 1251 04cb 6B       		.byte	107
 1252 04cc 6B       		.byte	107
 1253 04cd 08       		.byte	8
 1254 04ce 36       		.byte	54
ARM GAS  C:\Users\mariu\AppData\Local\Temp\ccmFU017.s 			page 23


 1255 04cf 12       		.byte	18
 1256 04d0 36       		.byte	54
 1257 04d1 24       		.byte	36
 1258 04d2 36       		.byte	54
 1259 04d3 06       		.byte	6
 1260 04d4 0F       		.byte	15
 1261 04d5 09       		.byte	9
 1262 04d6 0F       		.byte	15
 1263 04d7 06       		.byte	6
 1264 04d8 00       		.byte	0
 1265 04d9 00       		.byte	0
 1266 04da 18       		.byte	24
 1267 04db 18       		.byte	24
 1268 04dc 00       		.byte	0
 1269 04dd 00       		.byte	0
 1270 04de 00       		.byte	0
 1271 04df 10       		.byte	16
 1272 04e0 10       		.byte	16
 1273 04e1 00       		.byte	0
 1274 04e2 30       		.byte	48
 1275 04e3 40       		.byte	64
 1276 04e4 FF       		.byte	-1
 1277 04e5 01       		.byte	1
 1278 04e6 01       		.byte	1
 1279 04e7 00       		.byte	0
 1280 04e8 1F       		.byte	31
 1281 04e9 01       		.byte	1
 1282 04ea 01       		.byte	1
 1283 04eb 1E       		.byte	30
 1284 04ec 00       		.byte	0
 1285 04ed 19       		.byte	25
 1286 04ee 1D       		.byte	29
 1287 04ef 17       		.byte	23
 1288 04f0 12       		.byte	18
 1289 04f1 00       		.byte	0
 1290 04f2 3C       		.byte	60
 1291 04f3 3C       		.byte	60
 1292 04f4 3C       		.byte	60
 1293 04f5 3C       		.byte	60
 1294 04f6 00       		.byte	0
 1295 04f7 00       		.byte	0
 1296 04f8 00       		.byte	0
 1297 04f9 00       		.byte	0
 1298 04fa 00       		.byte	0
 1299              		.bss
 1300              	_i2caddr:
 1301 0000 00       		.space	1
 1302              		.data
 1303              		.align	2
 1304              		.type	SSD1306_buffer, %object
 1305              		.size	SSD1306_buffer, 1025
 1306              	SSD1306_buffer:
 1307 0000 40       		.byte	64
 1308 0001 00000000 		.space	1024
 1308      00000000 
 1308      00000000 
 1308      00000000 
ARM GAS  C:\Users\mariu\AppData\Local\Temp\ccmFU017.s 			page 24


 1308      00000000 
 1309 0401 000000   		.align	2
 1310              		.type	_displaybuf, %object
 1311              		.size	_displaybuf, 4
 1312              	_displaybuf:
 1313 0404 01000000 		.word	SSD1306_buffer+1
 1314              		.align	1
 1315              		.type	_displaybuf_size, %object
 1316              		.size	_displaybuf_size, 2
 1317              	_displaybuf_size:
 1318 0408 0004     		.short	1024
 1319              		.section	.rodata
 1320 04fb 00       		.align	2
 1321              	.LC0:
 1322 04fc 00       		.byte	0
 1323 04fd AE       		.byte	-82
 1324 04fe D5       		.byte	-43
 1325 04ff 80       		.byte	-128
 1326 0500 A8       		.byte	-88
 1327 0501 3F       		.byte	63
 1328 0502 D3       		.byte	-45
 1329 0503 00       		.byte	0
 1330 0504 40       		.byte	64
 1331 0505 8D       		.byte	-115
 1332 0506 14       		.byte	20
 1333 0507 20       		.byte	32
 1334 0508 00       		.byte	0
 1335 0509 A1       		.byte	-95
 1336 050a C8       		.byte	-56
 1337 050b DA       		.byte	-38
 1338 050c 12       		.byte	18
 1339 050d 81       		.byte	-127
 1340 050e CF       		.byte	-49
 1341 050f D9       		.byte	-39
 1342 0510 F1       		.byte	-15
 1343 0511 DB       		.byte	-37
 1344 0512 40       		.byte	64
 1345 0513 A4       		.byte	-92
 1346 0514 A6       		.byte	-90
 1347 0515 AF       		.byte	-81
 1348              		.section	.text.display_init,"ax",%progbits
 1349              		.align	2
 1350              		.global	display_init
 1351              		.thumb
 1352              		.thumb_func
 1353              		.type	display_init, %function
 1354              	display_init:
 1355              	.LFB63:
 1356              		.file 1 "ssd1306.c"
   1:ssd1306.c     **** /*
   2:ssd1306.c     **** 
   3:ssd1306.c     **** SSD1306 OLED - I2C driver
   4:ssd1306.c     **** 
   5:ssd1306.c     **** Derk Steggewentz, 3/2015 
   6:ssd1306.c     **** 
   7:ssd1306.c     **** This is a I2C driver for SSD1306 OLED displays including graphics library.
   8:ssd1306.c     **** 
ARM GAS  C:\Users\mariu\AppData\Local\Temp\ccmFU017.s 			page 25


   9:ssd1306.c     **** 
  10:ssd1306.c     **** The graphics library part (gfx_ functions) is based on the Adafruit graphics library.
  11:ssd1306.c     **** 
  12:ssd1306.c     **** 
  13:ssd1306.c     **** No license restrictions on my part, do whatever you want as long as you follow the inherited
  14:ssd1306.c     **** license requirements (applying to the Adafruit graphics library part).
  15:ssd1306.c     **** 
  16:ssd1306.c     **** 
  17:ssd1306.c     **** ===== derived license (for graphics library) ======
  18:ssd1306.c     **** 
  19:ssd1306.c     **** Copyright (c) 2013 Adafruit Industries. All rights reserved.
  20:ssd1306.c     **** 
  21:ssd1306.c     **** Redistribution and use in source and binary forms, with or without
  22:ssd1306.c     **** modification, are permitted provided that the following conditions are met:
  23:ssd1306.c     **** - Redistributions of source code must retain the above copyright notice,
  24:ssd1306.c     **** this list of conditions and the following disclaimer.
  25:ssd1306.c     **** - Redistributions in binary form must reproduce the above copyright notice,
  26:ssd1306.c     **** this list of conditions and the following disclaimer in the documentation
  27:ssd1306.c     **** and/or other materials provided with the distribution.
  28:ssd1306.c     **** THIS SOFTWARE IS PROVIDED BY THE COPYRIGHT HOLDERS AND CONTRIBUTORS "AS IS"
  29:ssd1306.c     **** AND ANY EXPRESS OR IMPLIED WARRANTIES, INCLUDING, BUT NOT LIMITED TO, THE
  30:ssd1306.c     **** IMPLIED WARRANTIES OF MERCHANTABILITY AND FITNESS FOR A PARTICULAR PURPOSE
  31:ssd1306.c     **** ARE DISCLAIMED. IN NO EVENT SHALL THE COPYRIGHT HOLDER OR CONTRIBUTORS BE
  32:ssd1306.c     **** LIABLE FOR ANY DIRECT, INDIRECT, INCIDENTAL, SPECIAL, EXEMPLARY, OR
  33:ssd1306.c     **** CONSEQUENTIAL DAMAGES (INCLUDING, BUT NOT LIMITED TO, PROCUREMENT OF
  34:ssd1306.c     **** SUBSTITUTE GOODS OR SERVICES; LOSS OF USE, DATA, OR PROFITS; OR BUSINESS
  35:ssd1306.c     **** INTERRUPTION) HOWEVER CAUSED AND ON ANY THEORY OF LIABILITY, WHETHER IN
  36:ssd1306.c     **** CONTRACT, STRICT LIABILITY, OR TORT (INCLUDING NEGLIGENCE OR OTHERWISE)
  37:ssd1306.c     **** ARISING IN ANY WAY OUT OF THE USE OF THIS SOFTWARE, EVEN IF ADVISED OF THE
  38:ssd1306.c     **** POSSIBILITY OF SUCH DAMAGE.
  39:ssd1306.c     **** 
  40:ssd1306.c     **** */
  41:ssd1306.c     **** 
  42:ssd1306.c     **** 
  43:ssd1306.c     **** #include <project.h>
  44:ssd1306.c     **** #include <stdlib.h>
  45:ssd1306.c     **** 
  46:ssd1306.c     **** #include "font.h"
  47:ssd1306.c     **** #include "ssd1306.h"
  48:ssd1306.c     **** 
  49:ssd1306.c     **** 
  50:ssd1306.c     **** #define DISPLAYWIDTH 128
  51:ssd1306.c     **** #define DISPLAYHEIGHT 64
  52:ssd1306.c     ****     
  53:ssd1306.c     **** #define SSD1306_SETCONTRAST 0x81
  54:ssd1306.c     **** #define SSD1306_DISPLAYALLON_RESUME 0xA4
  55:ssd1306.c     **** #define SSD1306_DISPLAYALLON 0xA5
  56:ssd1306.c     **** #define SSD1306_NORMALDISPLAY 0xA6
  57:ssd1306.c     **** #define SSD1306_INVERTDISPLAY 0xA7
  58:ssd1306.c     **** #define SSD1306_DISPLAYOFF 0xAE
  59:ssd1306.c     **** #define SSD1306_DISPLAYON 0xAF
  60:ssd1306.c     **** #define SSD1306_SETDISPLAYOFFSET 0xD3
  61:ssd1306.c     **** #define SSD1306_SETCOMPINS 0xDA
  62:ssd1306.c     **** #define SSD1306_SETVCOMDETECT 0xDB
  63:ssd1306.c     **** #define SSD1306_SETDISPLAYCLOCKDIV 0xD5
  64:ssd1306.c     **** #define SSD1306_SETPRECHARGE 0xD9
  65:ssd1306.c     **** #define SSD1306_SETMULTIPLEX 0xA8
ARM GAS  C:\Users\mariu\AppData\Local\Temp\ccmFU017.s 			page 26


  66:ssd1306.c     **** #define SSD1306_SETLOWCOLUMN 0x00
  67:ssd1306.c     **** #define SSD1306_SETHIGHCOLUMN 0x10
  68:ssd1306.c     **** #define SSD1306_SETSTARTLINE 0x40
  69:ssd1306.c     **** #define SSD1306_MEMORYMODE 0x20
  70:ssd1306.c     **** #define SSD1306_COLUMNADDR 0x21
  71:ssd1306.c     **** #define SSD1306_PAGEADDR 0x22
  72:ssd1306.c     **** #define SSD1306_COMSCANINC 0xC0
  73:ssd1306.c     **** #define SSD1306_COMSCANDEC 0xC8
  74:ssd1306.c     **** #define SSD1306_SEGREMAP 0xA0
  75:ssd1306.c     **** #define SSD1306_CHARGEPUMP 0x8D
  76:ssd1306.c     **** #define SSD1306_EXTERNALVCC 0x1
  77:ssd1306.c     **** #define SSD1306_SWITCHCAPVCC 0x2
  78:ssd1306.c     **** #define SSD1306_ACTIVATE_SCROLL 0x2F
  79:ssd1306.c     **** #define SSD1306_DEACTIVATE_SCROLL 0x2E
  80:ssd1306.c     **** 
  81:ssd1306.c     **** 
  82:ssd1306.c     **** // I2C result status
  83:ssd1306.c     **** #define TRANSFER_CMPLT    (0x00u)
  84:ssd1306.c     **** #define TRANSFER_ERROR    (0xFFu)
  85:ssd1306.c     **** 
  86:ssd1306.c     **** 
  87:ssd1306.c     **** static uint32 display_write_buf( uint8* buf, uint16_t size );
  88:ssd1306.c     **** 
  89:ssd1306.c     **** void gfx_init( int16_t width, int16_t height );
  90:ssd1306.c     **** 
  91:ssd1306.c     **** static uint8 _i2caddr;
  92:ssd1306.c     **** 
  93:ssd1306.c     **** // display memory buffer ( === MUST INCLUDE === the preceding I2C 0x40 control byte for the display
  94:ssd1306.c     **** static uint8_t SSD1306_buffer[DISPLAYHEIGHT * DISPLAYWIDTH / 8 + 1] = { 0x40 };
  95:ssd1306.c     **** // pointer to actual display memory buffer
  96:ssd1306.c     **** static uint8_t* _displaybuf = SSD1306_buffer+1;
  97:ssd1306.c     **** static uint16_t _displaybuf_size = sizeof(SSD1306_buffer) - 1;
  98:ssd1306.c     **** 
  99:ssd1306.c     **** // see data sheet page 25 for Graphic Display Data RAM organization
 100:ssd1306.c     **** // 8 pages, each page a row of DISPLAYWIDTH bytes
 101:ssd1306.c     **** // start address of of row: y/8*DISPLAYWIDTH
 102:ssd1306.c     **** // x pos in row: == x 
 103:ssd1306.c     **** #define GDDRAM_ADDRESS(X,Y) ((_displaybuf)+((Y)/8)*(DISPLAYWIDTH)+(X))
 104:ssd1306.c     **** 
 105:ssd1306.c     **** // lower 3 bit of y determine vertical pixel position (pos 0...7) in GDDRAM byte
 106:ssd1306.c     **** // (y&0x07) == position of pixel on row (page). LSB is top, MSB bottom
 107:ssd1306.c     **** #define GDDRAM_PIXMASK(Y) (1 << ((Y)&0x07))
 108:ssd1306.c     **** 
 109:ssd1306.c     **** #define PIXEL_ON(X,Y) (*GDDRAM_ADDRESS(x,y) |= GDDRAM_PIXMASK(y))
 110:ssd1306.c     **** #define PIXEL_OFF(X,Y) (*GDDRAM_ADDRESS(x,y) &= ~GDDRAM_PIXMASK(y))
 111:ssd1306.c     **** #define PIXEL_TOGGLE(X,Y) (*GDDRAM_ADDRESS(x,y) ^= GDDRAM_PIXMASK(y)) 
 112:ssd1306.c     **** 
 113:ssd1306.c     **** 
 114:ssd1306.c     **** 
 115:ssd1306.c     **** // call before first use of other functions
 116:ssd1306.c     **** void display_init( uint8 i2caddr ){
 1357              		.loc 1 116 0
 1358              		.cfi_startproc
 1359              		@ args = 0, pretend = 0, frame = 40
 1360              		@ frame_needed = 1, uses_anonymous_args = 0
 1361 0000 B0B5     		push	{r4, r5, r7, lr}
 1362              		.cfi_def_cfa_offset 16
ARM GAS  C:\Users\mariu\AppData\Local\Temp\ccmFU017.s 			page 27


 1363              		.cfi_offset 4, -16
 1364              		.cfi_offset 5, -12
 1365              		.cfi_offset 7, -8
 1366              		.cfi_offset 14, -4
 1367 0002 8AB0     		sub	sp, sp, #40
 1368              		.cfi_def_cfa_offset 56
 1369 0004 00AF     		add	r7, sp, #0
 1370              		.cfi_def_cfa_register 7
 1371 0006 0346     		mov	r3, r0
 1372 0008 FB71     		strb	r3, [r7, #7]
 117:ssd1306.c     ****     
 118:ssd1306.c     ****     _i2caddr = i2caddr;
 1373              		.loc 1 118 0
 1374 000a 0F4A     		ldr	r2, .L2
 1375 000c FB79     		ldrb	r3, [r7, #7]
 1376 000e 1370     		strb	r3, [r2]
 119:ssd1306.c     ****     gfx_init( DISPLAYWIDTH, DISPLAYHEIGHT );
 1377              		.loc 1 119 0
 1378 0010 4021     		movs	r1, #64
 1379 0012 8020     		movs	r0, #128
 1380 0014 FFF7FEFF 		bl	gfx_init
 120:ssd1306.c     ****     
 121:ssd1306.c     ****     uint8 cmdbuf[] = {
 1381              		.loc 1 121 0
 1382 0018 0C4B     		ldr	r3, .L2+4
 1383 001a 07F10C04 		add	r4, r7, #12
 1384 001e 1D46     		mov	r5, r3
 1385 0020 2868     		ldr	r0, [r5]	@ unaligned
 1386 0022 6968     		ldr	r1, [r5, #4]	@ unaligned
 1387 0024 AA68     		ldr	r2, [r5, #8]	@ unaligned
 1388 0026 EB68     		ldr	r3, [r5, #12]	@ unaligned
 1389 0028 0FC4     		stmia	r4!, {r0, r1, r2, r3}
 1390 002a 2869     		ldr	r0, [r5, #16]	@ unaligned
 1391 002c 6969     		ldr	r1, [r5, #20]	@ unaligned
 1392 002e 03C4     		stmia	r4!, {r0, r1}
 1393 0030 2B8B     		ldrh	r3, [r5, #24]	@ unaligned
 1394 0032 2380     		strh	r3, [r4]	@ unaligned
 122:ssd1306.c     ****         0x00,
 123:ssd1306.c     ****         SSD1306_DISPLAYOFF,
 124:ssd1306.c     ****         SSD1306_SETDISPLAYCLOCKDIV,
 125:ssd1306.c     ****         0x80,
 126:ssd1306.c     ****         SSD1306_SETMULTIPLEX,
 127:ssd1306.c     ****         0x3f,
 128:ssd1306.c     ****         SSD1306_SETDISPLAYOFFSET,
 129:ssd1306.c     ****         0x00,
 130:ssd1306.c     ****         SSD1306_SETSTARTLINE | 0x0,
 131:ssd1306.c     ****         SSD1306_CHARGEPUMP,
 132:ssd1306.c     ****         0x14,
 133:ssd1306.c     ****         SSD1306_MEMORYMODE,
 134:ssd1306.c     ****         0x00,
 135:ssd1306.c     ****         SSD1306_SEGREMAP | 0x1,
 136:ssd1306.c     ****         SSD1306_COMSCANDEC,
 137:ssd1306.c     ****         SSD1306_SETCOMPINS,
 138:ssd1306.c     ****         0x12,
 139:ssd1306.c     ****         SSD1306_SETCONTRAST,
 140:ssd1306.c     ****         0xcf,
 141:ssd1306.c     ****         SSD1306_SETPRECHARGE,
ARM GAS  C:\Users\mariu\AppData\Local\Temp\ccmFU017.s 			page 28


 142:ssd1306.c     ****         0xf1,
 143:ssd1306.c     ****         SSD1306_SETVCOMDETECT,
 144:ssd1306.c     ****         0x40,
 145:ssd1306.c     ****         SSD1306_DISPLAYALLON_RESUME,
 146:ssd1306.c     ****         SSD1306_NORMALDISPLAY,
 147:ssd1306.c     ****         SSD1306_DISPLAYON
 148:ssd1306.c     ****     };
 149:ssd1306.c     ****     
 150:ssd1306.c     ****     display_write_buf( cmdbuf, sizeof(cmdbuf) ); 
 1395              		.loc 1 150 0
 1396 0034 07F10C03 		add	r3, r7, #12
 1397 0038 1A21     		movs	r1, #26
 1398 003a 1846     		mov	r0, r3
 1399 003c FFF7FEFF 		bl	display_write_buf
 151:ssd1306.c     **** }
 1400              		.loc 1 151 0
 1401 0040 00BF     		nop
 1402 0042 2837     		adds	r7, r7, #40
 1403              		.cfi_def_cfa_offset 16
 1404 0044 BD46     		mov	sp, r7
 1405              		.cfi_def_cfa_register 13
 1406              		@ sp needed
 1407 0046 B0BD     		pop	{r4, r5, r7, pc}
 1408              	.L3:
 1409              		.align	2
 1410              	.L2:
 1411 0048 00000000 		.word	_i2caddr
 1412 004c FC040000 		.word	.LC0
 1413              		.cfi_endproc
 1414              	.LFE63:
 1415              		.size	display_init, .-display_init
 1416              		.section	.text.display_write_buf,"ax",%progbits
 1417              		.align	2
 1418              		.thumb
 1419              		.thumb_func
 1420              		.type	display_write_buf, %function
 1421              	display_write_buf:
 1422              	.LFB64:
 152:ssd1306.c     **** 
 153:ssd1306.c     **** 
 154:ssd1306.c     **** // for submitting command sequences:
 155:ssd1306.c     **** //  buf[0] must be 0x00
 156:ssd1306.c     **** // for submitting bulk data (writing to display RAM):
 157:ssd1306.c     **** //  buf[0] must be 0x40
 158:ssd1306.c     **** static uint32 display_write_buf( uint8* buf, uint16_t size ){
 1423              		.loc 1 158 0
 1424              		.cfi_startproc
 1425              		@ args = 0, pretend = 0, frame = 16
 1426              		@ frame_needed = 1, uses_anonymous_args = 0
 1427 0000 80B5     		push	{r7, lr}
 1428              		.cfi_def_cfa_offset 8
 1429              		.cfi_offset 7, -8
 1430              		.cfi_offset 14, -4
 1431 0002 84B0     		sub	sp, sp, #16
 1432              		.cfi_def_cfa_offset 24
 1433 0004 00AF     		add	r7, sp, #0
 1434              		.cfi_def_cfa_register 7
ARM GAS  C:\Users\mariu\AppData\Local\Temp\ccmFU017.s 			page 29


 1435 0006 7860     		str	r0, [r7, #4]
 1436 0008 0B46     		mov	r3, r1
 1437 000a 7B80     		strh	r3, [r7, #2]	@ movhi
 159:ssd1306.c     **** 
 160:ssd1306.c     ****     uint32 status = TRANSFER_ERROR;
 1438              		.loc 1 160 0
 1439 000c FF23     		movs	r3, #255
 1440 000e FB60     		str	r3, [r7, #12]
 161:ssd1306.c     ****     I2COLED_MasterSendStart(_i2caddr,I2COLED_WRITE_XFER_MODE);
 1441              		.loc 1 161 0
 1442 0010 0F4B     		ldr	r3, .L8
 1443 0012 1B78     		ldrb	r3, [r3]	@ zero_extendqisi2
 1444 0014 0021     		movs	r1, #0
 1445 0016 1846     		mov	r0, r3
 1446 0018 FFF7FEFF 		bl	I2COLED_MasterSendStart
 1447              	.LBB2:
 162:ssd1306.c     ****     
 163:ssd1306.c     ****     for(int i=0; i<size; i++){  
 1448              		.loc 1 163 0
 1449 001c 0023     		movs	r3, #0
 1450 001e BB60     		str	r3, [r7, #8]
 1451 0020 0BE0     		b	.L5
 1452              	.L6:
 164:ssd1306.c     ****         status=I2COLED_MasterWriteByte(buf[i]);
 1453              		.loc 1 164 0 discriminator 3
 1454 0022 BB68     		ldr	r3, [r7, #8]
 1455 0024 7A68     		ldr	r2, [r7, #4]
 1456 0026 1344     		add	r3, r3, r2
 1457 0028 1B78     		ldrb	r3, [r3]	@ zero_extendqisi2
 1458 002a 1846     		mov	r0, r3
 1459 002c FFF7FEFF 		bl	I2COLED_MasterWriteByte
 1460 0030 0346     		mov	r3, r0
 1461 0032 FB60     		str	r3, [r7, #12]
 163:ssd1306.c     ****         status=I2COLED_MasterWriteByte(buf[i]);
 1462              		.loc 1 163 0 discriminator 3
 1463 0034 BB68     		ldr	r3, [r7, #8]
 1464 0036 0133     		adds	r3, r3, #1
 1465 0038 BB60     		str	r3, [r7, #8]
 1466              	.L5:
 163:ssd1306.c     ****         status=I2COLED_MasterWriteByte(buf[i]);
 1467              		.loc 1 163 0 is_stmt 0 discriminator 1
 1468 003a 7A88     		ldrh	r2, [r7, #2]
 1469 003c BB68     		ldr	r3, [r7, #8]
 1470 003e 9A42     		cmp	r2, r3
 1471 0040 EFDC     		bgt	.L6
 1472              	.LBE2:
 165:ssd1306.c     ****     }
 166:ssd1306.c     ****     I2COLED_MasterSendStop();
 1473              		.loc 1 166 0 is_stmt 1
 1474 0042 FFF7FEFF 		bl	I2COLED_MasterSendStop
 167:ssd1306.c     ****     return status;
 1475              		.loc 1 167 0
 1476 0046 FB68     		ldr	r3, [r7, #12]
 168:ssd1306.c     **** }
 1477              		.loc 1 168 0
 1478 0048 1846     		mov	r0, r3
 1479 004a 1037     		adds	r7, r7, #16
ARM GAS  C:\Users\mariu\AppData\Local\Temp\ccmFU017.s 			page 30


 1480              		.cfi_def_cfa_offset 8
 1481 004c BD46     		mov	sp, r7
 1482              		.cfi_def_cfa_register 13
 1483              		@ sp needed
 1484 004e 80BD     		pop	{r7, pc}
 1485              	.L9:
 1486              		.align	2
 1487              	.L8:
 1488 0050 00000000 		.word	_i2caddr
 1489              		.cfi_endproc
 1490              	.LFE64:
 1491              		.size	display_write_buf, .-display_write_buf
 1492              		.section	.text.display_setPixel,"ax",%progbits
 1493              		.align	2
 1494              		.thumb
 1495              		.thumb_func
 1496              		.type	display_setPixel, %function
 1497              	display_setPixel:
 1498              	.LFB65:
 169:ssd1306.c     **** 
 170:ssd1306.c     **** 
 171:ssd1306.c     **** // used by gfx_ functions. Needs to be implemented by display_
 172:ssd1306.c     **** static void display_setPixel( int16_t x, int16_t y, uint16_t color ){
 1499              		.loc 1 172 0
 1500              		.cfi_startproc
 1501              		@ args = 0, pretend = 0, frame = 8
 1502              		@ frame_needed = 1, uses_anonymous_args = 0
 1503              		@ link register save eliminated.
 1504 0000 80B4     		push	{r7}
 1505              		.cfi_def_cfa_offset 4
 1506              		.cfi_offset 7, -4
 1507 0002 83B0     		sub	sp, sp, #12
 1508              		.cfi_def_cfa_offset 16
 1509 0004 00AF     		add	r7, sp, #0
 1510              		.cfi_def_cfa_register 7
 1511 0006 0346     		mov	r3, r0
 1512 0008 FB80     		strh	r3, [r7, #6]	@ movhi
 1513 000a 0B46     		mov	r3, r1	@ movhi
 1514 000c BB80     		strh	r3, [r7, #4]	@ movhi
 1515 000e 1346     		mov	r3, r2	@ movhi
 1516 0010 7B80     		strh	r3, [r7, #2]	@ movhi
 173:ssd1306.c     ****     
 174:ssd1306.c     ****     if( (x < 0) || (x >= DISPLAYWIDTH) || (y < 0) || (y >= DISPLAYHEIGHT) )
 1517              		.loc 1 174 0
 1518 0012 B7F90630 		ldrsh	r3, [r7, #6]
 1519 0016 002B     		cmp	r3, #0
 1520 0018 C0F28E80 		blt	.L20
 1521              		.loc 1 174 0 is_stmt 0 discriminator 1
 1522 001c B7F90630 		ldrsh	r3, [r7, #6]
 1523 0020 7F2B     		cmp	r3, #127
 1524 0022 00F38980 		bgt	.L20
 1525              		.loc 1 174 0 discriminator 2
 1526 0026 B7F90430 		ldrsh	r3, [r7, #4]
 1527 002a 002B     		cmp	r3, #0
 1528 002c C0F28480 		blt	.L20
 1529              		.loc 1 174 0 discriminator 3
 1530 0030 B7F90430 		ldrsh	r3, [r7, #4]
ARM GAS  C:\Users\mariu\AppData\Local\Temp\ccmFU017.s 			page 31


 1531 0034 3F2B     		cmp	r3, #63
 1532 0036 7FDC     		bgt	.L20
 175:ssd1306.c     ****         return;
 176:ssd1306.c     **** 
 177:ssd1306.c     ****     switch( color ){
 1533              		.loc 1 177 0 is_stmt 1
 1534 0038 7B88     		ldrh	r3, [r7, #2]
 1535 003a 012B     		cmp	r3, #1
 1536 003c 04D0     		beq	.L14
 1537 003e 022B     		cmp	r3, #2
 1538 0040 52D0     		beq	.L15
 1539 0042 002B     		cmp	r3, #0
 1540 0044 27D0     		beq	.L16
 1541 0046 78E0     		b	.L10
 1542              	.L14:
 178:ssd1306.c     ****         case WHITE: 
 179:ssd1306.c     ****             PIXEL_ON(x,y);
 1543              		.loc 1 179 0
 1544 0048 3E4B     		ldr	r3, .L21
 1545 004a 1A68     		ldr	r2, [r3]
 1546 004c B7F90430 		ldrsh	r3, [r7, #4]
 1547 0050 002B     		cmp	r3, #0
 1548 0052 00DA     		bge	.L17
 1549 0054 0733     		adds	r3, r3, #7
 1550              	.L17:
 1551 0056 DB10     		asrs	r3, r3, #3
 1552 0058 18B2     		sxth	r0, r3
 1553 005a 0346     		mov	r3, r0
 1554 005c DB01     		lsls	r3, r3, #7
 1555 005e 1946     		mov	r1, r3
 1556 0060 B7F90630 		ldrsh	r3, [r7, #6]
 1557 0064 0B44     		add	r3, r3, r1
 1558 0066 1344     		add	r3, r3, r2
 1559 0068 364A     		ldr	r2, .L21
 1560 006a 1168     		ldr	r1, [r2]
 1561 006c 0246     		mov	r2, r0
 1562 006e D201     		lsls	r2, r2, #7
 1563 0070 1046     		mov	r0, r2
 1564 0072 B7F90620 		ldrsh	r2, [r7, #6]
 1565 0076 0244     		add	r2, r2, r0
 1566 0078 0A44     		add	r2, r2, r1
 1567 007a 1278     		ldrb	r2, [r2]	@ zero_extendqisi2
 1568 007c 51B2     		sxtb	r1, r2
 1569 007e BA88     		ldrh	r2, [r7, #4]
 1570 0080 02F00702 		and	r2, r2, #7
 1571 0084 0120     		movs	r0, #1
 1572 0086 00FA02F2 		lsl	r2, r0, r2
 1573 008a 52B2     		sxtb	r2, r2
 1574 008c 0A43     		orrs	r2, r2, r1
 1575 008e 52B2     		sxtb	r2, r2
 1576 0090 D2B2     		uxtb	r2, r2
 1577 0092 1A70     		strb	r2, [r3]
 180:ssd1306.c     ****             break;
 1578              		.loc 1 180 0
 1579 0094 51E0     		b	.L10
 1580              	.L16:
 181:ssd1306.c     ****         case BLACK:
ARM GAS  C:\Users\mariu\AppData\Local\Temp\ccmFU017.s 			page 32


 182:ssd1306.c     ****             PIXEL_OFF(x,y);
 1581              		.loc 1 182 0
 1582 0096 2B4B     		ldr	r3, .L21
 1583 0098 1A68     		ldr	r2, [r3]
 1584 009a B7F90430 		ldrsh	r3, [r7, #4]
 1585 009e 002B     		cmp	r3, #0
 1586 00a0 00DA     		bge	.L18
 1587 00a2 0733     		adds	r3, r3, #7
 1588              	.L18:
 1589 00a4 DB10     		asrs	r3, r3, #3
 1590 00a6 18B2     		sxth	r0, r3
 1591 00a8 0346     		mov	r3, r0
 1592 00aa DB01     		lsls	r3, r3, #7
 1593 00ac 1946     		mov	r1, r3
 1594 00ae B7F90630 		ldrsh	r3, [r7, #6]
 1595 00b2 0B44     		add	r3, r3, r1
 1596 00b4 1344     		add	r3, r3, r2
 1597 00b6 234A     		ldr	r2, .L21
 1598 00b8 1168     		ldr	r1, [r2]
 1599 00ba 0246     		mov	r2, r0
 1600 00bc D201     		lsls	r2, r2, #7
 1601 00be 1046     		mov	r0, r2
 1602 00c0 B7F90620 		ldrsh	r2, [r7, #6]
 1603 00c4 0244     		add	r2, r2, r0
 1604 00c6 0A44     		add	r2, r2, r1
 1605 00c8 1278     		ldrb	r2, [r2]	@ zero_extendqisi2
 1606 00ca 51B2     		sxtb	r1, r2
 1607 00cc BA88     		ldrh	r2, [r7, #4]
 1608 00ce 02F00702 		and	r2, r2, #7
 1609 00d2 0120     		movs	r0, #1
 1610 00d4 00FA02F2 		lsl	r2, r0, r2
 1611 00d8 52B2     		sxtb	r2, r2
 1612 00da D243     		mvns	r2, r2
 1613 00dc 52B2     		sxtb	r2, r2
 1614 00de 0A40     		ands	r2, r2, r1
 1615 00e0 52B2     		sxtb	r2, r2
 1616 00e2 D2B2     		uxtb	r2, r2
 1617 00e4 1A70     		strb	r2, [r3]
 183:ssd1306.c     ****             break;
 1618              		.loc 1 183 0
 1619 00e6 28E0     		b	.L10
 1620              	.L15:
 184:ssd1306.c     ****         case INVERSE: 
 185:ssd1306.c     ****             PIXEL_TOGGLE(x,y);
 1621              		.loc 1 185 0
 1622 00e8 164B     		ldr	r3, .L21
 1623 00ea 1A68     		ldr	r2, [r3]
 1624 00ec B7F90430 		ldrsh	r3, [r7, #4]
 1625 00f0 002B     		cmp	r3, #0
 1626 00f2 00DA     		bge	.L19
 1627 00f4 0733     		adds	r3, r3, #7
 1628              	.L19:
 1629 00f6 DB10     		asrs	r3, r3, #3
 1630 00f8 18B2     		sxth	r0, r3
 1631 00fa 0346     		mov	r3, r0
 1632 00fc DB01     		lsls	r3, r3, #7
 1633 00fe 1946     		mov	r1, r3
ARM GAS  C:\Users\mariu\AppData\Local\Temp\ccmFU017.s 			page 33


 1634 0100 B7F90630 		ldrsh	r3, [r7, #6]
 1635 0104 0B44     		add	r3, r3, r1
 1636 0106 1344     		add	r3, r3, r2
 1637 0108 0E4A     		ldr	r2, .L21
 1638 010a 1168     		ldr	r1, [r2]
 1639 010c 0246     		mov	r2, r0
 1640 010e D201     		lsls	r2, r2, #7
 1641 0110 1046     		mov	r0, r2
 1642 0112 B7F90620 		ldrsh	r2, [r7, #6]
 1643 0116 0244     		add	r2, r2, r0
 1644 0118 0A44     		add	r2, r2, r1
 1645 011a 1278     		ldrb	r2, [r2]	@ zero_extendqisi2
 1646 011c 51B2     		sxtb	r1, r2
 1647 011e BA88     		ldrh	r2, [r7, #4]
 1648 0120 02F00702 		and	r2, r2, #7
 1649 0124 0120     		movs	r0, #1
 1650 0126 00FA02F2 		lsl	r2, r0, r2
 1651 012a 52B2     		sxtb	r2, r2
 1652 012c 4A40     		eors	r2, r2, r1
 1653 012e 52B2     		sxtb	r2, r2
 1654 0130 D2B2     		uxtb	r2, r2
 1655 0132 1A70     		strb	r2, [r3]
 186:ssd1306.c     ****             break;
 1656              		.loc 1 186 0
 1657 0134 00BF     		nop
 1658 0136 00E0     		b	.L10
 1659              	.L20:
 175:ssd1306.c     **** 
 1660              		.loc 1 175 0
 1661 0138 00BF     		nop
 1662              	.L10:
 187:ssd1306.c     ****     }
 188:ssd1306.c     **** }
 1663              		.loc 1 188 0
 1664 013a 0C37     		adds	r7, r7, #12
 1665              		.cfi_def_cfa_offset 4
 1666 013c BD46     		mov	sp, r7
 1667              		.cfi_def_cfa_register 13
 1668              		@ sp needed
 1669 013e 80BC     		pop	{r7}
 1670              		.cfi_restore 7
 1671              		.cfi_def_cfa_offset 0
 1672 0140 7047     		bx	lr
 1673              	.L22:
 1674 0142 00BF     		.align	2
 1675              	.L21:
 1676 0144 04040000 		.word	_displaybuf
 1677              		.cfi_endproc
 1678              	.LFE65:
 1679              		.size	display_setPixel, .-display_setPixel
 1680              		.section	.text.display_clear,"ax",%progbits
 1681              		.align	2
 1682              		.global	display_clear
 1683              		.thumb
 1684              		.thumb_func
 1685              		.type	display_clear, %function
 1686              	display_clear:
ARM GAS  C:\Users\mariu\AppData\Local\Temp\ccmFU017.s 			page 34


 1687              	.LFB66:
 189:ssd1306.c     **** 
 190:ssd1306.c     **** 
 191:ssd1306.c     **** void display_clear(void){
 1688              		.loc 1 191 0
 1689              		.cfi_startproc
 1690              		@ args = 0, pretend = 0, frame = 0
 1691              		@ frame_needed = 1, uses_anonymous_args = 0
 1692 0000 80B5     		push	{r7, lr}
 1693              		.cfi_def_cfa_offset 8
 1694              		.cfi_offset 7, -8
 1695              		.cfi_offset 14, -4
 1696 0002 00AF     		add	r7, sp, #0
 1697              		.cfi_def_cfa_register 7
 192:ssd1306.c     ****     memset( _displaybuf, 0, _displaybuf_size );
 1698              		.loc 1 192 0
 1699 0004 064B     		ldr	r3, .L24
 1700 0006 1868     		ldr	r0, [r3]
 1701 0008 064B     		ldr	r3, .L24+4
 1702 000a 1B88     		ldrh	r3, [r3]
 1703 000c 1A46     		mov	r2, r3
 1704 000e 0021     		movs	r1, #0
 1705 0010 FFF7FEFF 		bl	memset
 193:ssd1306.c     ****     SSD1306_buffer[0] = 0x40; // to be sure its there
 1706              		.loc 1 193 0
 1707 0014 044B     		ldr	r3, .L24+8
 1708 0016 4022     		movs	r2, #64
 1709 0018 1A70     		strb	r2, [r3]
 194:ssd1306.c     **** }
 1710              		.loc 1 194 0
 1711 001a 00BF     		nop
 1712 001c 80BD     		pop	{r7, pc}
 1713              	.L25:
 1714 001e 00BF     		.align	2
 1715              	.L24:
 1716 0020 04040000 		.word	_displaybuf
 1717 0024 08040000 		.word	_displaybuf_size
 1718 0028 00000000 		.word	SSD1306_buffer
 1719              		.cfi_endproc
 1720              	.LFE66:
 1721              		.size	display_clear, .-display_clear
 1722              		.section	.text.display_contrast,"ax",%progbits
 1723              		.align	2
 1724              		.global	display_contrast
 1725              		.thumb
 1726              		.thumb_func
 1727              		.type	display_contrast, %function
 1728              	display_contrast:
 1729              	.LFB67:
 195:ssd1306.c     **** 
 196:ssd1306.c     **** 
 197:ssd1306.c     **** // contrast: 0 ...255
 198:ssd1306.c     **** void display_contrast( uint8_t contrast ){
 1730              		.loc 1 198 0
 1731              		.cfi_startproc
 1732              		@ args = 0, pretend = 0, frame = 16
 1733              		@ frame_needed = 1, uses_anonymous_args = 0
ARM GAS  C:\Users\mariu\AppData\Local\Temp\ccmFU017.s 			page 35


 1734 0000 80B5     		push	{r7, lr}
 1735              		.cfi_def_cfa_offset 8
 1736              		.cfi_offset 7, -8
 1737              		.cfi_offset 14, -4
 1738 0002 84B0     		sub	sp, sp, #16
 1739              		.cfi_def_cfa_offset 24
 1740 0004 00AF     		add	r7, sp, #0
 1741              		.cfi_def_cfa_register 7
 1742 0006 0346     		mov	r3, r0
 1743 0008 FB71     		strb	r3, [r7, #7]
 199:ssd1306.c     ****         
 200:ssd1306.c     ****     uint8 cmdbuf[] = {
 1744              		.loc 1 200 0
 1745 000a 0023     		movs	r3, #0
 1746 000c 3B73     		strb	r3, [r7, #12]
 1747 000e 8123     		movs	r3, #129
 1748 0010 7B73     		strb	r3, [r7, #13]
 1749 0012 FB79     		ldrb	r3, [r7, #7]
 1750 0014 BB73     		strb	r3, [r7, #14]
 201:ssd1306.c     ****         0x00,  
 202:ssd1306.c     ****         SSD1306_SETCONTRAST,
 203:ssd1306.c     ****         contrast
 204:ssd1306.c     ****     };
 205:ssd1306.c     ****     display_write_buf( cmdbuf, sizeof(cmdbuf) ); 
 1751              		.loc 1 205 0
 1752 0016 07F10C03 		add	r3, r7, #12
 1753 001a 0321     		movs	r1, #3
 1754 001c 1846     		mov	r0, r3
 1755 001e FFF7FEFF 		bl	display_write_buf
 206:ssd1306.c     **** }
 1756              		.loc 1 206 0
 1757 0022 00BF     		nop
 1758 0024 1037     		adds	r7, r7, #16
 1759              		.cfi_def_cfa_offset 8
 1760 0026 BD46     		mov	sp, r7
 1761              		.cfi_def_cfa_register 13
 1762              		@ sp needed
 1763 0028 80BD     		pop	{r7, pc}
 1764              		.cfi_endproc
 1765              	.LFE67:
 1766              		.size	display_contrast, .-display_contrast
 1767 002a 00BF     		.section	.text.display_invert,"ax",%progbits
 1768              		.align	2
 1769              		.global	display_invert
 1770              		.thumb
 1771              		.thumb_func
 1772              		.type	display_invert, %function
 1773              	display_invert:
 1774              	.LFB68:
 207:ssd1306.c     **** 
 208:ssd1306.c     **** 
 209:ssd1306.c     **** // invert <> 0 for inverse display, invert == 0 for normal display
 210:ssd1306.c     **** void display_invert( uint8_t invert ){
 1775              		.loc 1 210 0
 1776              		.cfi_startproc
 1777              		@ args = 0, pretend = 0, frame = 16
 1778              		@ frame_needed = 1, uses_anonymous_args = 0
ARM GAS  C:\Users\mariu\AppData\Local\Temp\ccmFU017.s 			page 36


 1779 0000 80B5     		push	{r7, lr}
 1780              		.cfi_def_cfa_offset 8
 1781              		.cfi_offset 7, -8
 1782              		.cfi_offset 14, -4
 1783 0002 84B0     		sub	sp, sp, #16
 1784              		.cfi_def_cfa_offset 24
 1785 0004 00AF     		add	r7, sp, #0
 1786              		.cfi_def_cfa_register 7
 1787 0006 0346     		mov	r3, r0
 1788 0008 FB71     		strb	r3, [r7, #7]
 211:ssd1306.c     **** 
 212:ssd1306.c     ****     uint8 cmdbuf[] = {
 1789              		.loc 1 212 0
 1790 000a 0023     		movs	r3, #0
 1791 000c 3B73     		strb	r3, [r7, #12]
 1792 000e 0023     		movs	r3, #0
 1793 0010 7B73     		strb	r3, [r7, #13]
 213:ssd1306.c     ****         0x00,  
 214:ssd1306.c     ****         0
 215:ssd1306.c     ****     };
 216:ssd1306.c     ****     cmdbuf[1] = invert ? SSD1306_INVERTDISPLAY : SSD1306_NORMALDISPLAY;
 1794              		.loc 1 216 0
 1795 0012 FB79     		ldrb	r3, [r7, #7]	@ zero_extendqisi2
 1796 0014 002B     		cmp	r3, #0
 1797 0016 01D0     		beq	.L28
 1798              		.loc 1 216 0 is_stmt 0 discriminator 1
 1799 0018 A723     		movs	r3, #167
 1800 001a 00E0     		b	.L29
 1801              	.L28:
 1802              		.loc 1 216 0 discriminator 2
 1803 001c A623     		movs	r3, #166
 1804              	.L29:
 1805              		.loc 1 216 0 discriminator 4
 1806 001e 7B73     		strb	r3, [r7, #13]
 217:ssd1306.c     ****     display_write_buf( cmdbuf, sizeof(cmdbuf) ); 
 1807              		.loc 1 217 0 is_stmt 1 discriminator 4
 1808 0020 07F10C03 		add	r3, r7, #12
 1809 0024 0221     		movs	r1, #2
 1810 0026 1846     		mov	r0, r3
 1811 0028 FFF7FEFF 		bl	display_write_buf
 218:ssd1306.c     **** }
 1812              		.loc 1 218 0 discriminator 4
 1813 002c 00BF     		nop
 1814 002e 1037     		adds	r7, r7, #16
 1815              		.cfi_def_cfa_offset 8
 1816 0030 BD46     		mov	sp, r7
 1817              		.cfi_def_cfa_register 13
 1818              		@ sp needed
 1819 0032 80BD     		pop	{r7, pc}
 1820              		.cfi_endproc
 1821              	.LFE68:
 1822              		.size	display_invert, .-display_invert
 1823              		.section	.rodata
 1824 0516 0000     		.align	2
 1825              	.LC1:
 1826 0518 00       		.byte	0
 1827 0519 21       		.byte	33
ARM GAS  C:\Users\mariu\AppData\Local\Temp\ccmFU017.s 			page 37


 1828 051a 00       		.byte	0
 1829 051b 7F       		.byte	127
 1830 051c 22       		.byte	34
 1831 051d 00       		.byte	0
 1832 051e 07       		.byte	7
 1833              		.section	.text.display_update,"ax",%progbits
 1834              		.align	2
 1835              		.global	display_update
 1836              		.thumb
 1837              		.thumb_func
 1838              		.type	display_update, %function
 1839              	display_update:
 1840              	.LFB69:
 219:ssd1306.c     **** 
 220:ssd1306.c     **** 
 221:ssd1306.c     **** void display_update(void) {
 1841              		.loc 1 221 0
 1842              		.cfi_startproc
 1843              		@ args = 0, pretend = 0, frame = 8
 1844              		@ frame_needed = 1, uses_anonymous_args = 0
 1845 0000 80B5     		push	{r7, lr}
 1846              		.cfi_def_cfa_offset 8
 1847              		.cfi_offset 7, -8
 1848              		.cfi_offset 14, -4
 1849 0002 82B0     		sub	sp, sp, #8
 1850              		.cfi_def_cfa_offset 16
 1851 0004 00AF     		add	r7, sp, #0
 1852              		.cfi_def_cfa_register 7
 222:ssd1306.c     ****       
 223:ssd1306.c     ****     uint8 cmdbuf[] = {
 1853              		.loc 1 223 0
 1854 0006 0B4A     		ldr	r2, .L31
 1855 0008 3B46     		mov	r3, r7
 1856 000a 1068     		ldr	r0, [r2]	@ unaligned
 1857 000c 1860     		str	r0, [r3]	@ unaligned
 1858 000e 9188     		ldrh	r1, [r2, #4]	@ unaligned
 1859 0010 9279     		ldrb	r2, [r2, #6]
 1860 0012 9980     		strh	r1, [r3, #4]	@ unaligned
 1861 0014 9A71     		strb	r2, [r3, #6]
 224:ssd1306.c     ****         0x00,
 225:ssd1306.c     ****         SSD1306_COLUMNADDR,
 226:ssd1306.c     ****         0,                      // start
 227:ssd1306.c     ****         DISPLAYWIDTH-1, // end
 228:ssd1306.c     ****         SSD1306_PAGEADDR,
 229:ssd1306.c     ****         0,                      // start
 230:ssd1306.c     ****         7                       // end
 231:ssd1306.c     ****     };
 232:ssd1306.c     ****     display_write_buf( cmdbuf, sizeof(cmdbuf) ); 
 1862              		.loc 1 232 0
 1863 0016 3B46     		mov	r3, r7
 1864 0018 0721     		movs	r1, #7
 1865 001a 1846     		mov	r0, r3
 1866 001c FFF7FEFF 		bl	display_write_buf
 233:ssd1306.c     ****     display_write_buf( SSD1306_buffer, sizeof(SSD1306_buffer) );
 1867              		.loc 1 233 0
 1868 0020 40F20141 		movw	r1, #1025
 1869 0024 0448     		ldr	r0, .L31+4
ARM GAS  C:\Users\mariu\AppData\Local\Temp\ccmFU017.s 			page 38


 1870 0026 FFF7FEFF 		bl	display_write_buf
 234:ssd1306.c     **** }
 1871              		.loc 1 234 0
 1872 002a 00BF     		nop
 1873 002c 0837     		adds	r7, r7, #8
 1874              		.cfi_def_cfa_offset 8
 1875 002e BD46     		mov	sp, r7
 1876              		.cfi_def_cfa_register 13
 1877              		@ sp needed
 1878 0030 80BD     		pop	{r7, pc}
 1879              	.L32:
 1880 0032 00BF     		.align	2
 1881              	.L31:
 1882 0034 18050000 		.word	.LC1
 1883 0038 00000000 		.word	SSD1306_buffer
 1884              		.cfi_endproc
 1885              	.LFE69:
 1886              		.size	display_update, .-display_update
 1887              		.section	.text.display_line,"ax",%progbits
 1888              		.align	2
 1889              		.thumb
 1890              		.thumb_func
 1891              		.type	display_line, %function
 1892              	display_line:
 1893              	.LFB70:
 235:ssd1306.c     **** 
 236:ssd1306.c     **** 
 237:ssd1306.c     **** // draws horizontal or vertical line
 238:ssd1306.c     **** // Note: no check for valid coords, this needs to be done by caller
 239:ssd1306.c     **** // should only be called from gfx_hvline which is doing all validity checking
 240:ssd1306.c     **** static void display_line( int16_t x1, int16_t y1, int16_t x2, int16_t y2, uint16_t color ){
 1894              		.loc 1 240 0
 1895              		.cfi_startproc
 1896              		@ args = 4, pretend = 0, frame = 48
 1897              		@ frame_needed = 1, uses_anonymous_args = 0
 1898              		@ link register save eliminated.
 1899 0000 90B4     		push	{r4, r7}
 1900              		.cfi_def_cfa_offset 8
 1901              		.cfi_offset 4, -8
 1902              		.cfi_offset 7, -4
 1903 0002 8CB0     		sub	sp, sp, #48
 1904              		.cfi_def_cfa_offset 56
 1905 0004 00AF     		add	r7, sp, #0
 1906              		.cfi_def_cfa_register 7
 1907 0006 0446     		mov	r4, r0
 1908 0008 0846     		mov	r0, r1
 1909 000a 1146     		mov	r1, r2
 1910 000c 1A46     		mov	r2, r3
 1911 000e 2346     		mov	r3, r4	@ movhi
 1912 0010 FB80     		strh	r3, [r7, #6]	@ movhi
 1913 0012 0346     		mov	r3, r0	@ movhi
 1914 0014 BB80     		strh	r3, [r7, #4]	@ movhi
 1915 0016 0B46     		mov	r3, r1	@ movhi
 1916 0018 7B80     		strh	r3, [r7, #2]	@ movhi
 1917 001a 1346     		mov	r3, r2	@ movhi
 1918 001c 3B80     		strh	r3, [r7]	@ movhi
 241:ssd1306.c     **** 
ARM GAS  C:\Users\mariu\AppData\Local\Temp\ccmFU017.s 			page 39


 242:ssd1306.c     ****     if( x1 == x2 ){
 1919              		.loc 1 242 0
 1920 001e B7F90620 		ldrsh	r2, [r7, #6]
 1921 0022 B7F90230 		ldrsh	r3, [r7, #2]
 1922 0026 9A42     		cmp	r2, r3
 1923 0028 40F0B980 		bne	.L34
 1924              	.LBB3:
 243:ssd1306.c     ****         // vertical
 244:ssd1306.c     ****         uint8_t* pstart = GDDRAM_ADDRESS(x1,y1);
 1925              		.loc 1 244 0
 1926 002c 854B     		ldr	r3, .L63
 1927 002e 1A68     		ldr	r2, [r3]
 1928 0030 B7F90430 		ldrsh	r3, [r7, #4]
 1929 0034 002B     		cmp	r3, #0
 1930 0036 00DA     		bge	.L35
 1931 0038 0733     		adds	r3, r3, #7
 1932              	.L35:
 1933 003a DB10     		asrs	r3, r3, #3
 1934 003c 1BB2     		sxth	r3, r3
 1935 003e DB01     		lsls	r3, r3, #7
 1936 0040 1946     		mov	r1, r3
 1937 0042 B7F90630 		ldrsh	r3, [r7, #6]
 1938 0046 0B44     		add	r3, r3, r1
 1939 0048 1344     		add	r3, r3, r2
 1940 004a 3B62     		str	r3, [r7, #32]
 245:ssd1306.c     ****         uint8_t* pend = GDDRAM_ADDRESS(x2,y2);       
 1941              		.loc 1 245 0
 1942 004c 7D4B     		ldr	r3, .L63
 1943 004e 1A68     		ldr	r2, [r3]
 1944 0050 B7F90030 		ldrsh	r3, [r7]
 1945 0054 002B     		cmp	r3, #0
 1946 0056 00DA     		bge	.L36
 1947 0058 0733     		adds	r3, r3, #7
 1948              	.L36:
 1949 005a DB10     		asrs	r3, r3, #3
 1950 005c 1BB2     		sxth	r3, r3
 1951 005e DB01     		lsls	r3, r3, #7
 1952 0060 1946     		mov	r1, r3
 1953 0062 B7F90230 		ldrsh	r3, [r7, #2]
 1954 0066 0B44     		add	r3, r3, r1
 1955 0068 1344     		add	r3, r3, r2
 1956 006a FB61     		str	r3, [r7, #28]
 246:ssd1306.c     ****         uint8_t* ptr = pstart;             
 1957              		.loc 1 246 0
 1958 006c 3B6A     		ldr	r3, [r7, #32]
 1959 006e FB62     		str	r3, [r7, #44]
 247:ssd1306.c     ****         
 248:ssd1306.c     ****         while( ptr <= pend ){
 1960              		.loc 1 248 0
 1961 0070 8FE0     		b	.L37
 1962              	.L53:
 1963              	.LBB4:
 249:ssd1306.c     ****             
 250:ssd1306.c     ****             uint8_t mask;
 251:ssd1306.c     ****             if( ptr == pstart ){
 1964              		.loc 1 251 0
 1965 0072 FA6A     		ldr	r2, [r7, #44]
ARM GAS  C:\Users\mariu\AppData\Local\Temp\ccmFU017.s 			page 40


 1966 0074 3B6A     		ldr	r3, [r7, #32]
 1967 0076 9A42     		cmp	r2, r3
 1968 0078 2BD1     		bne	.L38
 1969              	.LBB5:
 252:ssd1306.c     ****                 // top
 253:ssd1306.c     ****                 uint8_t lbit = y1 % 8;
 1970              		.loc 1 253 0
 1971 007a B7F90420 		ldrsh	r2, [r7, #4]
 1972 007e 724B     		ldr	r3, .L63+4
 1973 0080 1340     		ands	r3, r3, r2
 1974 0082 002B     		cmp	r3, #0
 1975 0084 03DA     		bge	.L39
 1976 0086 013B     		subs	r3, r3, #1
 1977 0088 63F00703 		orn	r3, r3, #7
 1978 008c 0133     		adds	r3, r3, #1
 1979              	.L39:
 1980 008e 1BB2     		sxth	r3, r3
 1981 0090 FB76     		strb	r3, [r7, #27]
 254:ssd1306.c     ****                 // bottom (line can be very short, all inside this one byte)
 255:ssd1306.c     ****                 uint8_t ubit = lbit + y2 - y1;
 1982              		.loc 1 255 0
 1983 0092 3B88     		ldrh	r3, [r7]	@ movhi
 1984 0094 DAB2     		uxtb	r2, r3
 1985 0096 FB7E     		ldrb	r3, [r7, #27]
 1986 0098 1344     		add	r3, r3, r2
 1987 009a DAB2     		uxtb	r2, r3
 1988 009c BB88     		ldrh	r3, [r7, #4]	@ movhi
 1989 009e DBB2     		uxtb	r3, r3
 1990 00a0 D31A     		subs	r3, r2, r3
 1991 00a2 87F82A30 		strb	r3, [r7, #42]
 256:ssd1306.c     ****                 if( ubit >= 7 )
 1992              		.loc 1 256 0
 1993 00a6 97F82A30 		ldrb	r3, [r7, #42]	@ zero_extendqisi2
 1994 00aa 062B     		cmp	r3, #6
 1995 00ac 02D9     		bls	.L40
 257:ssd1306.c     ****                     ubit = 7;
 1996              		.loc 1 257 0
 1997 00ae 0723     		movs	r3, #7
 1998 00b0 87F82A30 		strb	r3, [r7, #42]
 1999              	.L40:
 258:ssd1306.c     ****                 mask = ((1 << (ubit-lbit+1)) - 1) << lbit;    
 2000              		.loc 1 258 0
 2001 00b4 97F82A20 		ldrb	r2, [r7, #42]	@ zero_extendqisi2
 2002 00b8 FB7E     		ldrb	r3, [r7, #27]	@ zero_extendqisi2
 2003 00ba D31A     		subs	r3, r2, r3
 2004 00bc 0133     		adds	r3, r3, #1
 2005 00be 0122     		movs	r2, #1
 2006 00c0 02FA03F3 		lsl	r3, r2, r3
 2007 00c4 5A1E     		subs	r2, r3, #1
 2008 00c6 FB7E     		ldrb	r3, [r7, #27]	@ zero_extendqisi2
 2009 00c8 02FA03F3 		lsl	r3, r2, r3
 2010 00cc 87F82B30 		strb	r3, [r7, #43]
 2011              	.LBE5:
 2012 00d0 15E0     		b	.L41
 2013              	.L38:
 259:ssd1306.c     ****             }else if( ptr == pend ){
 2014              		.loc 1 259 0
ARM GAS  C:\Users\mariu\AppData\Local\Temp\ccmFU017.s 			page 41


 2015 00d2 FA6A     		ldr	r2, [r7, #44]
 2016 00d4 FB69     		ldr	r3, [r7, #28]
 2017 00d6 9A42     		cmp	r2, r3
 2018 00d8 11D1     		bne	.L41
 260:ssd1306.c     ****                 // top is always bit 0, that makes it easy
 261:ssd1306.c     ****                 // bottom
 262:ssd1306.c     ****                 mask = (1 << (y2 % 8)) - 1;    
 2019              		.loc 1 262 0
 2020 00da B7F90020 		ldrsh	r2, [r7]
 2021 00de 5A4B     		ldr	r3, .L63+4
 2022 00e0 1340     		ands	r3, r3, r2
 2023 00e2 002B     		cmp	r3, #0
 2024 00e4 03DA     		bge	.L42
 2025 00e6 013B     		subs	r3, r3, #1
 2026 00e8 63F00703 		orn	r3, r3, #7
 2027 00ec 0133     		adds	r3, r3, #1
 2028              	.L42:
 2029 00ee 1BB2     		sxth	r3, r3
 2030 00f0 1A46     		mov	r2, r3
 2031 00f2 0123     		movs	r3, #1
 2032 00f4 9340     		lsls	r3, r3, r2
 2033 00f6 DBB2     		uxtb	r3, r3
 2034 00f8 013B     		subs	r3, r3, #1
 2035 00fa 87F82B30 		strb	r3, [r7, #43]
 2036              	.L41:
 263:ssd1306.c     ****             }
 264:ssd1306.c     **** 
 265:ssd1306.c     ****             if( ptr == pstart || ptr == pend ){
 2037              		.loc 1 265 0
 2038 00fe FA6A     		ldr	r2, [r7, #44]
 2039 0100 3B6A     		ldr	r3, [r7, #32]
 2040 0102 9A42     		cmp	r2, r3
 2041 0104 03D0     		beq	.L43
 2042              		.loc 1 265 0 is_stmt 0 discriminator 1
 2043 0106 FA6A     		ldr	r2, [r7, #44]
 2044 0108 FB69     		ldr	r3, [r7, #28]
 2045 010a 9A42     		cmp	r2, r3
 2046 010c 27D1     		bne	.L44
 2047              	.L43:
 266:ssd1306.c     ****                 switch( color ){
 2048              		.loc 1 266 0 is_stmt 1
 2049 010e 3B8F     		ldrh	r3, [r7, #56]
 2050 0110 012B     		cmp	r3, #1
 2051 0112 04D0     		beq	.L46
 2052 0114 022B     		cmp	r3, #2
 2053 0116 18D0     		beq	.L47
 2054 0118 002B     		cmp	r3, #0
 2055 011a 09D0     		beq	.L48
 267:ssd1306.c     ****                     case WHITE:     *ptr |= mask; break;
 268:ssd1306.c     ****                     case BLACK:     *ptr &= ~mask; break;
 269:ssd1306.c     ****                     case INVERSE:   *ptr ^= mask; break;
 270:ssd1306.c     ****                 };  
 2056              		.loc 1 270 0
 2057 011c 36E0     		b	.L49
 2058              	.L46:
 267:ssd1306.c     ****                     case WHITE:     *ptr |= mask; break;
 2059              		.loc 1 267 0
ARM GAS  C:\Users\mariu\AppData\Local\Temp\ccmFU017.s 			page 42


 2060 011e FB6A     		ldr	r3, [r7, #44]
 2061 0120 1A78     		ldrb	r2, [r3]	@ zero_extendqisi2
 2062 0122 97F82B30 		ldrb	r3, [r7, #43]
 2063 0126 1343     		orrs	r3, r3, r2
 2064 0128 DAB2     		uxtb	r2, r3
 2065 012a FB6A     		ldr	r3, [r7, #44]
 2066 012c 1A70     		strb	r2, [r3]
 2067 012e 15E0     		b	.L45
 2068              	.L48:
 268:ssd1306.c     ****                     case INVERSE:   *ptr ^= mask; break;
 2069              		.loc 1 268 0
 2070 0130 FB6A     		ldr	r3, [r7, #44]
 2071 0132 1B78     		ldrb	r3, [r3]	@ zero_extendqisi2
 2072 0134 5AB2     		sxtb	r2, r3
 2073 0136 97F92B30 		ldrsb	r3, [r7, #43]
 2074 013a DB43     		mvns	r3, r3
 2075 013c 5BB2     		sxtb	r3, r3
 2076 013e 1340     		ands	r3, r3, r2
 2077 0140 5BB2     		sxtb	r3, r3
 2078 0142 DAB2     		uxtb	r2, r3
 2079 0144 FB6A     		ldr	r3, [r7, #44]
 2080 0146 1A70     		strb	r2, [r3]
 2081 0148 08E0     		b	.L45
 2082              	.L47:
 269:ssd1306.c     ****                 };  
 2083              		.loc 1 269 0
 2084 014a FB6A     		ldr	r3, [r7, #44]
 2085 014c 1A78     		ldrb	r2, [r3]	@ zero_extendqisi2
 2086 014e 97F82B30 		ldrb	r3, [r7, #43]
 2087 0152 5340     		eors	r3, r3, r2
 2088 0154 DAB2     		uxtb	r2, r3
 2089 0156 FB6A     		ldr	r3, [r7, #44]
 2090 0158 1A70     		strb	r2, [r3]
 2091 015a 00BF     		nop
 2092              	.L45:
 2093              		.loc 1 270 0
 2094 015c 16E0     		b	.L49
 2095              	.L44:
 271:ssd1306.c     ****             }else{
 272:ssd1306.c     ****                 switch( color ){
 2096              		.loc 1 272 0
 2097 015e 3B8F     		ldrh	r3, [r7, #56]
 2098 0160 012B     		cmp	r3, #1
 2099 0162 04D0     		beq	.L50
 2100 0164 022B     		cmp	r3, #2
 2101 0166 0AD0     		beq	.L51
 2102 0168 002B     		cmp	r3, #0
 2103 016a 04D0     		beq	.L52
 2104 016c 0EE0     		b	.L49
 2105              	.L50:
 273:ssd1306.c     ****                     case WHITE:     *ptr = 0xff; break;
 2106              		.loc 1 273 0
 2107 016e FB6A     		ldr	r3, [r7, #44]
 2108 0170 FF22     		movs	r2, #255
 2109 0172 1A70     		strb	r2, [r3]
 2110 0174 0AE0     		b	.L49
 2111              	.L52:
ARM GAS  C:\Users\mariu\AppData\Local\Temp\ccmFU017.s 			page 43


 274:ssd1306.c     ****                     case BLACK:     *ptr = 0x00; break;
 2112              		.loc 1 274 0
 2113 0176 FB6A     		ldr	r3, [r7, #44]
 2114 0178 0022     		movs	r2, #0
 2115 017a 1A70     		strb	r2, [r3]
 2116 017c 06E0     		b	.L49
 2117              	.L51:
 275:ssd1306.c     ****                     case INVERSE:   *ptr ^= 0xff; break;
 2118              		.loc 1 275 0
 2119 017e FB6A     		ldr	r3, [r7, #44]
 2120 0180 1B78     		ldrb	r3, [r3]	@ zero_extendqisi2
 2121 0182 DB43     		mvns	r3, r3
 2122 0184 DAB2     		uxtb	r2, r3
 2123 0186 FB6A     		ldr	r3, [r7, #44]
 2124 0188 1A70     		strb	r2, [r3]
 2125 018a 00BF     		nop
 2126              	.L49:
 276:ssd1306.c     ****                 };  
 277:ssd1306.c     ****             }
 278:ssd1306.c     ****             
 279:ssd1306.c     ****             ptr += DISPLAYWIDTH;
 2127              		.loc 1 279 0
 2128 018c FB6A     		ldr	r3, [r7, #44]
 2129 018e 8033     		adds	r3, r3, #128
 2130 0190 FB62     		str	r3, [r7, #44]
 2131              	.L37:
 2132              	.LBE4:
 248:ssd1306.c     ****             
 2133              		.loc 1 248 0
 2134 0192 FA6A     		ldr	r2, [r7, #44]
 2135 0194 FB69     		ldr	r3, [r7, #28]
 2136 0196 9A42     		cmp	r2, r3
 2137 0198 7FF66BAF 		bls	.L53
 2138              	.LBE3:
 280:ssd1306.c     ****         }
 281:ssd1306.c     ****     }else{
 282:ssd1306.c     ****         // horizontal
 283:ssd1306.c     ****         uint8_t* pstart = GDDRAM_ADDRESS(x1,y1);
 284:ssd1306.c     ****         uint8_t* pend = pstart + x2 - x1;
 285:ssd1306.c     ****         uint8_t pixmask = GDDRAM_PIXMASK(y1);    
 286:ssd1306.c     **** 
 287:ssd1306.c     ****         uint8_t* ptr = pstart;
 288:ssd1306.c     ****         while( ptr <= pend ){
 289:ssd1306.c     ****             switch( color ){
 290:ssd1306.c     ****                 case WHITE:     *ptr |= pixmask; break;
 291:ssd1306.c     ****                 case BLACK:     *ptr &= ~pixmask; break;
 292:ssd1306.c     ****                 case INVERSE:   *ptr ^= pixmask; break;
 293:ssd1306.c     ****             };
 294:ssd1306.c     ****             ptr++;
 295:ssd1306.c     ****         }
 296:ssd1306.c     ****     }
 297:ssd1306.c     **** }
 2139              		.loc 1 297 0
 2140 019c 4DE0     		b	.L62
 2141              	.L34:
 2142              	.LBB6:
 283:ssd1306.c     ****         uint8_t* pend = pstart + x2 - x1;
ARM GAS  C:\Users\mariu\AppData\Local\Temp\ccmFU017.s 			page 44


 2143              		.loc 1 283 0
 2144 019e 294B     		ldr	r3, .L63
 2145 01a0 1A68     		ldr	r2, [r3]
 2146 01a2 B7F90430 		ldrsh	r3, [r7, #4]
 2147 01a6 002B     		cmp	r3, #0
 2148 01a8 00DA     		bge	.L55
 2149 01aa 0733     		adds	r3, r3, #7
 2150              	.L55:
 2151 01ac DB10     		asrs	r3, r3, #3
 2152 01ae 1BB2     		sxth	r3, r3
 2153 01b0 DB01     		lsls	r3, r3, #7
 2154 01b2 1946     		mov	r1, r3
 2155 01b4 B7F90630 		ldrsh	r3, [r7, #6]
 2156 01b8 0B44     		add	r3, r3, r1
 2157 01ba 1344     		add	r3, r3, r2
 2158 01bc 7B61     		str	r3, [r7, #20]
 284:ssd1306.c     ****         uint8_t pixmask = GDDRAM_PIXMASK(y1);    
 2159              		.loc 1 284 0
 2160 01be B7F90220 		ldrsh	r2, [r7, #2]
 2161 01c2 B7F90630 		ldrsh	r3, [r7, #6]
 2162 01c6 D31A     		subs	r3, r2, r3
 2163 01c8 7A69     		ldr	r2, [r7, #20]
 2164 01ca 1344     		add	r3, r3, r2
 2165 01cc 3B61     		str	r3, [r7, #16]
 285:ssd1306.c     **** 
 2166              		.loc 1 285 0
 2167 01ce BB88     		ldrh	r3, [r7, #4]
 2168 01d0 03F00703 		and	r3, r3, #7
 2169 01d4 0122     		movs	r2, #1
 2170 01d6 02FA03F3 		lsl	r3, r2, r3
 2171 01da FB73     		strb	r3, [r7, #15]
 287:ssd1306.c     ****         while( ptr <= pend ){
 2172              		.loc 1 287 0
 2173 01dc 7B69     		ldr	r3, [r7, #20]
 2174 01de 7B62     		str	r3, [r7, #36]
 288:ssd1306.c     ****             switch( color ){
 2175              		.loc 1 288 0
 2176 01e0 27E0     		b	.L56
 2177              	.L61:
 289:ssd1306.c     ****                 case WHITE:     *ptr |= pixmask; break;
 2178              		.loc 1 289 0
 2179 01e2 3B8F     		ldrh	r3, [r7, #56]
 2180 01e4 012B     		cmp	r3, #1
 2181 01e6 04D0     		beq	.L58
 2182 01e8 022B     		cmp	r3, #2
 2183 01ea 17D0     		beq	.L59
 2184 01ec 002B     		cmp	r3, #0
 2185 01ee 08D0     		beq	.L60
 2186 01f0 1CE0     		b	.L57
 2187              	.L58:
 290:ssd1306.c     ****                 case BLACK:     *ptr &= ~pixmask; break;
 2188              		.loc 1 290 0
 2189 01f2 7B6A     		ldr	r3, [r7, #36]
 2190 01f4 1A78     		ldrb	r2, [r3]	@ zero_extendqisi2
 2191 01f6 FB7B     		ldrb	r3, [r7, #15]
 2192 01f8 1343     		orrs	r3, r3, r2
 2193 01fa DAB2     		uxtb	r2, r3
ARM GAS  C:\Users\mariu\AppData\Local\Temp\ccmFU017.s 			page 45


 2194 01fc 7B6A     		ldr	r3, [r7, #36]
 2195 01fe 1A70     		strb	r2, [r3]
 2196 0200 14E0     		b	.L57
 2197              	.L60:
 291:ssd1306.c     ****                 case INVERSE:   *ptr ^= pixmask; break;
 2198              		.loc 1 291 0
 2199 0202 7B6A     		ldr	r3, [r7, #36]
 2200 0204 1B78     		ldrb	r3, [r3]	@ zero_extendqisi2
 2201 0206 5AB2     		sxtb	r2, r3
 2202 0208 97F90F30 		ldrsb	r3, [r7, #15]
 2203 020c DB43     		mvns	r3, r3
 2204 020e 5BB2     		sxtb	r3, r3
 2205 0210 1340     		ands	r3, r3, r2
 2206 0212 5BB2     		sxtb	r3, r3
 2207 0214 DAB2     		uxtb	r2, r3
 2208 0216 7B6A     		ldr	r3, [r7, #36]
 2209 0218 1A70     		strb	r2, [r3]
 2210 021a 07E0     		b	.L57
 2211              	.L59:
 292:ssd1306.c     ****             };
 2212              		.loc 1 292 0
 2213 021c 7B6A     		ldr	r3, [r7, #36]
 2214 021e 1A78     		ldrb	r2, [r3]	@ zero_extendqisi2
 2215 0220 FB7B     		ldrb	r3, [r7, #15]
 2216 0222 5340     		eors	r3, r3, r2
 2217 0224 DAB2     		uxtb	r2, r3
 2218 0226 7B6A     		ldr	r3, [r7, #36]
 2219 0228 1A70     		strb	r2, [r3]
 2220 022a 00BF     		nop
 2221              	.L57:
 294:ssd1306.c     ****         }
 2222              		.loc 1 294 0
 2223 022c 7B6A     		ldr	r3, [r7, #36]
 2224 022e 0133     		adds	r3, r3, #1
 2225 0230 7B62     		str	r3, [r7, #36]
 2226              	.L56:
 288:ssd1306.c     ****             switch( color ){
 2227              		.loc 1 288 0
 2228 0232 7A6A     		ldr	r2, [r7, #36]
 2229 0234 3B69     		ldr	r3, [r7, #16]
 2230 0236 9A42     		cmp	r2, r3
 2231 0238 D3D9     		bls	.L61
 2232              	.L62:
 2233              	.LBE6:
 2234              		.loc 1 297 0
 2235 023a 00BF     		nop
 2236 023c 3037     		adds	r7, r7, #48
 2237              		.cfi_def_cfa_offset 8
 2238 023e BD46     		mov	sp, r7
 2239              		.cfi_def_cfa_register 13
 2240              		@ sp needed
 2241 0240 90BC     		pop	{r4, r7}
 2242              		.cfi_restore 7
 2243              		.cfi_restore 4
 2244              		.cfi_def_cfa_offset 0
 2245 0242 7047     		bx	lr
 2246              	.L64:
ARM GAS  C:\Users\mariu\AppData\Local\Temp\ccmFU017.s 			page 46


 2247              		.align	2
 2248              	.L63:
 2249 0244 04040000 		.word	_displaybuf
 2250 0248 07000080 		.word	-2147483641
 2251              		.cfi_endproc
 2252              	.LFE70:
 2253              		.size	display_line, .-display_line
 2254              		.section	.text.display_stopscroll,"ax",%progbits
 2255              		.align	2
 2256              		.global	display_stopscroll
 2257              		.thumb
 2258              		.thumb_func
 2259              		.type	display_stopscroll, %function
 2260              	display_stopscroll:
 2261              	.LFB71:
 298:ssd1306.c     **** 
 299:ssd1306.c     **** 
 300:ssd1306.c     **** 
 301:ssd1306.c     **** void display_stopscroll(void){
 2262              		.loc 1 301 0
 2263              		.cfi_startproc
 2264              		@ args = 0, pretend = 0, frame = 8
 2265              		@ frame_needed = 1, uses_anonymous_args = 0
 2266 0000 80B5     		push	{r7, lr}
 2267              		.cfi_def_cfa_offset 8
 2268              		.cfi_offset 7, -8
 2269              		.cfi_offset 14, -4
 2270 0002 82B0     		sub	sp, sp, #8
 2271              		.cfi_def_cfa_offset 16
 2272 0004 00AF     		add	r7, sp, #0
 2273              		.cfi_def_cfa_register 7
 302:ssd1306.c     **** 
 303:ssd1306.c     ****     uint8 cmdbuf[] = {
 2274              		.loc 1 303 0
 2275 0006 0023     		movs	r3, #0
 2276 0008 3B71     		strb	r3, [r7, #4]
 2277 000a 2E23     		movs	r3, #46
 2278 000c 7B71     		strb	r3, [r7, #5]
 304:ssd1306.c     ****         0x00,
 305:ssd1306.c     ****         SSD1306_DEACTIVATE_SCROLL
 306:ssd1306.c     ****     };
 307:ssd1306.c     ****     display_write_buf( cmdbuf, sizeof(cmdbuf) ); 
 2279              		.loc 1 307 0
 2280 000e 3B1D     		adds	r3, r7, #4
 2281 0010 0221     		movs	r1, #2
 2282 0012 1846     		mov	r0, r3
 2283 0014 FFF7FEFF 		bl	display_write_buf
 308:ssd1306.c     **** }
 2284              		.loc 1 308 0
 2285 0018 00BF     		nop
 2286 001a 0837     		adds	r7, r7, #8
 2287              		.cfi_def_cfa_offset 8
 2288 001c BD46     		mov	sp, r7
 2289              		.cfi_def_cfa_register 13
 2290              		@ sp needed
 2291 001e 80BD     		pop	{r7, pc}
 2292              		.cfi_endproc
ARM GAS  C:\Users\mariu\AppData\Local\Temp\ccmFU017.s 			page 47


 2293              	.LFE71:
 2294              		.size	display_stopscroll, .-display_stopscroll
 2295              		.section	.text.display_scroll,"ax",%progbits
 2296              		.align	2
 2297              		.global	display_scroll
 2298              		.thumb
 2299              		.thumb_func
 2300              		.type	display_scroll, %function
 2301              	display_scroll:
 2302              	.LFB72:
 309:ssd1306.c     **** 
 310:ssd1306.c     **** void display_scroll( SCROLL_AREA start, SCROLL_AREA end, SCROLL_DIR dir, SCROLL_SPEED speed ){
 2303              		.loc 1 310 0
 2304              		.cfi_startproc
 2305              		@ args = 0, pretend = 0, frame = 24
 2306              		@ frame_needed = 1, uses_anonymous_args = 0
 2307 0000 90B5     		push	{r4, r7, lr}
 2308              		.cfi_def_cfa_offset 12
 2309              		.cfi_offset 4, -12
 2310              		.cfi_offset 7, -8
 2311              		.cfi_offset 14, -4
 2312 0002 87B0     		sub	sp, sp, #28
 2313              		.cfi_def_cfa_offset 40
 2314 0004 00AF     		add	r7, sp, #0
 2315              		.cfi_def_cfa_register 7
 2316 0006 0446     		mov	r4, r0
 2317 0008 0846     		mov	r0, r1
 2318 000a 1146     		mov	r1, r2
 2319 000c 1A46     		mov	r2, r3
 2320 000e 2346     		mov	r3, r4
 2321 0010 FB71     		strb	r3, [r7, #7]
 2322 0012 0346     		mov	r3, r0
 2323 0014 BB71     		strb	r3, [r7, #6]
 2324 0016 0B46     		mov	r3, r1
 2325 0018 7B71     		strb	r3, [r7, #5]
 2326 001a 1346     		mov	r3, r2
 2327 001c 3B71     		strb	r3, [r7, #4]
 311:ssd1306.c     ****    
 312:ssd1306.c     ****     uint8 cmdbuf[] = {
 2328              		.loc 1 312 0
 2329 001e 0023     		movs	r3, #0
 2330 0020 3B73     		strb	r3, [r7, #12]
 2331 0022 7B79     		ldrb	r3, [r7, #5]
 2332 0024 7B73     		strb	r3, [r7, #13]
 2333 0026 0023     		movs	r3, #0
 2334 0028 BB73     		strb	r3, [r7, #14]
 2335 002a FB79     		ldrb	r3, [r7, #7]
 2336 002c FB73     		strb	r3, [r7, #15]
 2337 002e 3B79     		ldrb	r3, [r7, #4]
 2338 0030 3B74     		strb	r3, [r7, #16]
 2339 0032 BB79     		ldrb	r3, [r7, #6]
 2340 0034 7B74     		strb	r3, [r7, #17]
 2341 0036 0023     		movs	r3, #0
 2342 0038 BB74     		strb	r3, [r7, #18]
 2343 003a FF23     		movs	r3, #255
 2344 003c FB74     		strb	r3, [r7, #19]
 2345 003e 2F23     		movs	r3, #47
ARM GAS  C:\Users\mariu\AppData\Local\Temp\ccmFU017.s 			page 48


 2346 0040 3B75     		strb	r3, [r7, #20]
 313:ssd1306.c     ****         0x00,
 314:ssd1306.c     ****         dir,                    // 0x26 or 0x2a
 315:ssd1306.c     ****         0x00,                   // dummy byte
 316:ssd1306.c     ****         start,                  // start page
 317:ssd1306.c     ****         speed,                  // scroll step interval in terms of frame frequency 
 318:ssd1306.c     ****         end,                    // end page
 319:ssd1306.c     ****         0x00,                   // dummy byte
 320:ssd1306.c     ****         0xFF,                   // dummy byte
 321:ssd1306.c     ****         SSD1306_ACTIVATE_SCROLL // 0x2F
 322:ssd1306.c     ****     };
 323:ssd1306.c     ****     display_write_buf( cmdbuf, sizeof(cmdbuf) ); 
 2347              		.loc 1 323 0
 2348 0042 07F10C03 		add	r3, r7, #12
 2349 0046 0921     		movs	r1, #9
 2350 0048 1846     		mov	r0, r3
 2351 004a FFF7FEFF 		bl	display_write_buf
 324:ssd1306.c     **** }
 2352              		.loc 1 324 0
 2353 004e 00BF     		nop
 2354 0050 1C37     		adds	r7, r7, #28
 2355              		.cfi_def_cfa_offset 12
 2356 0052 BD46     		mov	sp, r7
 2357              		.cfi_def_cfa_register 13
 2358              		@ sp needed
 2359 0054 90BD     		pop	{r4, r7, pc}
 2360              		.cfi_endproc
 2361              	.LFE72:
 2362              		.size	display_scroll, .-display_scroll
 2363              		.comm	WIDTH,2,2
 2364              		.comm	HEIGHT,2,2
 2365 0056 00BF     		.bss
 2366 0001 00       		.align	1
 2367              	_width:
 2368 0002 0000     		.space	2
 2369              		.align	1
 2370              	_height:
 2371 0004 0000     		.space	2
 2372              		.align	1
 2373              	cursor_x:
 2374 0006 0000     		.space	2
 2375              		.align	1
 2376              	cursor_y:
 2377 0008 0000     		.space	2
 2378              		.align	1
 2379              	textcolor:
 2380 000a 0000     		.space	2
 2381              		.align	1
 2382              	textbgcolor:
 2383 000c 0000     		.space	2
 2384              	textsize:
 2385 000e 00       		.space	1
 2386              		.comm	rotation,1,1
 2387              		.comm	wrap,1,1
 2388              		.section	.text.gfx_init,"ax",%progbits
 2389              		.align	2
 2390              		.global	gfx_init
ARM GAS  C:\Users\mariu\AppData\Local\Temp\ccmFU017.s 			page 49


 2391              		.thumb
 2392              		.thumb_func
 2393              		.type	gfx_init, %function
 2394              	gfx_init:
 2395              	.LFB73:
 325:ssd1306.c     **** 
 326:ssd1306.c     **** 
 327:ssd1306.c     **** 
 328:ssd1306.c     **** // ============================================================
 329:ssd1306.c     **** // graphics library stuff
 330:ssd1306.c     **** 
 331:ssd1306.c     **** int16_t WIDTH, HEIGHT; // This is the 'raw' display w/h - never changes
 332:ssd1306.c     **** static int16_t _width, _height; // Display w/h as modified by current rotation
 333:ssd1306.c     **** static int16_t cursor_x, cursor_y;
 334:ssd1306.c     **** static uint16_t textcolor, textbgcolor;
 335:ssd1306.c     **** static uint8_t textsize;
 336:ssd1306.c     **** uint8_t rotation;
 337:ssd1306.c     **** uint8_t wrap; // If set, 'wrap' text at right edge of display
 338:ssd1306.c     **** 
 339:ssd1306.c     **** 
 340:ssd1306.c     **** 
 341:ssd1306.c     **** void gfx_init( int16_t width, int16_t height ){
 2396              		.loc 1 341 0
 2397              		.cfi_startproc
 2398              		@ args = 0, pretend = 0, frame = 8
 2399              		@ frame_needed = 1, uses_anonymous_args = 0
 2400              		@ link register save eliminated.
 2401 0000 80B4     		push	{r7}
 2402              		.cfi_def_cfa_offset 4
 2403              		.cfi_offset 7, -4
 2404 0002 83B0     		sub	sp, sp, #12
 2405              		.cfi_def_cfa_offset 16
 2406 0004 00AF     		add	r7, sp, #0
 2407              		.cfi_def_cfa_register 7
 2408 0006 0346     		mov	r3, r0
 2409 0008 0A46     		mov	r2, r1
 2410 000a FB80     		strh	r3, [r7, #6]	@ movhi
 2411 000c 1346     		mov	r3, r2	@ movhi
 2412 000e BB80     		strh	r3, [r7, #4]	@ movhi
 342:ssd1306.c     ****     WIDTH = width;
 2413              		.loc 1 342 0
 2414 0010 164A     		ldr	r2, .L68
 2415 0012 FB88     		ldrh	r3, [r7, #6]	@ movhi
 2416 0014 1380     		strh	r3, [r2]	@ movhi
 343:ssd1306.c     ****     HEIGHT = height;
 2417              		.loc 1 343 0
 2418 0016 164A     		ldr	r2, .L68+4
 2419 0018 BB88     		ldrh	r3, [r7, #4]	@ movhi
 2420 001a 1380     		strh	r3, [r2]	@ movhi
 344:ssd1306.c     ****     _width = WIDTH;
 2421              		.loc 1 344 0
 2422 001c 134B     		ldr	r3, .L68
 2423 001e B3F90020 		ldrsh	r2, [r3]
 2424 0022 144B     		ldr	r3, .L68+8
 2425 0024 1A80     		strh	r2, [r3]	@ movhi
 345:ssd1306.c     ****     _height = HEIGHT;
 2426              		.loc 1 345 0
ARM GAS  C:\Users\mariu\AppData\Local\Temp\ccmFU017.s 			page 50


 2427 0026 124B     		ldr	r3, .L68+4
 2428 0028 B3F90020 		ldrsh	r2, [r3]
 2429 002c 124B     		ldr	r3, .L68+12
 2430 002e 1A80     		strh	r2, [r3]	@ movhi
 346:ssd1306.c     ****     
 347:ssd1306.c     ****     rotation = 0;
 2431              		.loc 1 347 0
 2432 0030 124B     		ldr	r3, .L68+16
 2433 0032 0022     		movs	r2, #0
 2434 0034 1A70     		strb	r2, [r3]
 348:ssd1306.c     ****     cursor_y = cursor_x = 0;
 2435              		.loc 1 348 0
 2436 0036 124B     		ldr	r3, .L68+20
 2437 0038 0022     		movs	r2, #0
 2438 003a 1A80     		strh	r2, [r3]	@ movhi
 2439 003c 104B     		ldr	r3, .L68+20
 2440 003e B3F90020 		ldrsh	r2, [r3]
 2441 0042 104B     		ldr	r3, .L68+24
 2442 0044 1A80     		strh	r2, [r3]	@ movhi
 349:ssd1306.c     ****     textsize = 1;
 2443              		.loc 1 349 0
 2444 0046 104B     		ldr	r3, .L68+28
 2445 0048 0122     		movs	r2, #1
 2446 004a 1A70     		strb	r2, [r3]
 350:ssd1306.c     ****     textcolor = textbgcolor = 0xFFFF;
 2447              		.loc 1 350 0
 2448 004c 0F4B     		ldr	r3, .L68+32
 2449 004e 4FF6FF72 		movw	r2, #65535
 2450 0052 1A80     		strh	r2, [r3]	@ movhi
 2451 0054 0D4B     		ldr	r3, .L68+32
 2452 0056 1A88     		ldrh	r2, [r3]
 2453 0058 0D4B     		ldr	r3, .L68+36
 2454 005a 1A80     		strh	r2, [r3]	@ movhi
 351:ssd1306.c     ****     wrap = 1;
 2455              		.loc 1 351 0
 2456 005c 0D4B     		ldr	r3, .L68+40
 2457 005e 0122     		movs	r2, #1
 2458 0060 1A70     		strb	r2, [r3]
 352:ssd1306.c     **** }
 2459              		.loc 1 352 0
 2460 0062 00BF     		nop
 2461 0064 0C37     		adds	r7, r7, #12
 2462              		.cfi_def_cfa_offset 4
 2463 0066 BD46     		mov	sp, r7
 2464              		.cfi_def_cfa_register 13
 2465              		@ sp needed
 2466 0068 80BC     		pop	{r7}
 2467              		.cfi_restore 7
 2468              		.cfi_def_cfa_offset 0
 2469 006a 7047     		bx	lr
 2470              	.L69:
 2471              		.align	2
 2472              	.L68:
 2473 006c 00000000 		.word	WIDTH
 2474 0070 00000000 		.word	HEIGHT
 2475 0074 02000000 		.word	_width
 2476 0078 04000000 		.word	_height
ARM GAS  C:\Users\mariu\AppData\Local\Temp\ccmFU017.s 			page 51


 2477 007c 00000000 		.word	rotation
 2478 0080 06000000 		.word	cursor_x
 2479 0084 08000000 		.word	cursor_y
 2480 0088 0E000000 		.word	textsize
 2481 008c 0C000000 		.word	textbgcolor
 2482 0090 0A000000 		.word	textcolor
 2483 0094 00000000 		.word	wrap
 2484              		.cfi_endproc
 2485              	.LFE73:
 2486              		.size	gfx_init, .-gfx_init
 2487              		.section	.text.gfx_width,"ax",%progbits
 2488              		.align	2
 2489              		.global	gfx_width
 2490              		.thumb
 2491              		.thumb_func
 2492              		.type	gfx_width, %function
 2493              	gfx_width:
 2494              	.LFB74:
 353:ssd1306.c     **** 
 354:ssd1306.c     **** // Return the size of the display (per current rotation)
 355:ssd1306.c     **** int16_t gfx_width(void){
 2495              		.loc 1 355 0
 2496              		.cfi_startproc
 2497              		@ args = 0, pretend = 0, frame = 0
 2498              		@ frame_needed = 1, uses_anonymous_args = 0
 2499              		@ link register save eliminated.
 2500 0000 80B4     		push	{r7}
 2501              		.cfi_def_cfa_offset 4
 2502              		.cfi_offset 7, -4
 2503 0002 00AF     		add	r7, sp, #0
 2504              		.cfi_def_cfa_register 7
 356:ssd1306.c     ****     return _width;
 2505              		.loc 1 356 0
 2506 0004 034B     		ldr	r3, .L72
 2507 0006 B3F90030 		ldrsh	r3, [r3]
 357:ssd1306.c     **** }
 2508              		.loc 1 357 0
 2509 000a 1846     		mov	r0, r3
 2510 000c BD46     		mov	sp, r7
 2511              		.cfi_def_cfa_register 13
 2512              		@ sp needed
 2513 000e 80BC     		pop	{r7}
 2514              		.cfi_restore 7
 2515              		.cfi_def_cfa_offset 0
 2516 0010 7047     		bx	lr
 2517              	.L73:
 2518 0012 00BF     		.align	2
 2519              	.L72:
 2520 0014 02000000 		.word	_width
 2521              		.cfi_endproc
 2522              	.LFE74:
 2523              		.size	gfx_width, .-gfx_width
 2524              		.section	.text.gfx_height,"ax",%progbits
 2525              		.align	2
 2526              		.global	gfx_height
 2527              		.thumb
 2528              		.thumb_func
ARM GAS  C:\Users\mariu\AppData\Local\Temp\ccmFU017.s 			page 52


 2529              		.type	gfx_height, %function
 2530              	gfx_height:
 2531              	.LFB75:
 358:ssd1306.c     **** 
 359:ssd1306.c     **** int16_t gfx_height(void){
 2532              		.loc 1 359 0
 2533              		.cfi_startproc
 2534              		@ args = 0, pretend = 0, frame = 0
 2535              		@ frame_needed = 1, uses_anonymous_args = 0
 2536              		@ link register save eliminated.
 2537 0000 80B4     		push	{r7}
 2538              		.cfi_def_cfa_offset 4
 2539              		.cfi_offset 7, -4
 2540 0002 00AF     		add	r7, sp, #0
 2541              		.cfi_def_cfa_register 7
 360:ssd1306.c     ****     return _height;
 2542              		.loc 1 360 0
 2543 0004 034B     		ldr	r3, .L76
 2544 0006 B3F90030 		ldrsh	r3, [r3]
 361:ssd1306.c     **** }
 2545              		.loc 1 361 0
 2546 000a 1846     		mov	r0, r3
 2547 000c BD46     		mov	sp, r7
 2548              		.cfi_def_cfa_register 13
 2549              		@ sp needed
 2550 000e 80BC     		pop	{r7}
 2551              		.cfi_restore 7
 2552              		.cfi_def_cfa_offset 0
 2553 0010 7047     		bx	lr
 2554              	.L77:
 2555 0012 00BF     		.align	2
 2556              	.L76:
 2557 0014 04000000 		.word	_height
 2558              		.cfi_endproc
 2559              	.LFE75:
 2560              		.size	gfx_height, .-gfx_height
 2561              		.section	.text.gfx_rotation,"ax",%progbits
 2562              		.align	2
 2563              		.global	gfx_rotation
 2564              		.thumb
 2565              		.thumb_func
 2566              		.type	gfx_rotation, %function
 2567              	gfx_rotation:
 2568              	.LFB76:
 362:ssd1306.c     **** 
 363:ssd1306.c     **** uint8_t gfx_rotation(void){
 2569              		.loc 1 363 0
 2570              		.cfi_startproc
 2571              		@ args = 0, pretend = 0, frame = 0
 2572              		@ frame_needed = 1, uses_anonymous_args = 0
 2573              		@ link register save eliminated.
 2574 0000 80B4     		push	{r7}
 2575              		.cfi_def_cfa_offset 4
 2576              		.cfi_offset 7, -4
 2577 0002 00AF     		add	r7, sp, #0
 2578              		.cfi_def_cfa_register 7
 364:ssd1306.c     ****     return rotation;
ARM GAS  C:\Users\mariu\AppData\Local\Temp\ccmFU017.s 			page 53


 2579              		.loc 1 364 0
 2580 0004 024B     		ldr	r3, .L80
 2581 0006 1B78     		ldrb	r3, [r3]	@ zero_extendqisi2
 365:ssd1306.c     **** }
 2582              		.loc 1 365 0
 2583 0008 1846     		mov	r0, r3
 2584 000a BD46     		mov	sp, r7
 2585              		.cfi_def_cfa_register 13
 2586              		@ sp needed
 2587 000c 80BC     		pop	{r7}
 2588              		.cfi_restore 7
 2589              		.cfi_def_cfa_offset 0
 2590 000e 7047     		bx	lr
 2591              	.L81:
 2592              		.align	2
 2593              	.L80:
 2594 0010 00000000 		.word	rotation
 2595              		.cfi_endproc
 2596              	.LFE76:
 2597              		.size	gfx_rotation, .-gfx_rotation
 2598              		.section	.text.gfx_setCursor,"ax",%progbits
 2599              		.align	2
 2600              		.global	gfx_setCursor
 2601              		.thumb
 2602              		.thumb_func
 2603              		.type	gfx_setCursor, %function
 2604              	gfx_setCursor:
 2605              	.LFB77:
 366:ssd1306.c     **** 
 367:ssd1306.c     **** void gfx_setCursor( int16_t x, int16_t y ){
 2606              		.loc 1 367 0
 2607              		.cfi_startproc
 2608              		@ args = 0, pretend = 0, frame = 8
 2609              		@ frame_needed = 1, uses_anonymous_args = 0
 2610              		@ link register save eliminated.
 2611 0000 80B4     		push	{r7}
 2612              		.cfi_def_cfa_offset 4
 2613              		.cfi_offset 7, -4
 2614 0002 83B0     		sub	sp, sp, #12
 2615              		.cfi_def_cfa_offset 16
 2616 0004 00AF     		add	r7, sp, #0
 2617              		.cfi_def_cfa_register 7
 2618 0006 0346     		mov	r3, r0
 2619 0008 0A46     		mov	r2, r1
 2620 000a FB80     		strh	r3, [r7, #6]	@ movhi
 2621 000c 1346     		mov	r3, r2	@ movhi
 2622 000e BB80     		strh	r3, [r7, #4]	@ movhi
 368:ssd1306.c     ****     cursor_x = x;
 2623              		.loc 1 368 0
 2624 0010 054A     		ldr	r2, .L83
 2625 0012 FB88     		ldrh	r3, [r7, #6]	@ movhi
 2626 0014 1380     		strh	r3, [r2]	@ movhi
 369:ssd1306.c     ****     cursor_y = y;
 2627              		.loc 1 369 0
 2628 0016 054A     		ldr	r2, .L83+4
 2629 0018 BB88     		ldrh	r3, [r7, #4]	@ movhi
 2630 001a 1380     		strh	r3, [r2]	@ movhi
ARM GAS  C:\Users\mariu\AppData\Local\Temp\ccmFU017.s 			page 54


 370:ssd1306.c     **** }
 2631              		.loc 1 370 0
 2632 001c 00BF     		nop
 2633 001e 0C37     		adds	r7, r7, #12
 2634              		.cfi_def_cfa_offset 4
 2635 0020 BD46     		mov	sp, r7
 2636              		.cfi_def_cfa_register 13
 2637              		@ sp needed
 2638 0022 80BC     		pop	{r7}
 2639              		.cfi_restore 7
 2640              		.cfi_def_cfa_offset 0
 2641 0024 7047     		bx	lr
 2642              	.L84:
 2643 0026 00BF     		.align	2
 2644              	.L83:
 2645 0028 06000000 		.word	cursor_x
 2646 002c 08000000 		.word	cursor_y
 2647              		.cfi_endproc
 2648              	.LFE77:
 2649              		.size	gfx_setCursor, .-gfx_setCursor
 2650              		.section	.text.gfx_setTextSize,"ax",%progbits
 2651              		.align	2
 2652              		.global	gfx_setTextSize
 2653              		.thumb
 2654              		.thumb_func
 2655              		.type	gfx_setTextSize, %function
 2656              	gfx_setTextSize:
 2657              	.LFB78:
 371:ssd1306.c     **** 
 372:ssd1306.c     **** void gfx_setTextSize( uint8_t size ){
 2658              		.loc 1 372 0
 2659              		.cfi_startproc
 2660              		@ args = 0, pretend = 0, frame = 8
 2661              		@ frame_needed = 1, uses_anonymous_args = 0
 2662              		@ link register save eliminated.
 2663 0000 80B4     		push	{r7}
 2664              		.cfi_def_cfa_offset 4
 2665              		.cfi_offset 7, -4
 2666 0002 83B0     		sub	sp, sp, #12
 2667              		.cfi_def_cfa_offset 16
 2668 0004 00AF     		add	r7, sp, #0
 2669              		.cfi_def_cfa_register 7
 2670 0006 0346     		mov	r3, r0
 2671 0008 FB71     		strb	r3, [r7, #7]
 373:ssd1306.c     ****     textsize = (size > 0) ? size : 1;
 2672              		.loc 1 373 0
 2673 000a FB79     		ldrb	r3, [r7, #7]	@ zero_extendqisi2
 2674 000c 002B     		cmp	r3, #0
 2675 000e 01D0     		beq	.L86
 2676              		.loc 1 373 0 is_stmt 0 discriminator 1
 2677 0010 FB79     		ldrb	r3, [r7, #7]	@ zero_extendqisi2
 2678 0012 00E0     		b	.L87
 2679              	.L86:
 2680              		.loc 1 373 0 discriminator 2
 2681 0014 0123     		movs	r3, #1
 2682              	.L87:
 2683              		.loc 1 373 0 discriminator 4
ARM GAS  C:\Users\mariu\AppData\Local\Temp\ccmFU017.s 			page 55


 2684 0016 034A     		ldr	r2, .L88
 2685 0018 1370     		strb	r3, [r2]
 374:ssd1306.c     **** }
 2686              		.loc 1 374 0 is_stmt 1 discriminator 4
 2687 001a 00BF     		nop
 2688 001c 0C37     		adds	r7, r7, #12
 2689              		.cfi_def_cfa_offset 4
 2690 001e BD46     		mov	sp, r7
 2691              		.cfi_def_cfa_register 13
 2692              		@ sp needed
 2693 0020 80BC     		pop	{r7}
 2694              		.cfi_restore 7
 2695              		.cfi_def_cfa_offset 0
 2696 0022 7047     		bx	lr
 2697              	.L89:
 2698              		.align	2
 2699              	.L88:
 2700 0024 0E000000 		.word	textsize
 2701              		.cfi_endproc
 2702              	.LFE78:
 2703              		.size	gfx_setTextSize, .-gfx_setTextSize
 2704              		.section	.text.gfx_setTextColor,"ax",%progbits
 2705              		.align	2
 2706              		.global	gfx_setTextColor
 2707              		.thumb
 2708              		.thumb_func
 2709              		.type	gfx_setTextColor, %function
 2710              	gfx_setTextColor:
 2711              	.LFB79:
 375:ssd1306.c     **** 
 376:ssd1306.c     **** void gfx_setTextColor( uint16_t color ){
 2712              		.loc 1 376 0
 2713              		.cfi_startproc
 2714              		@ args = 0, pretend = 0, frame = 8
 2715              		@ frame_needed = 1, uses_anonymous_args = 0
 2716              		@ link register save eliminated.
 2717 0000 80B4     		push	{r7}
 2718              		.cfi_def_cfa_offset 4
 2719              		.cfi_offset 7, -4
 2720 0002 83B0     		sub	sp, sp, #12
 2721              		.cfi_def_cfa_offset 16
 2722 0004 00AF     		add	r7, sp, #0
 2723              		.cfi_def_cfa_register 7
 2724 0006 0346     		mov	r3, r0
 2725 0008 FB80     		strh	r3, [r7, #6]	@ movhi
 377:ssd1306.c     ****     // For 'transparent' background, we'll set the bg
 378:ssd1306.c     ****     // to the same as fg instead of using a flag
 379:ssd1306.c     ****     textcolor = textbgcolor = color;
 2726              		.loc 1 379 0
 2727 000a 064A     		ldr	r2, .L91
 2728 000c FB88     		ldrh	r3, [r7, #6]	@ movhi
 2729 000e 1380     		strh	r3, [r2]	@ movhi
 2730 0010 044B     		ldr	r3, .L91
 2731 0012 1A88     		ldrh	r2, [r3]
 2732 0014 044B     		ldr	r3, .L91+4
 2733 0016 1A80     		strh	r2, [r3]	@ movhi
 380:ssd1306.c     **** }
ARM GAS  C:\Users\mariu\AppData\Local\Temp\ccmFU017.s 			page 56


 2734              		.loc 1 380 0
 2735 0018 00BF     		nop
 2736 001a 0C37     		adds	r7, r7, #12
 2737              		.cfi_def_cfa_offset 4
 2738 001c BD46     		mov	sp, r7
 2739              		.cfi_def_cfa_register 13
 2740              		@ sp needed
 2741 001e 80BC     		pop	{r7}
 2742              		.cfi_restore 7
 2743              		.cfi_def_cfa_offset 0
 2744 0020 7047     		bx	lr
 2745              	.L92:
 2746 0022 00BF     		.align	2
 2747              	.L91:
 2748 0024 0C000000 		.word	textbgcolor
 2749 0028 0A000000 		.word	textcolor
 2750              		.cfi_endproc
 2751              	.LFE79:
 2752              		.size	gfx_setTextColor, .-gfx_setTextColor
 2753              		.section	.text.gfx_setTextBg,"ax",%progbits
 2754              		.align	2
 2755              		.global	gfx_setTextBg
 2756              		.thumb
 2757              		.thumb_func
 2758              		.type	gfx_setTextBg, %function
 2759              	gfx_setTextBg:
 2760              	.LFB80:
 381:ssd1306.c     **** 
 382:ssd1306.c     **** void gfx_setTextBg( uint16_t color ){
 2761              		.loc 1 382 0
 2762              		.cfi_startproc
 2763              		@ args = 0, pretend = 0, frame = 8
 2764              		@ frame_needed = 1, uses_anonymous_args = 0
 2765              		@ link register save eliminated.
 2766 0000 80B4     		push	{r7}
 2767              		.cfi_def_cfa_offset 4
 2768              		.cfi_offset 7, -4
 2769 0002 83B0     		sub	sp, sp, #12
 2770              		.cfi_def_cfa_offset 16
 2771 0004 00AF     		add	r7, sp, #0
 2772              		.cfi_def_cfa_register 7
 2773 0006 0346     		mov	r3, r0
 2774 0008 FB80     		strh	r3, [r7, #6]	@ movhi
 383:ssd1306.c     ****     textbgcolor = color;
 2775              		.loc 1 383 0
 2776 000a 044A     		ldr	r2, .L94
 2777 000c FB88     		ldrh	r3, [r7, #6]	@ movhi
 2778 000e 1380     		strh	r3, [r2]	@ movhi
 384:ssd1306.c     **** }
 2779              		.loc 1 384 0
 2780 0010 00BF     		nop
 2781 0012 0C37     		adds	r7, r7, #12
 2782              		.cfi_def_cfa_offset 4
 2783 0014 BD46     		mov	sp, r7
 2784              		.cfi_def_cfa_register 13
 2785              		@ sp needed
 2786 0016 80BC     		pop	{r7}
ARM GAS  C:\Users\mariu\AppData\Local\Temp\ccmFU017.s 			page 57


 2787              		.cfi_restore 7
 2788              		.cfi_def_cfa_offset 0
 2789 0018 7047     		bx	lr
 2790              	.L95:
 2791 001a 00BF     		.align	2
 2792              	.L94:
 2793 001c 0C000000 		.word	textbgcolor
 2794              		.cfi_endproc
 2795              	.LFE80:
 2796              		.size	gfx_setTextBg, .-gfx_setTextBg
 2797              		.section	.text.gfx_setTextWrap,"ax",%progbits
 2798              		.align	2
 2799              		.global	gfx_setTextWrap
 2800              		.thumb
 2801              		.thumb_func
 2802              		.type	gfx_setTextWrap, %function
 2803              	gfx_setTextWrap:
 2804              	.LFB81:
 385:ssd1306.c     **** 
 386:ssd1306.c     **** void gfx_setTextWrap( uint8 w ){
 2805              		.loc 1 386 0
 2806              		.cfi_startproc
 2807              		@ args = 0, pretend = 0, frame = 8
 2808              		@ frame_needed = 1, uses_anonymous_args = 0
 2809              		@ link register save eliminated.
 2810 0000 80B4     		push	{r7}
 2811              		.cfi_def_cfa_offset 4
 2812              		.cfi_offset 7, -4
 2813 0002 83B0     		sub	sp, sp, #12
 2814              		.cfi_def_cfa_offset 16
 2815 0004 00AF     		add	r7, sp, #0
 2816              		.cfi_def_cfa_register 7
 2817 0006 0346     		mov	r3, r0
 2818 0008 FB71     		strb	r3, [r7, #7]
 387:ssd1306.c     ****     wrap = w;
 2819              		.loc 1 387 0
 2820 000a 044A     		ldr	r2, .L97
 2821 000c FB79     		ldrb	r3, [r7, #7]
 2822 000e 1370     		strb	r3, [r2]
 388:ssd1306.c     **** }
 2823              		.loc 1 388 0
 2824 0010 00BF     		nop
 2825 0012 0C37     		adds	r7, r7, #12
 2826              		.cfi_def_cfa_offset 4
 2827 0014 BD46     		mov	sp, r7
 2828              		.cfi_def_cfa_register 13
 2829              		@ sp needed
 2830 0016 80BC     		pop	{r7}
 2831              		.cfi_restore 7
 2832              		.cfi_def_cfa_offset 0
 2833 0018 7047     		bx	lr
 2834              	.L98:
 2835 001a 00BF     		.align	2
 2836              	.L97:
 2837 001c 00000000 		.word	wrap
 2838              		.cfi_endproc
 2839              	.LFE81:
ARM GAS  C:\Users\mariu\AppData\Local\Temp\ccmFU017.s 			page 58


 2840              		.size	gfx_setTextWrap, .-gfx_setTextWrap
 2841              		.section	.text.gfx_setRotation,"ax",%progbits
 2842              		.align	2
 2843              		.global	gfx_setRotation
 2844              		.thumb
 2845              		.thumb_func
 2846              		.type	gfx_setRotation, %function
 2847              	gfx_setRotation:
 2848              	.LFB82:
 389:ssd1306.c     **** 
 390:ssd1306.c     **** void gfx_setRotation( uint8_t x ){
 2849              		.loc 1 390 0
 2850              		.cfi_startproc
 2851              		@ args = 0, pretend = 0, frame = 8
 2852              		@ frame_needed = 1, uses_anonymous_args = 0
 2853              		@ link register save eliminated.
 2854 0000 80B4     		push	{r7}
 2855              		.cfi_def_cfa_offset 4
 2856              		.cfi_offset 7, -4
 2857 0002 83B0     		sub	sp, sp, #12
 2858              		.cfi_def_cfa_offset 16
 2859 0004 00AF     		add	r7, sp, #0
 2860              		.cfi_def_cfa_register 7
 2861 0006 0346     		mov	r3, r0
 2862 0008 FB71     		strb	r3, [r7, #7]
 391:ssd1306.c     ****     
 392:ssd1306.c     ****     rotation = (x & 3);
 2863              		.loc 1 392 0
 2864 000a FB79     		ldrb	r3, [r7, #7]
 2865 000c 03F00303 		and	r3, r3, #3
 2866 0010 DAB2     		uxtb	r2, r3
 2867 0012 164B     		ldr	r3, .L105
 2868 0014 1A70     		strb	r2, [r3]
 393:ssd1306.c     ****     switch( rotation ){
 2869              		.loc 1 393 0
 2870 0016 154B     		ldr	r3, .L105
 2871 0018 1B78     		ldrb	r3, [r3]	@ zero_extendqisi2
 2872 001a 032B     		cmp	r3, #3
 2873 001c 20D8     		bhi	.L104
 2874 001e 01A2     		adr	r2, .L102
 2875 0020 52F823F0 		ldr	pc, [r2, r3, lsl #2]
 2876              		.p2align 2
 2877              	.L102:
 2878 0024 35000000 		.word	.L101+1
 2879 0028 4B000000 		.word	.L103+1
 2880 002c 35000000 		.word	.L101+1
 2881 0030 4B000000 		.word	.L103+1
 2882              		.p2align 1
 2883              	.L101:
 394:ssd1306.c     ****         case 0:
 395:ssd1306.c     ****         case 2:
 396:ssd1306.c     ****             _width = WIDTH;
 2884              		.loc 1 396 0
 2885 0034 0E4B     		ldr	r3, .L105+4
 2886 0036 B3F90020 		ldrsh	r2, [r3]
 2887 003a 0E4B     		ldr	r3, .L105+8
 2888 003c 1A80     		strh	r2, [r3]	@ movhi
ARM GAS  C:\Users\mariu\AppData\Local\Temp\ccmFU017.s 			page 59


 397:ssd1306.c     ****             _height = HEIGHT;
 2889              		.loc 1 397 0
 2890 003e 0E4B     		ldr	r3, .L105+12
 2891 0040 B3F90020 		ldrsh	r2, [r3]
 2892 0044 0D4B     		ldr	r3, .L105+16
 2893 0046 1A80     		strh	r2, [r3]	@ movhi
 398:ssd1306.c     ****             break;
 2894              		.loc 1 398 0
 2895 0048 0AE0     		b	.L100
 2896              	.L103:
 399:ssd1306.c     ****         case 1:
 400:ssd1306.c     ****         case 3:
 401:ssd1306.c     ****             _width = HEIGHT;
 2897              		.loc 1 401 0
 2898 004a 0B4B     		ldr	r3, .L105+12
 2899 004c B3F90020 		ldrsh	r2, [r3]
 2900 0050 084B     		ldr	r3, .L105+8
 2901 0052 1A80     		strh	r2, [r3]	@ movhi
 402:ssd1306.c     ****             _height = WIDTH;
 2902              		.loc 1 402 0
 2903 0054 064B     		ldr	r3, .L105+4
 2904 0056 B3F90020 		ldrsh	r2, [r3]
 2905 005a 084B     		ldr	r3, .L105+16
 2906 005c 1A80     		strh	r2, [r3]	@ movhi
 403:ssd1306.c     ****         break;
 2907              		.loc 1 403 0
 2908 005e 00BF     		nop
 2909              	.L100:
 2910              	.L104:
 404:ssd1306.c     ****     }
 405:ssd1306.c     **** }
 2911              		.loc 1 405 0
 2912 0060 00BF     		nop
 2913 0062 0C37     		adds	r7, r7, #12
 2914              		.cfi_def_cfa_offset 4
 2915 0064 BD46     		mov	sp, r7
 2916              		.cfi_def_cfa_register 13
 2917              		@ sp needed
 2918 0066 80BC     		pop	{r7}
 2919              		.cfi_restore 7
 2920              		.cfi_def_cfa_offset 0
 2921 0068 7047     		bx	lr
 2922              	.L106:
 2923 006a 00BF     		.align	2
 2924              	.L105:
 2925 006c 00000000 		.word	rotation
 2926 0070 00000000 		.word	WIDTH
 2927 0074 02000000 		.word	_width
 2928 0078 00000000 		.word	HEIGHT
 2929 007c 04000000 		.word	_height
 2930              		.cfi_endproc
 2931              	.LFE82:
 2932              		.size	gfx_setRotation, .-gfx_setRotation
 2933              		.section	.text.gfx_rotation_adjust,"ax",%progbits
 2934              		.align	2
 2935              		.thumb
 2936              		.thumb_func
ARM GAS  C:\Users\mariu\AppData\Local\Temp\ccmFU017.s 			page 60


 2937              		.type	gfx_rotation_adjust, %function
 2938              	gfx_rotation_adjust:
 2939              	.LFB83:
 406:ssd1306.c     **** 
 407:ssd1306.c     **** static void gfx_rotation_adjust( int16_t* px, int16_t* py ){
 2940              		.loc 1 407 0
 2941              		.cfi_startproc
 2942              		@ args = 0, pretend = 0, frame = 16
 2943              		@ frame_needed = 1, uses_anonymous_args = 0
 2944              		@ link register save eliminated.
 2945 0000 80B4     		push	{r7}
 2946              		.cfi_def_cfa_offset 4
 2947              		.cfi_offset 7, -4
 2948 0002 85B0     		sub	sp, sp, #20
 2949              		.cfi_def_cfa_offset 24
 2950 0004 00AF     		add	r7, sp, #0
 2951              		.cfi_def_cfa_register 7
 2952 0006 7860     		str	r0, [r7, #4]
 2953 0008 3960     		str	r1, [r7]
 408:ssd1306.c     **** 
 409:ssd1306.c     ****     int16_t y0 = *py;
 2954              		.loc 1 409 0
 2955 000a 3B68     		ldr	r3, [r7]
 2956 000c 1B88     		ldrh	r3, [r3]	@ movhi
 2957 000e FB81     		strh	r3, [r7, #14]	@ movhi
 410:ssd1306.c     ****     
 411:ssd1306.c     ****     switch( rotation ){
 2958              		.loc 1 411 0
 2959 0010 284B     		ldr	r3, .L113
 2960 0012 1B78     		ldrb	r3, [r3]	@ zero_extendqisi2
 2961 0014 022B     		cmp	r3, #2
 2962 0016 16D0     		beq	.L109
 2963 0018 032B     		cmp	r3, #3
 2964 001a 33D0     		beq	.L110
 2965 001c 012B     		cmp	r3, #1
 2966 001e 00D0     		beq	.L111
 412:ssd1306.c     ****         case 1:
 413:ssd1306.c     ****             *py = *px;
 414:ssd1306.c     ****             *px = WIDTH - y0 - 1;
 415:ssd1306.c     ****             break;
 416:ssd1306.c     ****         case 2:
 417:ssd1306.c     ****             *px = WIDTH - *px - 1;
 418:ssd1306.c     ****             *py = HEIGHT - *py - 1;
 419:ssd1306.c     ****             break;
 420:ssd1306.c     ****         case 3:
 421:ssd1306.c     ****             *py = HEIGHT - *px - 1;
 422:ssd1306.c     ****             *px = y0;
 423:ssd1306.c     ****             break;
 424:ssd1306.c     ****     }
 425:ssd1306.c     **** }
 2967              		.loc 1 425 0
 2968 0020 43E0     		b	.L112
 2969              	.L111:
 413:ssd1306.c     ****             *px = WIDTH - y0 - 1;
 2970              		.loc 1 413 0
 2971 0022 7B68     		ldr	r3, [r7, #4]
 2972 0024 B3F90020 		ldrsh	r2, [r3]
ARM GAS  C:\Users\mariu\AppData\Local\Temp\ccmFU017.s 			page 61


 2973 0028 3B68     		ldr	r3, [r7]
 2974 002a 1A80     		strh	r2, [r3]	@ movhi
 414:ssd1306.c     ****             break;
 2975              		.loc 1 414 0
 2976 002c 224B     		ldr	r3, .L113+4
 2977 002e B3F90030 		ldrsh	r3, [r3]
 2978 0032 9AB2     		uxth	r2, r3
 2979 0034 FB89     		ldrh	r3, [r7, #14]
 2980 0036 D31A     		subs	r3, r2, r3
 2981 0038 9BB2     		uxth	r3, r3
 2982 003a 013B     		subs	r3, r3, #1
 2983 003c 9BB2     		uxth	r3, r3
 2984 003e 1AB2     		sxth	r2, r3
 2985 0040 7B68     		ldr	r3, [r7, #4]
 2986 0042 1A80     		strh	r2, [r3]	@ movhi
 415:ssd1306.c     ****         case 2:
 2987              		.loc 1 415 0
 2988 0044 31E0     		b	.L108
 2989              	.L109:
 417:ssd1306.c     ****             *py = HEIGHT - *py - 1;
 2990              		.loc 1 417 0
 2991 0046 1C4B     		ldr	r3, .L113+4
 2992 0048 B3F90030 		ldrsh	r3, [r3]
 2993 004c 9AB2     		uxth	r2, r3
 2994 004e 7B68     		ldr	r3, [r7, #4]
 2995 0050 B3F90030 		ldrsh	r3, [r3]
 2996 0054 9BB2     		uxth	r3, r3
 2997 0056 D31A     		subs	r3, r2, r3
 2998 0058 9BB2     		uxth	r3, r3
 2999 005a 013B     		subs	r3, r3, #1
 3000 005c 9BB2     		uxth	r3, r3
 3001 005e 1AB2     		sxth	r2, r3
 3002 0060 7B68     		ldr	r3, [r7, #4]
 3003 0062 1A80     		strh	r2, [r3]	@ movhi
 418:ssd1306.c     ****             break;
 3004              		.loc 1 418 0
 3005 0064 154B     		ldr	r3, .L113+8
 3006 0066 B3F90030 		ldrsh	r3, [r3]
 3007 006a 9AB2     		uxth	r2, r3
 3008 006c 3B68     		ldr	r3, [r7]
 3009 006e B3F90030 		ldrsh	r3, [r3]
 3010 0072 9BB2     		uxth	r3, r3
 3011 0074 D31A     		subs	r3, r2, r3
 3012 0076 9BB2     		uxth	r3, r3
 3013 0078 013B     		subs	r3, r3, #1
 3014 007a 9BB2     		uxth	r3, r3
 3015 007c 1AB2     		sxth	r2, r3
 3016 007e 3B68     		ldr	r3, [r7]
 3017 0080 1A80     		strh	r2, [r3]	@ movhi
 419:ssd1306.c     ****         case 3:
 3018              		.loc 1 419 0
 3019 0082 12E0     		b	.L108
 3020              	.L110:
 421:ssd1306.c     ****             *px = y0;
 3021              		.loc 1 421 0
 3022 0084 0D4B     		ldr	r3, .L113+8
 3023 0086 B3F90030 		ldrsh	r3, [r3]
ARM GAS  C:\Users\mariu\AppData\Local\Temp\ccmFU017.s 			page 62


 3024 008a 9AB2     		uxth	r2, r3
 3025 008c 7B68     		ldr	r3, [r7, #4]
 3026 008e B3F90030 		ldrsh	r3, [r3]
 3027 0092 9BB2     		uxth	r3, r3
 3028 0094 D31A     		subs	r3, r2, r3
 3029 0096 9BB2     		uxth	r3, r3
 3030 0098 013B     		subs	r3, r3, #1
 3031 009a 9BB2     		uxth	r3, r3
 3032 009c 1AB2     		sxth	r2, r3
 3033 009e 3B68     		ldr	r3, [r7]
 3034 00a0 1A80     		strh	r2, [r3]	@ movhi
 422:ssd1306.c     ****             break;
 3035              		.loc 1 422 0
 3036 00a2 7B68     		ldr	r3, [r7, #4]
 3037 00a4 FA89     		ldrh	r2, [r7, #14]	@ movhi
 3038 00a6 1A80     		strh	r2, [r3]	@ movhi
 423:ssd1306.c     ****     }
 3039              		.loc 1 423 0
 3040 00a8 00BF     		nop
 3041              	.L108:
 3042              	.L112:
 3043              		.loc 1 425 0
 3044 00aa 00BF     		nop
 3045 00ac 1437     		adds	r7, r7, #20
 3046              		.cfi_def_cfa_offset 4
 3047 00ae BD46     		mov	sp, r7
 3048              		.cfi_def_cfa_register 13
 3049              		@ sp needed
 3050 00b0 80BC     		pop	{r7}
 3051              		.cfi_restore 7
 3052              		.cfi_def_cfa_offset 0
 3053 00b2 7047     		bx	lr
 3054              	.L114:
 3055              		.align	2
 3056              	.L113:
 3057 00b4 00000000 		.word	rotation
 3058 00b8 00000000 		.word	WIDTH
 3059 00bc 00000000 		.word	HEIGHT
 3060              		.cfi_endproc
 3061              	.LFE83:
 3062              		.size	gfx_rotation_adjust, .-gfx_rotation_adjust
 3063              		.section	.text.gfx_drawPixel,"ax",%progbits
 3064              		.align	2
 3065              		.global	gfx_drawPixel
 3066              		.thumb
 3067              		.thumb_func
 3068              		.type	gfx_drawPixel, %function
 3069              	gfx_drawPixel:
 3070              	.LFB84:
 426:ssd1306.c     **** 
 427:ssd1306.c     **** void gfx_drawPixel( int16_t x, int16_t y, uint16_t color ){
 3071              		.loc 1 427 0
 3072              		.cfi_startproc
 3073              		@ args = 0, pretend = 0, frame = 8
 3074              		@ frame_needed = 1, uses_anonymous_args = 0
 3075 0000 80B5     		push	{r7, lr}
 3076              		.cfi_def_cfa_offset 8
ARM GAS  C:\Users\mariu\AppData\Local\Temp\ccmFU017.s 			page 63


 3077              		.cfi_offset 7, -8
 3078              		.cfi_offset 14, -4
 3079 0002 82B0     		sub	sp, sp, #8
 3080              		.cfi_def_cfa_offset 16
 3081 0004 00AF     		add	r7, sp, #0
 3082              		.cfi_def_cfa_register 7
 3083 0006 0346     		mov	r3, r0
 3084 0008 FB80     		strh	r3, [r7, #6]	@ movhi
 3085 000a 0B46     		mov	r3, r1	@ movhi
 3086 000c BB80     		strh	r3, [r7, #4]	@ movhi
 3087 000e 1346     		mov	r3, r2	@ movhi
 3088 0010 7B80     		strh	r3, [r7, #2]	@ movhi
 428:ssd1306.c     ****     
 429:ssd1306.c     ****     if( (x < 0) || (x >= _width) || (y < 0) || (y >= _height) )
 3089              		.loc 1 429 0
 3090 0012 B7F90630 		ldrsh	r3, [r7, #6]
 3091 0016 002B     		cmp	r3, #0
 3092 0018 20DB     		blt	.L119
 3093              		.loc 1 429 0 is_stmt 0 discriminator 1
 3094 001a B7F90620 		ldrsh	r2, [r7, #6]
 3095 001e 114B     		ldr	r3, .L120
 3096 0020 B3F90030 		ldrsh	r3, [r3]
 3097 0024 9A42     		cmp	r2, r3
 3098 0026 19DA     		bge	.L119
 3099              		.loc 1 429 0 discriminator 2
 3100 0028 B7F90430 		ldrsh	r3, [r7, #4]
 3101 002c 002B     		cmp	r3, #0
 3102 002e 15DB     		blt	.L119
 3103              		.loc 1 429 0 discriminator 3
 3104 0030 B7F90420 		ldrsh	r2, [r7, #4]
 3105 0034 0C4B     		ldr	r3, .L120+4
 3106 0036 B3F90030 		ldrsh	r3, [r3]
 3107 003a 9A42     		cmp	r2, r3
 3108 003c 0EDA     		bge	.L119
 430:ssd1306.c     ****         return;
 431:ssd1306.c     ****     
 432:ssd1306.c     ****     gfx_rotation_adjust( &x, &y );
 3109              		.loc 1 432 0 is_stmt 1
 3110 003e 3A1D     		adds	r2, r7, #4
 3111 0040 BB1D     		adds	r3, r7, #6
 3112 0042 1146     		mov	r1, r2
 3113 0044 1846     		mov	r0, r3
 3114 0046 FFF7FEFF 		bl	gfx_rotation_adjust
 433:ssd1306.c     **** 
 434:ssd1306.c     ****     display_setPixel(x,y,color);
 3115              		.loc 1 434 0
 3116 004a B7F90630 		ldrsh	r3, [r7, #6]
 3117 004e B7F90410 		ldrsh	r1, [r7, #4]
 3118 0052 7A88     		ldrh	r2, [r7, #2]
 3119 0054 1846     		mov	r0, r3
 3120 0056 FFF7FEFF 		bl	display_setPixel
 3121 005a 00E0     		b	.L115
 3122              	.L119:
 430:ssd1306.c     ****         return;
 3123              		.loc 1 430 0
 3124 005c 00BF     		nop
 3125              	.L115:
ARM GAS  C:\Users\mariu\AppData\Local\Temp\ccmFU017.s 			page 64


 435:ssd1306.c     **** }
 3126              		.loc 1 435 0
 3127 005e 0837     		adds	r7, r7, #8
 3128              		.cfi_def_cfa_offset 8
 3129 0060 BD46     		mov	sp, r7
 3130              		.cfi_def_cfa_register 13
 3131              		@ sp needed
 3132 0062 80BD     		pop	{r7, pc}
 3133              	.L121:
 3134              		.align	2
 3135              	.L120:
 3136 0064 02000000 		.word	_width
 3137 0068 04000000 		.word	_height
 3138              		.cfi_endproc
 3139              	.LFE84:
 3140              		.size	gfx_drawPixel, .-gfx_drawPixel
 3141              		.section	.text.gfx_hvLine,"ax",%progbits
 3142              		.align	2
 3143              		.thumb
 3144              		.thumb_func
 3145              		.type	gfx_hvLine, %function
 3146              	gfx_hvLine:
 3147              	.LFB85:
 436:ssd1306.c     **** 
 437:ssd1306.c     **** // helper function for gfx_drawLine, handles special cases of horizontal and vertical lines
 438:ssd1306.c     **** static void gfx_hvLine( int16_t x1, int16_t y1, int16_t x2, int16_t y2, uint16_t color ){
 3148              		.loc 1 438 0
 3149              		.cfi_startproc
 3150              		@ args = 4, pretend = 0, frame = 16
 3151              		@ frame_needed = 1, uses_anonymous_args = 0
 3152 0000 90B5     		push	{r4, r7, lr}
 3153              		.cfi_def_cfa_offset 12
 3154              		.cfi_offset 4, -12
 3155              		.cfi_offset 7, -8
 3156              		.cfi_offset 14, -4
 3157 0002 87B0     		sub	sp, sp, #28
 3158              		.cfi_def_cfa_offset 40
 3159 0004 02AF     		add	r7, sp, #8
 3160              		.cfi_def_cfa 7, 32
 3161 0006 0446     		mov	r4, r0
 3162 0008 0846     		mov	r0, r1
 3163 000a 1146     		mov	r1, r2
 3164 000c 1A46     		mov	r2, r3
 3165 000e 2346     		mov	r3, r4	@ movhi
 3166 0010 FB80     		strh	r3, [r7, #6]	@ movhi
 3167 0012 0346     		mov	r3, r0	@ movhi
 3168 0014 BB80     		strh	r3, [r7, #4]	@ movhi
 3169 0016 0B46     		mov	r3, r1	@ movhi
 3170 0018 7B80     		strh	r3, [r7, #2]	@ movhi
 3171 001a 1346     		mov	r3, r2	@ movhi
 3172 001c 3B80     		strh	r3, [r7]	@ movhi
 439:ssd1306.c     ****     
 440:ssd1306.c     ****     if( x1 != x2 && y1 != y2 ){
 3173              		.loc 1 440 0
 3174 001e B7F90620 		ldrsh	r2, [r7, #6]
 3175 0022 B7F90230 		ldrsh	r3, [r7, #2]
 3176 0026 9A42     		cmp	r2, r3
ARM GAS  C:\Users\mariu\AppData\Local\Temp\ccmFU017.s 			page 65


 3177 0028 06D0     		beq	.L123
 3178              		.loc 1 440 0 is_stmt 0 discriminator 1
 3179 002a B7F90420 		ldrsh	r2, [r7, #4]
 3180 002e B7F90030 		ldrsh	r3, [r7]
 3181 0032 9A42     		cmp	r2, r3
 3182 0034 40F0A880 		bne	.L138
 3183              	.L123:
 441:ssd1306.c     ****         // neither vertical nor horizontal
 442:ssd1306.c     ****         return;
 443:ssd1306.c     ****     }    
 444:ssd1306.c     ****     
 445:ssd1306.c     ****     // bounds check
 446:ssd1306.c     ****     if( rotation == 1 || rotation == 3 ){
 3184              		.loc 1 446 0 is_stmt 1
 3185 0038 594B     		ldr	r3, .L144
 3186 003a 1B78     		ldrb	r3, [r3]	@ zero_extendqisi2
 3187 003c 012B     		cmp	r3, #1
 3188 003e 03D0     		beq	.L125
 3189              		.loc 1 446 0 is_stmt 0 discriminator 1
 3190 0040 574B     		ldr	r3, .L144
 3191 0042 1B78     		ldrb	r3, [r3]	@ zero_extendqisi2
 3192 0044 032B     		cmp	r3, #3
 3193 0046 31D1     		bne	.L126
 3194              	.L125:
 447:ssd1306.c     ****         if( x1 < 0 || x1 >= HEIGHT || x2 < 0 || x2 >= HEIGHT )
 3195              		.loc 1 447 0 is_stmt 1
 3196 0048 B7F90630 		ldrsh	r3, [r7, #6]
 3197 004c 002B     		cmp	r3, #0
 3198 004e C0F29D80 		blt	.L139
 3199              		.loc 1 447 0 is_stmt 0 discriminator 1
 3200 0052 B7F90620 		ldrsh	r2, [r7, #6]
 3201 0056 534B     		ldr	r3, .L144+4
 3202 0058 B3F90030 		ldrsh	r3, [r3]
 3203 005c 9A42     		cmp	r2, r3
 3204 005e 80F29580 		bge	.L139
 3205              		.loc 1 447 0 discriminator 2
 3206 0062 B7F90230 		ldrsh	r3, [r7, #2]
 3207 0066 002B     		cmp	r3, #0
 3208 0068 C0F29080 		blt	.L139
 3209              		.loc 1 447 0 discriminator 3
 3210 006c B7F90220 		ldrsh	r2, [r7, #2]
 3211 0070 4C4B     		ldr	r3, .L144+4
 3212 0072 B3F90030 		ldrsh	r3, [r3]
 3213 0076 9A42     		cmp	r2, r3
 3214 0078 80F28880 		bge	.L139
 448:ssd1306.c     ****             return;
 449:ssd1306.c     ****         if( y1 < 0 || y1 >= WIDTH || y2 < 0 || y2 >= WIDTH )
 3215              		.loc 1 449 0 is_stmt 1
 3216 007c B7F90430 		ldrsh	r3, [r7, #4]
 3217 0080 002B     		cmp	r3, #0
 3218 0082 C0F28580 		blt	.L140
 3219              		.loc 1 449 0 is_stmt 0 discriminator 1
 3220 0086 B7F90420 		ldrsh	r2, [r7, #4]
 3221 008a 474B     		ldr	r3, .L144+8
 3222 008c B3F90030 		ldrsh	r3, [r3]
 3223 0090 9A42     		cmp	r2, r3
 3224 0092 7DDA     		bge	.L140
ARM GAS  C:\Users\mariu\AppData\Local\Temp\ccmFU017.s 			page 66


 3225              		.loc 1 449 0 discriminator 2
 3226 0094 B7F90030 		ldrsh	r3, [r7]
 3227 0098 002B     		cmp	r3, #0
 3228 009a 79DB     		blt	.L140
 3229              		.loc 1 449 0 discriminator 3
 3230 009c B7F90020 		ldrsh	r2, [r7]
 3231 00a0 414B     		ldr	r3, .L144+8
 3232 00a2 B3F90030 		ldrsh	r3, [r3]
 3233 00a6 9A42     		cmp	r2, r3
 3234 00a8 2DDB     		blt	.L141
 450:ssd1306.c     ****             return;
 3235              		.loc 1 450 0 is_stmt 1
 3236 00aa 71E0     		b	.L140
 3237              	.L126:
 451:ssd1306.c     ****     }else{
 452:ssd1306.c     ****         if( y1 < 0 || y1 >= HEIGHT || y2 < 0 || y2 >= HEIGHT )
 3238              		.loc 1 452 0
 3239 00ac B7F90430 		ldrsh	r3, [r7, #4]
 3240 00b0 002B     		cmp	r3, #0
 3241 00b2 6FDB     		blt	.L142
 3242              		.loc 1 452 0 is_stmt 0 discriminator 1
 3243 00b4 B7F90420 		ldrsh	r2, [r7, #4]
 3244 00b8 3A4B     		ldr	r3, .L144+4
 3245 00ba B3F90030 		ldrsh	r3, [r3]
 3246 00be 9A42     		cmp	r2, r3
 3247 00c0 68DA     		bge	.L142
 3248              		.loc 1 452 0 discriminator 2
 3249 00c2 B7F90030 		ldrsh	r3, [r7]
 3250 00c6 002B     		cmp	r3, #0
 3251 00c8 64DB     		blt	.L142
 3252              		.loc 1 452 0 discriminator 3
 3253 00ca B7F90020 		ldrsh	r2, [r7]
 3254 00ce 354B     		ldr	r3, .L144+4
 3255 00d0 B3F90030 		ldrsh	r3, [r3]
 3256 00d4 9A42     		cmp	r2, r3
 3257 00d6 5DDA     		bge	.L142
 453:ssd1306.c     ****             return;
 454:ssd1306.c     ****         if( x1 < 0 || x1 >= WIDTH || x2 < 0 || x2 >= WIDTH )
 3258              		.loc 1 454 0 is_stmt 1
 3259 00d8 B7F90630 		ldrsh	r3, [r7, #6]
 3260 00dc 002B     		cmp	r3, #0
 3261 00de 5BDB     		blt	.L143
 3262              		.loc 1 454 0 is_stmt 0 discriminator 1
 3263 00e0 B7F90620 		ldrsh	r2, [r7, #6]
 3264 00e4 304B     		ldr	r3, .L144+8
 3265 00e6 B3F90030 		ldrsh	r3, [r3]
 3266 00ea 9A42     		cmp	r2, r3
 3267 00ec 54DA     		bge	.L143
 3268              		.loc 1 454 0 discriminator 2
 3269 00ee B7F90230 		ldrsh	r3, [r7, #2]
 3270 00f2 002B     		cmp	r3, #0
 3271 00f4 50DB     		blt	.L143
 3272              		.loc 1 454 0 discriminator 3
 3273 00f6 B7F90220 		ldrsh	r2, [r7, #2]
 3274 00fa 2B4B     		ldr	r3, .L144+8
 3275 00fc B3F90030 		ldrsh	r3, [r3]
 3276 0100 9A42     		cmp	r2, r3
ARM GAS  C:\Users\mariu\AppData\Local\Temp\ccmFU017.s 			page 67


 3277 0102 49DA     		bge	.L143
 3278 0104 00E0     		b	.L131
 3279              	.L141:
 449:ssd1306.c     ****             return;
 3280              		.loc 1 449 0 is_stmt 1
 3281 0106 00BF     		nop
 3282              	.L131:
 455:ssd1306.c     ****             return;
 456:ssd1306.c     ****     }
 457:ssd1306.c     ****     
 458:ssd1306.c     ****     gfx_rotation_adjust( &x1, &y1 );
 3283              		.loc 1 458 0
 3284 0108 3A1D     		adds	r2, r7, #4
 3285 010a BB1D     		adds	r3, r7, #6
 3286 010c 1146     		mov	r1, r2
 3287 010e 1846     		mov	r0, r3
 3288 0110 FFF7FEFF 		bl	gfx_rotation_adjust
 459:ssd1306.c     ****     gfx_rotation_adjust( &x2, &y2 );
 3289              		.loc 1 459 0
 3290 0114 3A46     		mov	r2, r7
 3291 0116 BB1C     		adds	r3, r7, #2
 3292 0118 1146     		mov	r1, r2
 3293 011a 1846     		mov	r0, r3
 3294 011c FFF7FEFF 		bl	gfx_rotation_adjust
 460:ssd1306.c     ****     
 461:ssd1306.c     ****     // ensure coords are from left to right and top to bottom
 462:ssd1306.c     ****     if( (x1 == x2 && y2 < y1) || (y1 == y2 && x2 < x1) ){
 3295              		.loc 1 462 0
 3296 0120 B7F90620 		ldrsh	r2, [r7, #6]
 3297 0124 B7F90230 		ldrsh	r3, [r7, #2]
 3298 0128 9A42     		cmp	r2, r3
 3299 012a 05D1     		bne	.L135
 3300              		.loc 1 462 0 is_stmt 0 discriminator 1
 3301 012c B7F90020 		ldrsh	r2, [r7]
 3302 0130 B7F90430 		ldrsh	r3, [r7, #4]
 3303 0134 9A42     		cmp	r2, r3
 3304 0136 0BDB     		blt	.L136
 3305              	.L135:
 3306              		.loc 1 462 0 discriminator 3
 3307 0138 B7F90420 		ldrsh	r2, [r7, #4]
 3308 013c B7F90030 		ldrsh	r3, [r7]
 3309 0140 9A42     		cmp	r2, r3
 3310 0142 13D1     		bne	.L137
 3311              		.loc 1 462 0 discriminator 4
 3312 0144 B7F90220 		ldrsh	r2, [r7, #2]
 3313 0148 B7F90630 		ldrsh	r3, [r7, #6]
 3314 014c 9A42     		cmp	r2, r3
 3315 014e 0DDA     		bge	.L137
 3316              	.L136:
 3317              	.LBB7:
 463:ssd1306.c     ****         // swap as needed
 464:ssd1306.c     ****         int16_t t = x1; x1 = x2; x2 = t;
 3318              		.loc 1 464 0 is_stmt 1
 3319 0150 FB88     		ldrh	r3, [r7, #6]	@ movhi
 3320 0152 FB81     		strh	r3, [r7, #14]	@ movhi
 3321 0154 B7F90230 		ldrsh	r3, [r7, #2]
 3322 0158 FB80     		strh	r3, [r7, #6]	@ movhi
ARM GAS  C:\Users\mariu\AppData\Local\Temp\ccmFU017.s 			page 68


 3323 015a FB89     		ldrh	r3, [r7, #14]	@ movhi
 3324 015c 7B80     		strh	r3, [r7, #2]	@ movhi
 465:ssd1306.c     ****         t = y1; y1 = y2; y2 = t;
 3325              		.loc 1 465 0
 3326 015e BB88     		ldrh	r3, [r7, #4]	@ movhi
 3327 0160 FB81     		strh	r3, [r7, #14]	@ movhi
 3328 0162 B7F90030 		ldrsh	r3, [r7]
 3329 0166 BB80     		strh	r3, [r7, #4]	@ movhi
 3330 0168 FB89     		ldrh	r3, [r7, #14]	@ movhi
 3331 016a 3B80     		strh	r3, [r7]	@ movhi
 3332              	.L137:
 3333              	.LBE7:
 466:ssd1306.c     ****     }
 467:ssd1306.c     ****     
 468:ssd1306.c     ****     display_line( x1, y1, x2, y2, color );
 3334              		.loc 1 468 0
 3335 016c B7F90600 		ldrsh	r0, [r7, #6]
 3336 0170 B7F90410 		ldrsh	r1, [r7, #4]
 3337 0174 B7F90220 		ldrsh	r2, [r7, #2]
 3338 0178 B7F90040 		ldrsh	r4, [r7]
 3339 017c 3B8C     		ldrh	r3, [r7, #32]
 3340 017e 0093     		str	r3, [sp]
 3341 0180 2346     		mov	r3, r4
 3342 0182 FFF7FEFF 		bl	display_line
 3343 0186 08E0     		b	.L122
 3344              	.L138:
 442:ssd1306.c     ****     }    
 3345              		.loc 1 442 0
 3346 0188 00BF     		nop
 3347 018a 06E0     		b	.L122
 3348              	.L139:
 448:ssd1306.c     ****         if( y1 < 0 || y1 >= WIDTH || y2 < 0 || y2 >= WIDTH )
 3349              		.loc 1 448 0
 3350 018c 00BF     		nop
 3351 018e 04E0     		b	.L122
 3352              	.L140:
 450:ssd1306.c     ****     }else{
 3353              		.loc 1 450 0
 3354 0190 00BF     		nop
 3355 0192 02E0     		b	.L122
 3356              	.L142:
 453:ssd1306.c     ****         if( x1 < 0 || x1 >= WIDTH || x2 < 0 || x2 >= WIDTH )
 3357              		.loc 1 453 0
 3358 0194 00BF     		nop
 3359 0196 00E0     		b	.L122
 3360              	.L143:
 455:ssd1306.c     ****     }
 3361              		.loc 1 455 0
 3362 0198 00BF     		nop
 3363              	.L122:
 469:ssd1306.c     **** }
 3364              		.loc 1 469 0
 3365 019a 1437     		adds	r7, r7, #20
 3366              		.cfi_def_cfa_offset 12
 3367 019c BD46     		mov	sp, r7
 3368              		.cfi_def_cfa_register 13
 3369              		@ sp needed
ARM GAS  C:\Users\mariu\AppData\Local\Temp\ccmFU017.s 			page 69


 3370 019e 90BD     		pop	{r4, r7, pc}
 3371              	.L145:
 3372              		.align	2
 3373              	.L144:
 3374 01a0 00000000 		.word	rotation
 3375 01a4 00000000 		.word	HEIGHT
 3376 01a8 00000000 		.word	WIDTH
 3377              		.cfi_endproc
 3378              	.LFE85:
 3379              		.size	gfx_hvLine, .-gfx_hvLine
 3380              		.section	.text.gfx_drawLine,"ax",%progbits
 3381              		.align	2
 3382              		.global	gfx_drawLine
 3383              		.thumb
 3384              		.thumb_func
 3385              		.type	gfx_drawLine, %function
 3386              	gfx_drawLine:
 3387              	.LFB86:
 470:ssd1306.c     **** 
 471:ssd1306.c     **** // always use this function for line drawing
 472:ssd1306.c     **** void gfx_drawLine( int16_t x0, int16_t y0, int16_t x1, int16_t y1, uint16_t color ){
 3388              		.loc 1 472 0
 3389              		.cfi_startproc
 3390              		@ args = 4, pretend = 0, frame = 24
 3391              		@ frame_needed = 1, uses_anonymous_args = 0
 3392 0000 90B5     		push	{r4, r7, lr}
 3393              		.cfi_def_cfa_offset 12
 3394              		.cfi_offset 4, -12
 3395              		.cfi_offset 7, -8
 3396              		.cfi_offset 14, -4
 3397 0002 89B0     		sub	sp, sp, #36
 3398              		.cfi_def_cfa_offset 48
 3399 0004 02AF     		add	r7, sp, #8
 3400              		.cfi_def_cfa 7, 40
 3401 0006 0446     		mov	r4, r0
 3402 0008 0846     		mov	r0, r1
 3403 000a 1146     		mov	r1, r2
 3404 000c 1A46     		mov	r2, r3
 3405 000e 2346     		mov	r3, r4	@ movhi
 3406 0010 FB80     		strh	r3, [r7, #6]	@ movhi
 3407 0012 0346     		mov	r3, r0	@ movhi
 3408 0014 BB80     		strh	r3, [r7, #4]	@ movhi
 3409 0016 0B46     		mov	r3, r1	@ movhi
 3410 0018 7B80     		strh	r3, [r7, #2]	@ movhi
 3411 001a 1346     		mov	r3, r2	@ movhi
 3412 001c 3B80     		strh	r3, [r7]	@ movhi
 473:ssd1306.c     ****  
 474:ssd1306.c     ****     if( x0 == x1 || y0 == y1 ){
 3413              		.loc 1 474 0
 3414 001e B7F90620 		ldrsh	r2, [r7, #6]
 3415 0022 B7F90230 		ldrsh	r3, [r7, #2]
 3416 0026 9A42     		cmp	r2, r3
 3417 0028 05D0     		beq	.L147
 3418              		.loc 1 474 0 is_stmt 0 discriminator 1
 3419 002a B7F90420 		ldrsh	r2, [r7, #4]
 3420 002e B7F90030 		ldrsh	r3, [r7]
 3421 0032 9A42     		cmp	r2, r3
ARM GAS  C:\Users\mariu\AppData\Local\Temp\ccmFU017.s 			page 70


 3422 0034 0DD1     		bne	.L148
 3423              	.L147:
 475:ssd1306.c     ****         // vertical and horizontal lines can be drawn faster
 476:ssd1306.c     ****         gfx_hvLine( x0, y0, x1, y1, color );
 3424              		.loc 1 476 0 is_stmt 1
 3425 0036 B7F90040 		ldrsh	r4, [r7]
 3426 003a B7F90220 		ldrsh	r2, [r7, #2]
 3427 003e B7F90410 		ldrsh	r1, [r7, #4]
 3428 0042 B7F90600 		ldrsh	r0, [r7, #6]
 3429 0046 3B8D     		ldrh	r3, [r7, #40]
 3430 0048 0093     		str	r3, [sp]
 3431 004a 2346     		mov	r3, r4
 3432 004c FFF7FEFF 		bl	gfx_hvLine
 477:ssd1306.c     ****         return;
 3433              		.loc 1 477 0
 3434 0050 8DE0     		b	.L146
 3435              	.L148:
 478:ssd1306.c     ****     }
 479:ssd1306.c     ****     
 480:ssd1306.c     ****     int16_t t;
 481:ssd1306.c     ****     
 482:ssd1306.c     ****     int16_t steep = abs(y1 - y0) > abs(x1 - x0);
 3436              		.loc 1 482 0
 3437 0052 B7F90020 		ldrsh	r2, [r7]
 3438 0056 B7F90430 		ldrsh	r3, [r7, #4]
 3439 005a D31A     		subs	r3, r2, r3
 3440 005c 83EAE372 		eor	r2, r3, r3, asr #31
 3441 0060 A2EBE372 		sub	r2, r2, r3, asr #31
 3442 0064 B7F90210 		ldrsh	r1, [r7, #2]
 3443 0068 B7F90630 		ldrsh	r3, [r7, #6]
 3444 006c CB1A     		subs	r3, r1, r3
 3445 006e 002B     		cmp	r3, #0
 3446 0070 B8BF     		it	lt
 3447 0072 5B42     		rsblt	r3, r3, #0
 3448 0074 9A42     		cmp	r2, r3
 3449 0076 CCBF     		ite	gt
 3450 0078 0123     		movgt	r3, #1
 3451 007a 0023     		movle	r3, #0
 3452 007c DBB2     		uxtb	r3, r3
 3453 007e 7B82     		strh	r3, [r7, #18]	@ movhi
 483:ssd1306.c     ****     if( steep ){
 3454              		.loc 1 483 0
 3455 0080 B7F91230 		ldrsh	r3, [r7, #18]
 3456 0084 002B     		cmp	r3, #0
 3457 0086 0BD0     		beq	.L150
 484:ssd1306.c     ****         t = x0; x0 = y0; y0 = t;
 3458              		.loc 1 484 0
 3459 0088 FB88     		ldrh	r3, [r7, #6]	@ movhi
 3460 008a 3B82     		strh	r3, [r7, #16]	@ movhi
 3461 008c BB88     		ldrh	r3, [r7, #4]	@ movhi
 3462 008e FB80     		strh	r3, [r7, #6]	@ movhi
 3463 0090 3B8A     		ldrh	r3, [r7, #16]	@ movhi
 3464 0092 BB80     		strh	r3, [r7, #4]	@ movhi
 485:ssd1306.c     ****         t = x1; x1 = y1; y1 = t;
 3465              		.loc 1 485 0
 3466 0094 7B88     		ldrh	r3, [r7, #2]	@ movhi
 3467 0096 3B82     		strh	r3, [r7, #16]	@ movhi
ARM GAS  C:\Users\mariu\AppData\Local\Temp\ccmFU017.s 			page 71


 3468 0098 3B88     		ldrh	r3, [r7]	@ movhi
 3469 009a 7B80     		strh	r3, [r7, #2]	@ movhi
 3470 009c 3B8A     		ldrh	r3, [r7, #16]	@ movhi
 3471 009e 3B80     		strh	r3, [r7]	@ movhi
 3472              	.L150:
 486:ssd1306.c     ****     }
 487:ssd1306.c     ****     if( x0 > x1 ){
 3473              		.loc 1 487 0
 3474 00a0 B7F90620 		ldrsh	r2, [r7, #6]
 3475 00a4 B7F90230 		ldrsh	r3, [r7, #2]
 3476 00a8 9A42     		cmp	r2, r3
 3477 00aa 0BDD     		ble	.L151
 488:ssd1306.c     ****         t = x0; x0 = x1; x1 = t;
 3478              		.loc 1 488 0
 3479 00ac FB88     		ldrh	r3, [r7, #6]	@ movhi
 3480 00ae 3B82     		strh	r3, [r7, #16]	@ movhi
 3481 00b0 7B88     		ldrh	r3, [r7, #2]	@ movhi
 3482 00b2 FB80     		strh	r3, [r7, #6]	@ movhi
 3483 00b4 3B8A     		ldrh	r3, [r7, #16]	@ movhi
 3484 00b6 7B80     		strh	r3, [r7, #2]	@ movhi
 489:ssd1306.c     ****         t = y0; y0 = y1; y1 = t;
 3485              		.loc 1 489 0
 3486 00b8 BB88     		ldrh	r3, [r7, #4]	@ movhi
 3487 00ba 3B82     		strh	r3, [r7, #16]	@ movhi
 3488 00bc 3B88     		ldrh	r3, [r7]	@ movhi
 3489 00be BB80     		strh	r3, [r7, #4]	@ movhi
 3490 00c0 3B8A     		ldrh	r3, [r7, #16]	@ movhi
 3491 00c2 3B80     		strh	r3, [r7]	@ movhi
 3492              	.L151:
 490:ssd1306.c     ****     }
 491:ssd1306.c     ****     int16_t dx, dy;
 492:ssd1306.c     ****     dx = x1 - x0;
 3493              		.loc 1 492 0
 3494 00c4 7A88     		ldrh	r2, [r7, #2]
 3495 00c6 FB88     		ldrh	r3, [r7, #6]
 3496 00c8 D31A     		subs	r3, r2, r3
 3497 00ca 9BB2     		uxth	r3, r3
 3498 00cc FB81     		strh	r3, [r7, #14]	@ movhi
 493:ssd1306.c     ****     dy = abs(y1 - y0);
 3499              		.loc 1 493 0
 3500 00ce B7F90020 		ldrsh	r2, [r7]
 3501 00d2 B7F90430 		ldrsh	r3, [r7, #4]
 3502 00d6 D31A     		subs	r3, r2, r3
 3503 00d8 002B     		cmp	r3, #0
 3504 00da B8BF     		it	lt
 3505 00dc 5B42     		rsblt	r3, r3, #0
 3506 00de BB81     		strh	r3, [r7, #12]	@ movhi
 494:ssd1306.c     ****     int16_t err = dx / 2;
 3507              		.loc 1 494 0
 3508 00e0 B7F90E30 		ldrsh	r3, [r7, #14]
 3509 00e4 DA0F     		lsrs	r2, r3, #31
 3510 00e6 1344     		add	r3, r3, r2
 3511 00e8 5B10     		asrs	r3, r3, #1
 3512 00ea FB82     		strh	r3, [r7, #22]	@ movhi
 495:ssd1306.c     ****     int16_t ystep;
 496:ssd1306.c     ****     if( y0 < y1 ){
 3513              		.loc 1 496 0
ARM GAS  C:\Users\mariu\AppData\Local\Temp\ccmFU017.s 			page 72


 3514 00ec B7F90420 		ldrsh	r2, [r7, #4]
 3515 00f0 B7F90030 		ldrsh	r3, [r7]
 3516 00f4 9A42     		cmp	r2, r3
 3517 00f6 02DA     		bge	.L152
 497:ssd1306.c     ****         ystep = 1;
 3518              		.loc 1 497 0
 3519 00f8 0123     		movs	r3, #1
 3520 00fa BB82     		strh	r3, [r7, #20]	@ movhi
 3521 00fc 31E0     		b	.L154
 3522              	.L152:
 498:ssd1306.c     ****     }else{
 499:ssd1306.c     ****         ystep = -1;
 3523              		.loc 1 499 0
 3524 00fe 4FF6FF73 		movw	r3, #65535
 3525 0102 BB82     		strh	r3, [r7, #20]	@ movhi
 500:ssd1306.c     ****     }
 501:ssd1306.c     ****     for( ; x0<=x1; x0++ ){
 3526              		.loc 1 501 0
 3527 0104 2DE0     		b	.L154
 3528              	.L158:
 502:ssd1306.c     ****         if( steep ){
 3529              		.loc 1 502 0
 3530 0106 B7F91230 		ldrsh	r3, [r7, #18]
 3531 010a 002B     		cmp	r3, #0
 3532 010c 08D0     		beq	.L155
 503:ssd1306.c     ****             gfx_drawPixel( y0, x0, color );
 3533              		.loc 1 503 0
 3534 010e 3A8D     		ldrh	r2, [r7, #40]
 3535 0110 B7F90610 		ldrsh	r1, [r7, #6]
 3536 0114 B7F90430 		ldrsh	r3, [r7, #4]
 3537 0118 1846     		mov	r0, r3
 3538 011a FFF7FEFF 		bl	gfx_drawPixel
 3539 011e 07E0     		b	.L156
 3540              	.L155:
 504:ssd1306.c     ****         }else{
 505:ssd1306.c     ****             gfx_drawPixel( x0, y0, color );
 3541              		.loc 1 505 0
 3542 0120 3A8D     		ldrh	r2, [r7, #40]
 3543 0122 B7F90410 		ldrsh	r1, [r7, #4]
 3544 0126 B7F90630 		ldrsh	r3, [r7, #6]
 3545 012a 1846     		mov	r0, r3
 3546 012c FFF7FEFF 		bl	gfx_drawPixel
 3547              	.L156:
 506:ssd1306.c     ****         }
 507:ssd1306.c     ****         err -= dy;
 3548              		.loc 1 507 0
 3549 0130 FA8A     		ldrh	r2, [r7, #22]
 3550 0132 BB89     		ldrh	r3, [r7, #12]
 3551 0134 D31A     		subs	r3, r2, r3
 3552 0136 9BB2     		uxth	r3, r3
 3553 0138 FB82     		strh	r3, [r7, #22]	@ movhi
 508:ssd1306.c     ****         if( err < 0 ){
 3554              		.loc 1 508 0
 3555 013a B7F91630 		ldrsh	r3, [r7, #22]
 3556 013e 002B     		cmp	r3, #0
 3557 0140 09DA     		bge	.L157
 509:ssd1306.c     ****             y0 += ystep;
ARM GAS  C:\Users\mariu\AppData\Local\Temp\ccmFU017.s 			page 73


 3558              		.loc 1 509 0
 3559 0142 BA88     		ldrh	r2, [r7, #4]
 3560 0144 BB8A     		ldrh	r3, [r7, #20]
 3561 0146 1344     		add	r3, r3, r2
 3562 0148 9BB2     		uxth	r3, r3
 3563 014a BB80     		strh	r3, [r7, #4]	@ movhi
 510:ssd1306.c     ****             err += dx;
 3564              		.loc 1 510 0
 3565 014c FA8A     		ldrh	r2, [r7, #22]
 3566 014e FB89     		ldrh	r3, [r7, #14]
 3567 0150 1344     		add	r3, r3, r2
 3568 0152 9BB2     		uxth	r3, r3
 3569 0154 FB82     		strh	r3, [r7, #22]	@ movhi
 3570              	.L157:
 501:ssd1306.c     ****         if( steep ){
 3571              		.loc 1 501 0
 3572 0156 B7F90630 		ldrsh	r3, [r7, #6]
 3573 015a 9BB2     		uxth	r3, r3
 3574 015c 0133     		adds	r3, r3, #1
 3575 015e 9BB2     		uxth	r3, r3
 3576 0160 FB80     		strh	r3, [r7, #6]	@ movhi
 3577              	.L154:
 501:ssd1306.c     ****         if( steep ){
 3578              		.loc 1 501 0 is_stmt 0 discriminator 1
 3579 0162 B7F90620 		ldrsh	r2, [r7, #6]
 3580 0166 B7F90230 		ldrsh	r3, [r7, #2]
 3581 016a 9A42     		cmp	r2, r3
 3582 016c CBDD     		ble	.L158
 3583              	.L146:
 511:ssd1306.c     ****         }
 512:ssd1306.c     ****     }
 513:ssd1306.c     **** }
 3584              		.loc 1 513 0 is_stmt 1
 3585 016e 1C37     		adds	r7, r7, #28
 3586              		.cfi_def_cfa_offset 12
 3587 0170 BD46     		mov	sp, r7
 3588              		.cfi_def_cfa_register 13
 3589              		@ sp needed
 3590 0172 90BD     		pop	{r4, r7, pc}
 3591              		.cfi_endproc
 3592              	.LFE86:
 3593              		.size	gfx_drawLine, .-gfx_drawLine
 3594              		.section	.text.gfx_drawRect,"ax",%progbits
 3595              		.align	2
 3596              		.global	gfx_drawRect
 3597              		.thumb
 3598              		.thumb_func
 3599              		.type	gfx_drawRect, %function
 3600              	gfx_drawRect:
 3601              	.LFB87:
 514:ssd1306.c     **** 
 515:ssd1306.c     **** void gfx_drawRect( int16_t x, int16_t y, int16_t w, int16_t h, uint16_t color ){
 3602              		.loc 1 515 0
 3603              		.cfi_startproc
 3604              		@ args = 4, pretend = 0, frame = 8
 3605              		@ frame_needed = 1, uses_anonymous_args = 0
 3606 0000 90B5     		push	{r4, r7, lr}
ARM GAS  C:\Users\mariu\AppData\Local\Temp\ccmFU017.s 			page 74


 3607              		.cfi_def_cfa_offset 12
 3608              		.cfi_offset 4, -12
 3609              		.cfi_offset 7, -8
 3610              		.cfi_offset 14, -4
 3611 0002 85B0     		sub	sp, sp, #20
 3612              		.cfi_def_cfa_offset 32
 3613 0004 02AF     		add	r7, sp, #8
 3614              		.cfi_def_cfa 7, 24
 3615 0006 0446     		mov	r4, r0
 3616 0008 0846     		mov	r0, r1
 3617 000a 1146     		mov	r1, r2
 3618 000c 1A46     		mov	r2, r3
 3619 000e 2346     		mov	r3, r4	@ movhi
 3620 0010 FB80     		strh	r3, [r7, #6]	@ movhi
 3621 0012 0346     		mov	r3, r0	@ movhi
 3622 0014 BB80     		strh	r3, [r7, #4]	@ movhi
 3623 0016 0B46     		mov	r3, r1	@ movhi
 3624 0018 7B80     		strh	r3, [r7, #2]	@ movhi
 3625 001a 1346     		mov	r3, r2	@ movhi
 3626 001c 3B80     		strh	r3, [r7]	@ movhi
 516:ssd1306.c     ****     
 517:ssd1306.c     ****     gfx_drawLine( x, y, x+w-1, y, color );
 3627              		.loc 1 517 0
 3628 001e FA88     		ldrh	r2, [r7, #6]
 3629 0020 7B88     		ldrh	r3, [r7, #2]
 3630 0022 1344     		add	r3, r3, r2
 3631 0024 9BB2     		uxth	r3, r3
 3632 0026 013B     		subs	r3, r3, #1
 3633 0028 9BB2     		uxth	r3, r3
 3634 002a 1AB2     		sxth	r2, r3
 3635 002c B7F90440 		ldrsh	r4, [r7, #4]
 3636 0030 B7F90410 		ldrsh	r1, [r7, #4]
 3637 0034 B7F90600 		ldrsh	r0, [r7, #6]
 3638 0038 3B8B     		ldrh	r3, [r7, #24]
 3639 003a 0093     		str	r3, [sp]
 3640 003c 2346     		mov	r3, r4
 3641 003e FFF7FEFF 		bl	gfx_drawLine
 518:ssd1306.c     ****     gfx_drawLine( x, y+h-1, x+w-1, y+h-1, color );
 3642              		.loc 1 518 0
 3643 0042 BA88     		ldrh	r2, [r7, #4]
 3644 0044 3B88     		ldrh	r3, [r7]
 3645 0046 1344     		add	r3, r3, r2
 3646 0048 9BB2     		uxth	r3, r3
 3647 004a 013B     		subs	r3, r3, #1
 3648 004c 9BB2     		uxth	r3, r3
 3649 004e 19B2     		sxth	r1, r3
 3650 0050 FA88     		ldrh	r2, [r7, #6]
 3651 0052 7B88     		ldrh	r3, [r7, #2]
 3652 0054 1344     		add	r3, r3, r2
 3653 0056 9BB2     		uxth	r3, r3
 3654 0058 013B     		subs	r3, r3, #1
 3655 005a 9BB2     		uxth	r3, r3
 3656 005c 1CB2     		sxth	r4, r3
 3657 005e BA88     		ldrh	r2, [r7, #4]
 3658 0060 3B88     		ldrh	r3, [r7]
 3659 0062 1344     		add	r3, r3, r2
 3660 0064 9BB2     		uxth	r3, r3
ARM GAS  C:\Users\mariu\AppData\Local\Temp\ccmFU017.s 			page 75


 3661 0066 013B     		subs	r3, r3, #1
 3662 0068 9BB2     		uxth	r3, r3
 3663 006a 1AB2     		sxth	r2, r3
 3664 006c B7F90600 		ldrsh	r0, [r7, #6]
 3665 0070 3B8B     		ldrh	r3, [r7, #24]
 3666 0072 0093     		str	r3, [sp]
 3667 0074 1346     		mov	r3, r2
 3668 0076 2246     		mov	r2, r4
 3669 0078 FFF7FEFF 		bl	gfx_drawLine
 519:ssd1306.c     ****     gfx_drawLine( x, y, x, y+h-1, color );
 3670              		.loc 1 519 0
 3671 007c BA88     		ldrh	r2, [r7, #4]
 3672 007e 3B88     		ldrh	r3, [r7]
 3673 0080 1344     		add	r3, r3, r2
 3674 0082 9BB2     		uxth	r3, r3
 3675 0084 013B     		subs	r3, r3, #1
 3676 0086 9BB2     		uxth	r3, r3
 3677 0088 1CB2     		sxth	r4, r3
 3678 008a B7F90620 		ldrsh	r2, [r7, #6]
 3679 008e B7F90410 		ldrsh	r1, [r7, #4]
 3680 0092 B7F90600 		ldrsh	r0, [r7, #6]
 3681 0096 3B8B     		ldrh	r3, [r7, #24]
 3682 0098 0093     		str	r3, [sp]
 3683 009a 2346     		mov	r3, r4
 3684 009c FFF7FEFF 		bl	gfx_drawLine
 520:ssd1306.c     ****     gfx_drawLine( x+w-1, y, x+w-1, y+h-1, color );
 3685              		.loc 1 520 0
 3686 00a0 FA88     		ldrh	r2, [r7, #6]
 3687 00a2 7B88     		ldrh	r3, [r7, #2]
 3688 00a4 1344     		add	r3, r3, r2
 3689 00a6 9BB2     		uxth	r3, r3
 3690 00a8 013B     		subs	r3, r3, #1
 3691 00aa 9BB2     		uxth	r3, r3
 3692 00ac 18B2     		sxth	r0, r3
 3693 00ae FA88     		ldrh	r2, [r7, #6]
 3694 00b0 7B88     		ldrh	r3, [r7, #2]
 3695 00b2 1344     		add	r3, r3, r2
 3696 00b4 9BB2     		uxth	r3, r3
 3697 00b6 013B     		subs	r3, r3, #1
 3698 00b8 9BB2     		uxth	r3, r3
 3699 00ba 1CB2     		sxth	r4, r3
 3700 00bc BA88     		ldrh	r2, [r7, #4]
 3701 00be 3B88     		ldrh	r3, [r7]
 3702 00c0 1344     		add	r3, r3, r2
 3703 00c2 9BB2     		uxth	r3, r3
 3704 00c4 013B     		subs	r3, r3, #1
 3705 00c6 9BB2     		uxth	r3, r3
 3706 00c8 1AB2     		sxth	r2, r3
 3707 00ca B7F90410 		ldrsh	r1, [r7, #4]
 3708 00ce 3B8B     		ldrh	r3, [r7, #24]
 3709 00d0 0093     		str	r3, [sp]
 3710 00d2 1346     		mov	r3, r2
 3711 00d4 2246     		mov	r2, r4
 3712 00d6 FFF7FEFF 		bl	gfx_drawLine
 521:ssd1306.c     **** }
 3713              		.loc 1 521 0
 3714 00da 00BF     		nop
ARM GAS  C:\Users\mariu\AppData\Local\Temp\ccmFU017.s 			page 76


 3715 00dc 0C37     		adds	r7, r7, #12
 3716              		.cfi_def_cfa_offset 12
 3717 00de BD46     		mov	sp, r7
 3718              		.cfi_def_cfa_register 13
 3719              		@ sp needed
 3720 00e0 90BD     		pop	{r4, r7, pc}
 3721              		.cfi_endproc
 3722              	.LFE87:
 3723              		.size	gfx_drawRect, .-gfx_drawRect
 3724 00e2 00BF     		.section	.text.gfx_fillRect,"ax",%progbits
 3725              		.align	2
 3726              		.global	gfx_fillRect
 3727              		.thumb
 3728              		.thumb_func
 3729              		.type	gfx_fillRect, %function
 3730              	gfx_fillRect:
 3731              	.LFB88:
 522:ssd1306.c     **** 
 523:ssd1306.c     **** void gfx_fillRect( int16_t x, int16_t y, int16_t w, int16_t h, uint16_t color ){
 3732              		.loc 1 523 0
 3733              		.cfi_startproc
 3734              		@ args = 4, pretend = 0, frame = 16
 3735              		@ frame_needed = 1, uses_anonymous_args = 0
 3736 0000 90B5     		push	{r4, r7, lr}
 3737              		.cfi_def_cfa_offset 12
 3738              		.cfi_offset 4, -12
 3739              		.cfi_offset 7, -8
 3740              		.cfi_offset 14, -4
 3741 0002 87B0     		sub	sp, sp, #28
 3742              		.cfi_def_cfa_offset 40
 3743 0004 02AF     		add	r7, sp, #8
 3744              		.cfi_def_cfa 7, 32
 3745 0006 0446     		mov	r4, r0
 3746 0008 0846     		mov	r0, r1
 3747 000a 1146     		mov	r1, r2
 3748 000c 1A46     		mov	r2, r3
 3749 000e 2346     		mov	r3, r4	@ movhi
 3750 0010 FB80     		strh	r3, [r7, #6]	@ movhi
 3751 0012 0346     		mov	r3, r0	@ movhi
 3752 0014 BB80     		strh	r3, [r7, #4]	@ movhi
 3753 0016 0B46     		mov	r3, r1	@ movhi
 3754 0018 7B80     		strh	r3, [r7, #2]	@ movhi
 3755 001a 1346     		mov	r3, r2	@ movhi
 3756 001c 3B80     		strh	r3, [r7]	@ movhi
 524:ssd1306.c     ****     int16_t i = 0;
 3757              		.loc 1 524 0
 3758 001e 0023     		movs	r3, #0
 3759 0020 FB81     		strh	r3, [r7, #14]	@ movhi
 525:ssd1306.c     ****     if( h > w ){
 3760              		.loc 1 525 0
 3761 0022 B7F90020 		ldrsh	r2, [r7]
 3762 0026 B7F90230 		ldrsh	r3, [r7, #2]
 3763 002a 9A42     		cmp	r2, r3
 3764 002c 24DD     		ble	.L161
 526:ssd1306.c     ****         for( i = x ; i < x+w ; i++ ){
 3765              		.loc 1 526 0
 3766 002e FB88     		ldrh	r3, [r7, #6]	@ movhi
ARM GAS  C:\Users\mariu\AppData\Local\Temp\ccmFU017.s 			page 77


 3767 0030 FB81     		strh	r3, [r7, #14]	@ movhi
 3768 0032 17E0     		b	.L162
 3769              	.L163:
 527:ssd1306.c     ****             gfx_drawLine( i, y, i, y+h-1, color );
 3770              		.loc 1 527 0 discriminator 3
 3771 0034 BA88     		ldrh	r2, [r7, #4]
 3772 0036 3B88     		ldrh	r3, [r7]
 3773 0038 1344     		add	r3, r3, r2
 3774 003a 9BB2     		uxth	r3, r3
 3775 003c 013B     		subs	r3, r3, #1
 3776 003e 9BB2     		uxth	r3, r3
 3777 0040 1CB2     		sxth	r4, r3
 3778 0042 B7F90E20 		ldrsh	r2, [r7, #14]
 3779 0046 B7F90410 		ldrsh	r1, [r7, #4]
 3780 004a B7F90E00 		ldrsh	r0, [r7, #14]
 3781 004e 3B8C     		ldrh	r3, [r7, #32]
 3782 0050 0093     		str	r3, [sp]
 3783 0052 2346     		mov	r3, r4
 3784 0054 FFF7FEFF 		bl	gfx_drawLine
 526:ssd1306.c     ****         for( i = x ; i < x+w ; i++ ){
 3785              		.loc 1 526 0 discriminator 3
 3786 0058 B7F90E30 		ldrsh	r3, [r7, #14]
 3787 005c 9BB2     		uxth	r3, r3
 3788 005e 0133     		adds	r3, r3, #1
 3789 0060 9BB2     		uxth	r3, r3
 3790 0062 FB81     		strh	r3, [r7, #14]	@ movhi
 3791              	.L162:
 526:ssd1306.c     ****         for( i = x ; i < x+w ; i++ ){
 3792              		.loc 1 526 0 is_stmt 0 discriminator 1
 3793 0064 B7F90E20 		ldrsh	r2, [r7, #14]
 3794 0068 B7F90610 		ldrsh	r1, [r7, #6]
 3795 006c B7F90230 		ldrsh	r3, [r7, #2]
 3796 0070 0B44     		add	r3, r3, r1
 3797 0072 9A42     		cmp	r2, r3
 3798 0074 DEDB     		blt	.L163
 528:ssd1306.c     ****         }
 529:ssd1306.c     ****     }else{
 530:ssd1306.c     ****         for( i = y ; i < y+h ; i++ ){
 531:ssd1306.c     ****             gfx_drawLine( x, i, x+w-1, i, color );
 532:ssd1306.c     ****         }
 533:ssd1306.c     ****     }
 534:ssd1306.c     **** }
 3799              		.loc 1 534 0 is_stmt 1
 3800 0076 23E0     		b	.L167
 3801              	.L161:
 530:ssd1306.c     ****             gfx_drawLine( x, i, x+w-1, i, color );
 3802              		.loc 1 530 0
 3803 0078 BB88     		ldrh	r3, [r7, #4]	@ movhi
 3804 007a FB81     		strh	r3, [r7, #14]	@ movhi
 3805 007c 17E0     		b	.L165
 3806              	.L166:
 531:ssd1306.c     ****         }
 3807              		.loc 1 531 0 discriminator 3
 3808 007e FA88     		ldrh	r2, [r7, #6]
 3809 0080 7B88     		ldrh	r3, [r7, #2]
 3810 0082 1344     		add	r3, r3, r2
 3811 0084 9BB2     		uxth	r3, r3
ARM GAS  C:\Users\mariu\AppData\Local\Temp\ccmFU017.s 			page 78


 3812 0086 013B     		subs	r3, r3, #1
 3813 0088 9BB2     		uxth	r3, r3
 3814 008a 1AB2     		sxth	r2, r3
 3815 008c B7F90E40 		ldrsh	r4, [r7, #14]
 3816 0090 B7F90E10 		ldrsh	r1, [r7, #14]
 3817 0094 B7F90600 		ldrsh	r0, [r7, #6]
 3818 0098 3B8C     		ldrh	r3, [r7, #32]
 3819 009a 0093     		str	r3, [sp]
 3820 009c 2346     		mov	r3, r4
 3821 009e FFF7FEFF 		bl	gfx_drawLine
 530:ssd1306.c     ****             gfx_drawLine( x, i, x+w-1, i, color );
 3822              		.loc 1 530 0 discriminator 3
 3823 00a2 B7F90E30 		ldrsh	r3, [r7, #14]
 3824 00a6 9BB2     		uxth	r3, r3
 3825 00a8 0133     		adds	r3, r3, #1
 3826 00aa 9BB2     		uxth	r3, r3
 3827 00ac FB81     		strh	r3, [r7, #14]	@ movhi
 3828              	.L165:
 530:ssd1306.c     ****             gfx_drawLine( x, i, x+w-1, i, color );
 3829              		.loc 1 530 0 is_stmt 0 discriminator 1
 3830 00ae B7F90E20 		ldrsh	r2, [r7, #14]
 3831 00b2 B7F90410 		ldrsh	r1, [r7, #4]
 3832 00b6 B7F90030 		ldrsh	r3, [r7]
 3833 00ba 0B44     		add	r3, r3, r1
 3834 00bc 9A42     		cmp	r2, r3
 3835 00be DEDB     		blt	.L166
 3836              	.L167:
 3837              		.loc 1 534 0 is_stmt 1
 3838 00c0 00BF     		nop
 3839 00c2 1437     		adds	r7, r7, #20
 3840              		.cfi_def_cfa_offset 12
 3841 00c4 BD46     		mov	sp, r7
 3842              		.cfi_def_cfa_register 13
 3843              		@ sp needed
 3844 00c6 90BD     		pop	{r4, r7, pc}
 3845              		.cfi_endproc
 3846              	.LFE88:
 3847              		.size	gfx_fillRect, .-gfx_fillRect
 3848              		.section	.text.gfx_drawCircle,"ax",%progbits
 3849              		.align	2
 3850              		.global	gfx_drawCircle
 3851              		.thumb
 3852              		.thumb_func
 3853              		.type	gfx_drawCircle, %function
 3854              	gfx_drawCircle:
 3855              	.LFB89:
 535:ssd1306.c     **** 
 536:ssd1306.c     **** 
 537:ssd1306.c     **** // circle outline
 538:ssd1306.c     **** void gfx_drawCircle( int16_t x0, int16_t y0, int16_t r,uint16_t color ){
 3856              		.loc 1 538 0
 3857              		.cfi_startproc
 3858              		@ args = 0, pretend = 0, frame = 24
 3859              		@ frame_needed = 1, uses_anonymous_args = 0
 3860 0000 90B5     		push	{r4, r7, lr}
 3861              		.cfi_def_cfa_offset 12
 3862              		.cfi_offset 4, -12
ARM GAS  C:\Users\mariu\AppData\Local\Temp\ccmFU017.s 			page 79


 3863              		.cfi_offset 7, -8
 3864              		.cfi_offset 14, -4
 3865 0002 87B0     		sub	sp, sp, #28
 3866              		.cfi_def_cfa_offset 40
 3867 0004 00AF     		add	r7, sp, #0
 3868              		.cfi_def_cfa_register 7
 3869 0006 0446     		mov	r4, r0
 3870 0008 0846     		mov	r0, r1
 3871 000a 1146     		mov	r1, r2
 3872 000c 1A46     		mov	r2, r3
 3873 000e 2346     		mov	r3, r4	@ movhi
 3874 0010 FB80     		strh	r3, [r7, #6]	@ movhi
 3875 0012 0346     		mov	r3, r0	@ movhi
 3876 0014 BB80     		strh	r3, [r7, #4]	@ movhi
 3877 0016 0B46     		mov	r3, r1	@ movhi
 3878 0018 7B80     		strh	r3, [r7, #2]	@ movhi
 3879 001a 1346     		mov	r3, r2	@ movhi
 3880 001c 3B80     		strh	r3, [r7]	@ movhi
 539:ssd1306.c     **** 
 540:ssd1306.c     ****     int16_t f = 1 - r;
 3881              		.loc 1 540 0
 3882 001e 7B88     		ldrh	r3, [r7, #2]
 3883 0020 C3F10103 		rsb	r3, r3, #1
 3884 0024 9BB2     		uxth	r3, r3
 3885 0026 FB82     		strh	r3, [r7, #22]	@ movhi
 541:ssd1306.c     ****     int16_t ddF_x = 1;
 3886              		.loc 1 541 0
 3887 0028 0123     		movs	r3, #1
 3888 002a BB82     		strh	r3, [r7, #20]	@ movhi
 542:ssd1306.c     ****     int16_t ddF_y = -2 * r;
 3889              		.loc 1 542 0
 3890 002c 7B88     		ldrh	r3, [r7, #2]
 3891 002e 1A46     		mov	r2, r3	@ movhi
 3892 0030 D203     		lsls	r2, r2, #15
 3893 0032 D31A     		subs	r3, r2, r3
 3894 0034 5B00     		lsls	r3, r3, #1
 3895 0036 9BB2     		uxth	r3, r3
 3896 0038 7B82     		strh	r3, [r7, #18]	@ movhi
 543:ssd1306.c     ****     int16_t x = 0;
 3897              		.loc 1 543 0
 3898 003a 0023     		movs	r3, #0
 3899 003c 3B82     		strh	r3, [r7, #16]	@ movhi
 544:ssd1306.c     ****     int16_t y = r;
 3900              		.loc 1 544 0
 3901 003e 7B88     		ldrh	r3, [r7, #2]	@ movhi
 3902 0040 FB81     		strh	r3, [r7, #14]	@ movhi
 545:ssd1306.c     ****     gfx_drawPixel( x0 , y0+r, color );
 3903              		.loc 1 545 0
 3904 0042 BA88     		ldrh	r2, [r7, #4]
 3905 0044 7B88     		ldrh	r3, [r7, #2]
 3906 0046 1344     		add	r3, r3, r2
 3907 0048 9BB2     		uxth	r3, r3
 3908 004a 19B2     		sxth	r1, r3
 3909 004c 3A88     		ldrh	r2, [r7]
 3910 004e B7F90630 		ldrsh	r3, [r7, #6]
 3911 0052 1846     		mov	r0, r3
 3912 0054 FFF7FEFF 		bl	gfx_drawPixel
ARM GAS  C:\Users\mariu\AppData\Local\Temp\ccmFU017.s 			page 80


 546:ssd1306.c     ****     gfx_drawPixel( x0 , y0-r, color );
 3913              		.loc 1 546 0
 3914 0058 BA88     		ldrh	r2, [r7, #4]
 3915 005a 7B88     		ldrh	r3, [r7, #2]
 3916 005c D31A     		subs	r3, r2, r3
 3917 005e 9BB2     		uxth	r3, r3
 3918 0060 19B2     		sxth	r1, r3
 3919 0062 3A88     		ldrh	r2, [r7]
 3920 0064 B7F90630 		ldrsh	r3, [r7, #6]
 3921 0068 1846     		mov	r0, r3
 3922 006a FFF7FEFF 		bl	gfx_drawPixel
 547:ssd1306.c     ****     gfx_drawPixel( x0+r, y0 , color );
 3923              		.loc 1 547 0
 3924 006e FA88     		ldrh	r2, [r7, #6]
 3925 0070 7B88     		ldrh	r3, [r7, #2]
 3926 0072 1344     		add	r3, r3, r2
 3927 0074 9BB2     		uxth	r3, r3
 3928 0076 1BB2     		sxth	r3, r3
 3929 0078 3A88     		ldrh	r2, [r7]
 3930 007a B7F90410 		ldrsh	r1, [r7, #4]
 3931 007e 1846     		mov	r0, r3
 3932 0080 FFF7FEFF 		bl	gfx_drawPixel
 548:ssd1306.c     ****     gfx_drawPixel( x0-r, y0 , color );
 3933              		.loc 1 548 0
 3934 0084 FA88     		ldrh	r2, [r7, #6]
 3935 0086 7B88     		ldrh	r3, [r7, #2]
 3936 0088 D31A     		subs	r3, r2, r3
 3937 008a 9BB2     		uxth	r3, r3
 3938 008c 1BB2     		sxth	r3, r3
 3939 008e 3A88     		ldrh	r2, [r7]
 3940 0090 B7F90410 		ldrsh	r1, [r7, #4]
 3941 0094 1846     		mov	r0, r3
 3942 0096 FFF7FEFF 		bl	gfx_drawPixel
 549:ssd1306.c     ****     while( x < y ){
 3943              		.loc 1 549 0
 3944 009a 91E0     		b	.L169
 3945              	.L171:
 550:ssd1306.c     ****         if( f >= 0 ){
 3946              		.loc 1 550 0
 3947 009c B7F91630 		ldrsh	r3, [r7, #22]
 3948 00a0 002B     		cmp	r3, #0
 3949 00a2 0EDB     		blt	.L170
 551:ssd1306.c     ****             y--;
 3950              		.loc 1 551 0
 3951 00a4 B7F90E30 		ldrsh	r3, [r7, #14]
 3952 00a8 9BB2     		uxth	r3, r3
 3953 00aa 013B     		subs	r3, r3, #1
 3954 00ac 9BB2     		uxth	r3, r3
 3955 00ae FB81     		strh	r3, [r7, #14]	@ movhi
 552:ssd1306.c     ****             ddF_y += 2;
 3956              		.loc 1 552 0
 3957 00b0 7B8A     		ldrh	r3, [r7, #18]
 3958 00b2 0233     		adds	r3, r3, #2
 3959 00b4 9BB2     		uxth	r3, r3
 3960 00b6 7B82     		strh	r3, [r7, #18]	@ movhi
 553:ssd1306.c     ****             f += ddF_y;
 3961              		.loc 1 553 0
ARM GAS  C:\Users\mariu\AppData\Local\Temp\ccmFU017.s 			page 81


 3962 00b8 FA8A     		ldrh	r2, [r7, #22]
 3963 00ba 7B8A     		ldrh	r3, [r7, #18]
 3964 00bc 1344     		add	r3, r3, r2
 3965 00be 9BB2     		uxth	r3, r3
 3966 00c0 FB82     		strh	r3, [r7, #22]	@ movhi
 3967              	.L170:
 554:ssd1306.c     ****         }
 555:ssd1306.c     ****         x++;
 3968              		.loc 1 555 0
 3969 00c2 B7F91030 		ldrsh	r3, [r7, #16]
 3970 00c6 9BB2     		uxth	r3, r3
 3971 00c8 0133     		adds	r3, r3, #1
 3972 00ca 9BB2     		uxth	r3, r3
 3973 00cc 3B82     		strh	r3, [r7, #16]	@ movhi
 556:ssd1306.c     ****         ddF_x += 2;
 3974              		.loc 1 556 0
 3975 00ce BB8A     		ldrh	r3, [r7, #20]
 3976 00d0 0233     		adds	r3, r3, #2
 3977 00d2 9BB2     		uxth	r3, r3
 3978 00d4 BB82     		strh	r3, [r7, #20]	@ movhi
 557:ssd1306.c     ****         f += ddF_x;
 3979              		.loc 1 557 0
 3980 00d6 FA8A     		ldrh	r2, [r7, #22]
 3981 00d8 BB8A     		ldrh	r3, [r7, #20]
 3982 00da 1344     		add	r3, r3, r2
 3983 00dc 9BB2     		uxth	r3, r3
 3984 00de FB82     		strh	r3, [r7, #22]	@ movhi
 558:ssd1306.c     ****         gfx_drawPixel( x0 + x, y0 + y, color );
 3985              		.loc 1 558 0
 3986 00e0 FA88     		ldrh	r2, [r7, #6]
 3987 00e2 3B8A     		ldrh	r3, [r7, #16]
 3988 00e4 1344     		add	r3, r3, r2
 3989 00e6 9BB2     		uxth	r3, r3
 3990 00e8 18B2     		sxth	r0, r3
 3991 00ea BA88     		ldrh	r2, [r7, #4]
 3992 00ec FB89     		ldrh	r3, [r7, #14]
 3993 00ee 1344     		add	r3, r3, r2
 3994 00f0 9BB2     		uxth	r3, r3
 3995 00f2 1BB2     		sxth	r3, r3
 3996 00f4 3A88     		ldrh	r2, [r7]
 3997 00f6 1946     		mov	r1, r3
 3998 00f8 FFF7FEFF 		bl	gfx_drawPixel
 559:ssd1306.c     ****         gfx_drawPixel( x0 - x, y0 + y, color );
 3999              		.loc 1 559 0
 4000 00fc FA88     		ldrh	r2, [r7, #6]
 4001 00fe 3B8A     		ldrh	r3, [r7, #16]
 4002 0100 D31A     		subs	r3, r2, r3
 4003 0102 9BB2     		uxth	r3, r3
 4004 0104 18B2     		sxth	r0, r3
 4005 0106 BA88     		ldrh	r2, [r7, #4]
 4006 0108 FB89     		ldrh	r3, [r7, #14]
 4007 010a 1344     		add	r3, r3, r2
 4008 010c 9BB2     		uxth	r3, r3
 4009 010e 1BB2     		sxth	r3, r3
 4010 0110 3A88     		ldrh	r2, [r7]
 4011 0112 1946     		mov	r1, r3
 4012 0114 FFF7FEFF 		bl	gfx_drawPixel
ARM GAS  C:\Users\mariu\AppData\Local\Temp\ccmFU017.s 			page 82


 560:ssd1306.c     ****         gfx_drawPixel( x0 + x, y0 - y, color );
 4013              		.loc 1 560 0
 4014 0118 FA88     		ldrh	r2, [r7, #6]
 4015 011a 3B8A     		ldrh	r3, [r7, #16]
 4016 011c 1344     		add	r3, r3, r2
 4017 011e 9BB2     		uxth	r3, r3
 4018 0120 18B2     		sxth	r0, r3
 4019 0122 BA88     		ldrh	r2, [r7, #4]
 4020 0124 FB89     		ldrh	r3, [r7, #14]
 4021 0126 D31A     		subs	r3, r2, r3
 4022 0128 9BB2     		uxth	r3, r3
 4023 012a 1BB2     		sxth	r3, r3
 4024 012c 3A88     		ldrh	r2, [r7]
 4025 012e 1946     		mov	r1, r3
 4026 0130 FFF7FEFF 		bl	gfx_drawPixel
 561:ssd1306.c     ****         gfx_drawPixel( x0 - x, y0 - y, color );
 4027              		.loc 1 561 0
 4028 0134 FA88     		ldrh	r2, [r7, #6]
 4029 0136 3B8A     		ldrh	r3, [r7, #16]
 4030 0138 D31A     		subs	r3, r2, r3
 4031 013a 9BB2     		uxth	r3, r3
 4032 013c 18B2     		sxth	r0, r3
 4033 013e BA88     		ldrh	r2, [r7, #4]
 4034 0140 FB89     		ldrh	r3, [r7, #14]
 4035 0142 D31A     		subs	r3, r2, r3
 4036 0144 9BB2     		uxth	r3, r3
 4037 0146 1BB2     		sxth	r3, r3
 4038 0148 3A88     		ldrh	r2, [r7]
 4039 014a 1946     		mov	r1, r3
 4040 014c FFF7FEFF 		bl	gfx_drawPixel
 562:ssd1306.c     ****         gfx_drawPixel( x0 + y, y0 + x, color );
 4041              		.loc 1 562 0
 4042 0150 FA88     		ldrh	r2, [r7, #6]
 4043 0152 FB89     		ldrh	r3, [r7, #14]
 4044 0154 1344     		add	r3, r3, r2
 4045 0156 9BB2     		uxth	r3, r3
 4046 0158 18B2     		sxth	r0, r3
 4047 015a BA88     		ldrh	r2, [r7, #4]
 4048 015c 3B8A     		ldrh	r3, [r7, #16]
 4049 015e 1344     		add	r3, r3, r2
 4050 0160 9BB2     		uxth	r3, r3
 4051 0162 1BB2     		sxth	r3, r3
 4052 0164 3A88     		ldrh	r2, [r7]
 4053 0166 1946     		mov	r1, r3
 4054 0168 FFF7FEFF 		bl	gfx_drawPixel
 563:ssd1306.c     ****         gfx_drawPixel( x0 - y, y0 + x, color );
 4055              		.loc 1 563 0
 4056 016c FA88     		ldrh	r2, [r7, #6]
 4057 016e FB89     		ldrh	r3, [r7, #14]
 4058 0170 D31A     		subs	r3, r2, r3
 4059 0172 9BB2     		uxth	r3, r3
 4060 0174 18B2     		sxth	r0, r3
 4061 0176 BA88     		ldrh	r2, [r7, #4]
 4062 0178 3B8A     		ldrh	r3, [r7, #16]
 4063 017a 1344     		add	r3, r3, r2
 4064 017c 9BB2     		uxth	r3, r3
 4065 017e 1BB2     		sxth	r3, r3
ARM GAS  C:\Users\mariu\AppData\Local\Temp\ccmFU017.s 			page 83


 4066 0180 3A88     		ldrh	r2, [r7]
 4067 0182 1946     		mov	r1, r3
 4068 0184 FFF7FEFF 		bl	gfx_drawPixel
 564:ssd1306.c     ****         gfx_drawPixel( x0 + y, y0 - x, color );
 4069              		.loc 1 564 0
 4070 0188 FA88     		ldrh	r2, [r7, #6]
 4071 018a FB89     		ldrh	r3, [r7, #14]
 4072 018c 1344     		add	r3, r3, r2
 4073 018e 9BB2     		uxth	r3, r3
 4074 0190 18B2     		sxth	r0, r3
 4075 0192 BA88     		ldrh	r2, [r7, #4]
 4076 0194 3B8A     		ldrh	r3, [r7, #16]
 4077 0196 D31A     		subs	r3, r2, r3
 4078 0198 9BB2     		uxth	r3, r3
 4079 019a 1BB2     		sxth	r3, r3
 4080 019c 3A88     		ldrh	r2, [r7]
 4081 019e 1946     		mov	r1, r3
 4082 01a0 FFF7FEFF 		bl	gfx_drawPixel
 565:ssd1306.c     ****         gfx_drawPixel( x0 - y, y0 - x, color );
 4083              		.loc 1 565 0
 4084 01a4 FA88     		ldrh	r2, [r7, #6]
 4085 01a6 FB89     		ldrh	r3, [r7, #14]
 4086 01a8 D31A     		subs	r3, r2, r3
 4087 01aa 9BB2     		uxth	r3, r3
 4088 01ac 18B2     		sxth	r0, r3
 4089 01ae BA88     		ldrh	r2, [r7, #4]
 4090 01b0 3B8A     		ldrh	r3, [r7, #16]
 4091 01b2 D31A     		subs	r3, r2, r3
 4092 01b4 9BB2     		uxth	r3, r3
 4093 01b6 1BB2     		sxth	r3, r3
 4094 01b8 3A88     		ldrh	r2, [r7]
 4095 01ba 1946     		mov	r1, r3
 4096 01bc FFF7FEFF 		bl	gfx_drawPixel
 4097              	.L169:
 549:ssd1306.c     ****         if( f >= 0 ){
 4098              		.loc 1 549 0
 4099 01c0 B7F91020 		ldrsh	r2, [r7, #16]
 4100 01c4 B7F90E30 		ldrsh	r3, [r7, #14]
 4101 01c8 9A42     		cmp	r2, r3
 4102 01ca FFF667AF 		blt	.L171
 566:ssd1306.c     ****     }
 567:ssd1306.c     **** }
 4103              		.loc 1 567 0
 4104 01ce 00BF     		nop
 4105 01d0 1C37     		adds	r7, r7, #28
 4106              		.cfi_def_cfa_offset 12
 4107 01d2 BD46     		mov	sp, r7
 4108              		.cfi_def_cfa_register 13
 4109              		@ sp needed
 4110 01d4 90BD     		pop	{r4, r7, pc}
 4111              		.cfi_endproc
 4112              	.LFE89:
 4113              		.size	gfx_drawCircle, .-gfx_drawCircle
 4114 01d6 00BF     		.section	.text.gfx_drawTriangle,"ax",%progbits
 4115              		.align	2
 4116              		.global	gfx_drawTriangle
 4117              		.thumb
ARM GAS  C:\Users\mariu\AppData\Local\Temp\ccmFU017.s 			page 84


 4118              		.thumb_func
 4119              		.type	gfx_drawTriangle, %function
 4120              	gfx_drawTriangle:
 4121              	.LFB90:
 568:ssd1306.c     **** 
 569:ssd1306.c     **** void gfx_drawTriangle( int16_t x0, int16_t y0,int16_t x1, int16_t y1, int16_t x2, int16_t y2, uint1
 4122              		.loc 1 569 0
 4123              		.cfi_startproc
 4124              		@ args = 12, pretend = 0, frame = 8
 4125              		@ frame_needed = 1, uses_anonymous_args = 0
 4126 0000 90B5     		push	{r4, r7, lr}
 4127              		.cfi_def_cfa_offset 12
 4128              		.cfi_offset 4, -12
 4129              		.cfi_offset 7, -8
 4130              		.cfi_offset 14, -4
 4131 0002 85B0     		sub	sp, sp, #20
 4132              		.cfi_def_cfa_offset 32
 4133 0004 02AF     		add	r7, sp, #8
 4134              		.cfi_def_cfa 7, 24
 4135 0006 0446     		mov	r4, r0
 4136 0008 0846     		mov	r0, r1
 4137 000a 1146     		mov	r1, r2
 4138 000c 1A46     		mov	r2, r3
 4139 000e 2346     		mov	r3, r4	@ movhi
 4140 0010 FB80     		strh	r3, [r7, #6]	@ movhi
 4141 0012 0346     		mov	r3, r0	@ movhi
 4142 0014 BB80     		strh	r3, [r7, #4]	@ movhi
 4143 0016 0B46     		mov	r3, r1	@ movhi
 4144 0018 7B80     		strh	r3, [r7, #2]	@ movhi
 4145 001a 1346     		mov	r3, r2	@ movhi
 4146 001c 3B80     		strh	r3, [r7]	@ movhi
 570:ssd1306.c     ****     
 571:ssd1306.c     ****     gfx_drawLine( x0, y0, x1, y1, color );
 4147              		.loc 1 571 0
 4148 001e B7F90040 		ldrsh	r4, [r7]
 4149 0022 B7F90220 		ldrsh	r2, [r7, #2]
 4150 0026 B7F90410 		ldrsh	r1, [r7, #4]
 4151 002a B7F90600 		ldrsh	r0, [r7, #6]
 4152 002e 3B8C     		ldrh	r3, [r7, #32]
 4153 0030 0093     		str	r3, [sp]
 4154 0032 2346     		mov	r3, r4
 4155 0034 FFF7FEFF 		bl	gfx_drawLine
 572:ssd1306.c     ****     gfx_drawLine( x1, y1, x2, y2, color );
 4156              		.loc 1 572 0
 4157 0038 B7F91C40 		ldrsh	r4, [r7, #28]
 4158 003c B7F91820 		ldrsh	r2, [r7, #24]
 4159 0040 B7F90010 		ldrsh	r1, [r7]
 4160 0044 B7F90200 		ldrsh	r0, [r7, #2]
 4161 0048 3B8C     		ldrh	r3, [r7, #32]
 4162 004a 0093     		str	r3, [sp]
 4163 004c 2346     		mov	r3, r4
 4164 004e FFF7FEFF 		bl	gfx_drawLine
 573:ssd1306.c     ****     gfx_drawLine( x2, y2, x0, y0, color );
 4165              		.loc 1 573 0
 4166 0052 B7F90440 		ldrsh	r4, [r7, #4]
 4167 0056 B7F90620 		ldrsh	r2, [r7, #6]
 4168 005a B7F91C10 		ldrsh	r1, [r7, #28]
ARM GAS  C:\Users\mariu\AppData\Local\Temp\ccmFU017.s 			page 85


 4169 005e B7F91800 		ldrsh	r0, [r7, #24]
 4170 0062 3B8C     		ldrh	r3, [r7, #32]
 4171 0064 0093     		str	r3, [sp]
 4172 0066 2346     		mov	r3, r4
 4173 0068 FFF7FEFF 		bl	gfx_drawLine
 574:ssd1306.c     **** }
 4174              		.loc 1 574 0
 4175 006c 00BF     		nop
 4176 006e 0C37     		adds	r7, r7, #12
 4177              		.cfi_def_cfa_offset 12
 4178 0070 BD46     		mov	sp, r7
 4179              		.cfi_def_cfa_register 13
 4180              		@ sp needed
 4181 0072 90BD     		pop	{r4, r7, pc}
 4182              		.cfi_endproc
 4183              	.LFE90:
 4184              		.size	gfx_drawTriangle, .-gfx_drawTriangle
 4185              		.section	.text.gfx_drawChar,"ax",%progbits
 4186              		.align	2
 4187              		.global	gfx_drawChar
 4188              		.thumb
 4189              		.thumb_func
 4190              		.type	gfx_drawChar, %function
 4191              	gfx_drawChar:
 4192              	.LFB91:
 575:ssd1306.c     **** 
 576:ssd1306.c     **** 
 577:ssd1306.c     **** // Draw a character
 578:ssd1306.c     **** void gfx_drawChar( int16_t x, int16_t y, unsigned char c,uint16_t color, uint16_t bg, uint8_t size)
 4193              		.loc 1 578 0
 4194              		.cfi_startproc
 4195              		@ args = 8, pretend = 0, frame = 16
 4196              		@ frame_needed = 1, uses_anonymous_args = 0
 4197 0000 90B5     		push	{r4, r7, lr}
 4198              		.cfi_def_cfa_offset 12
 4199              		.cfi_offset 4, -12
 4200              		.cfi_offset 7, -8
 4201              		.cfi_offset 14, -4
 4202 0002 87B0     		sub	sp, sp, #28
 4203              		.cfi_def_cfa_offset 40
 4204 0004 02AF     		add	r7, sp, #8
 4205              		.cfi_def_cfa 7, 32
 4206 0006 0446     		mov	r4, r0
 4207 0008 0846     		mov	r0, r1
 4208 000a 1146     		mov	r1, r2
 4209 000c 1A46     		mov	r2, r3
 4210 000e 2346     		mov	r3, r4	@ movhi
 4211 0010 FB80     		strh	r3, [r7, #6]	@ movhi
 4212 0012 0346     		mov	r3, r0	@ movhi
 4213 0014 BB80     		strh	r3, [r7, #4]	@ movhi
 4214 0016 0B46     		mov	r3, r1
 4215 0018 FB70     		strb	r3, [r7, #3]
 4216 001a 1346     		mov	r3, r2	@ movhi
 4217 001c 3B80     		strh	r3, [r7]	@ movhi
 579:ssd1306.c     ****     if( (x >= _width) || // Clip right
 4218              		.loc 1 579 0
 4219 001e 714B     		ldr	r3, .L189
ARM GAS  C:\Users\mariu\AppData\Local\Temp\ccmFU017.s 			page 86


 4220 0020 B3F90030 		ldrsh	r3, [r3]
 4221 0024 B7F90620 		ldrsh	r2, [r7, #6]
 4222 0028 9A42     		cmp	r2, r3
 4223 002a 80F2D680 		bge	.L188
 580:ssd1306.c     ****         (y >= _height) || // Clip bottom
 4224              		.loc 1 580 0 discriminator 1
 4225 002e 6E4B     		ldr	r3, .L189+4
 4226 0030 B3F90030 		ldrsh	r3, [r3]
 579:ssd1306.c     ****     if( (x >= _width) || // Clip right
 4227              		.loc 1 579 0 discriminator 1
 4228 0034 B7F90420 		ldrsh	r2, [r7, #4]
 4229 0038 9A42     		cmp	r2, r3
 4230 003a 80F2CE80 		bge	.L188
 581:ssd1306.c     ****         ((x + 6 * size - 1) < 0) || // Clip left
 4231              		.loc 1 581 0
 4232 003e B7F90610 		ldrsh	r1, [r7, #6]
 4233 0042 97F82420 		ldrb	r2, [r7, #36]	@ zero_extendqisi2
 4234 0046 1346     		mov	r3, r2
 4235 0048 5B00     		lsls	r3, r3, #1
 4236 004a 1344     		add	r3, r3, r2
 4237 004c 5B00     		lsls	r3, r3, #1
 4238 004e 0B44     		add	r3, r3, r1
 4239 0050 013B     		subs	r3, r3, #1
 580:ssd1306.c     ****         (y >= _height) || // Clip bottom
 4240              		.loc 1 580 0
 4241 0052 002B     		cmp	r3, #0
 4242 0054 C0F2C180 		blt	.L188
 582:ssd1306.c     ****         ((y + 8 * size - 1) < 0)) // Clip top
 4243              		.loc 1 582 0
 4244 0058 B7F90420 		ldrsh	r2, [r7, #4]
 4245 005c 97F82430 		ldrb	r3, [r7, #36]	@ zero_extendqisi2
 4246 0060 DB00     		lsls	r3, r3, #3
 4247 0062 1344     		add	r3, r3, r2
 4248 0064 013B     		subs	r3, r3, #1
 581:ssd1306.c     ****         ((x + 6 * size - 1) < 0) || // Clip left
 4249              		.loc 1 581 0
 4250 0066 002B     		cmp	r3, #0
 4251 0068 C0F2B780 		blt	.L188
 583:ssd1306.c     ****         return;
 584:ssd1306.c     **** 
 585:ssd1306.c     ****     int8_t i = 0;
 4252              		.loc 1 585 0
 4253 006c 0023     		movs	r3, #0
 4254 006e FB73     		strb	r3, [r7, #15]
 586:ssd1306.c     ****     for( i = 0 ; i < 6 ; i++ ){
 4255              		.loc 1 586 0
 4256 0070 0023     		movs	r3, #0
 4257 0072 FB73     		strb	r3, [r7, #15]
 4258 0074 ABE0     		b	.L177
 4259              	.L187:
 4260              	.LBB8:
 587:ssd1306.c     ****         uint8_t line;
 588:ssd1306.c     ****         if( i == 5 )
 4261              		.loc 1 588 0
 4262 0076 97F90F30 		ldrsb	r3, [r7, #15]
 4263 007a 052B     		cmp	r3, #5
 4264 007c 02D1     		bne	.L178
ARM GAS  C:\Users\mariu\AppData\Local\Temp\ccmFU017.s 			page 87


 589:ssd1306.c     ****             line = 0x0;
 4265              		.loc 1 589 0
 4266 007e 0023     		movs	r3, #0
 4267 0080 BB73     		strb	r3, [r7, #14]
 4268 0082 09E0     		b	.L179
 4269              	.L178:
 590:ssd1306.c     ****         else
 591:ssd1306.c     ****            line = font[(c*5)+i];
 4270              		.loc 1 591 0
 4271 0084 FA78     		ldrb	r2, [r7, #3]	@ zero_extendqisi2
 4272 0086 1346     		mov	r3, r2
 4273 0088 9B00     		lsls	r3, r3, #2
 4274 008a 1A44     		add	r2, r2, r3
 4275 008c 97F90F30 		ldrsb	r3, [r7, #15]
 4276 0090 1344     		add	r3, r3, r2
 4277 0092 564A     		ldr	r2, .L189+8
 4278 0094 D35C     		ldrb	r3, [r2, r3]
 4279 0096 BB73     		strb	r3, [r7, #14]
 4280              	.L179:
 592:ssd1306.c     ****         int8_t j = 0;
 4281              		.loc 1 592 0
 4282 0098 0023     		movs	r3, #0
 4283 009a 7B73     		strb	r3, [r7, #13]
 593:ssd1306.c     ****         for( j = 0; j < 8 ; j++ ){
 4284              		.loc 1 593 0
 4285 009c 0023     		movs	r3, #0
 4286 009e 7B73     		strb	r3, [r7, #13]
 4287 00a0 8AE0     		b	.L180
 4288              	.L186:
 594:ssd1306.c     ****             if( line & 0x1 ){
 4289              		.loc 1 594 0
 4290 00a2 BB7B     		ldrb	r3, [r7, #14]	@ zero_extendqisi2
 4291 00a4 03F00103 		and	r3, r3, #1
 4292 00a8 002B     		cmp	r3, #0
 4293 00aa 3CD0     		beq	.L181
 595:ssd1306.c     ****                 if( size == 1 ) // default size
 4294              		.loc 1 595 0
 4295 00ac 97F82430 		ldrb	r3, [r7, #36]	@ zero_extendqisi2
 4296 00b0 012B     		cmp	r3, #1
 4297 00b2 12D1     		bne	.L182
 596:ssd1306.c     ****                     gfx_drawPixel( x+i, y+j, color );
 4298              		.loc 1 596 0
 4299 00b4 97F90F30 		ldrsb	r3, [r7, #15]
 4300 00b8 9AB2     		uxth	r2, r3
 4301 00ba FB88     		ldrh	r3, [r7, #6]
 4302 00bc 1344     		add	r3, r3, r2
 4303 00be 9BB2     		uxth	r3, r3
 4304 00c0 18B2     		sxth	r0, r3
 4305 00c2 97F90D30 		ldrsb	r3, [r7, #13]
 4306 00c6 9AB2     		uxth	r2, r3
 4307 00c8 BB88     		ldrh	r3, [r7, #4]
 4308 00ca 1344     		add	r3, r3, r2
 4309 00cc 9BB2     		uxth	r3, r3
 4310 00ce 1BB2     		sxth	r3, r3
 4311 00d0 3A88     		ldrh	r2, [r7]
 4312 00d2 1946     		mov	r1, r3
 4313 00d4 FFF7FEFF 		bl	gfx_drawPixel
ARM GAS  C:\Users\mariu\AppData\Local\Temp\ccmFU017.s 			page 88


 4314 00d8 65E0     		b	.L184
 4315              	.L182:
 597:ssd1306.c     ****                 else { // big size
 598:ssd1306.c     ****                     gfx_fillRect( x+(i*size), y+(j*size), size, size, color );
 4316              		.loc 1 598 0
 4317 00da 97F90F30 		ldrsb	r3, [r7, #15]
 4318 00de 9BB2     		uxth	r3, r3
 4319 00e0 97F82420 		ldrb	r2, [r7, #36]	@ zero_extendqisi2
 4320 00e4 92B2     		uxth	r2, r2
 4321 00e6 02FB03F3 		mul	r3, r2, r3
 4322 00ea 9AB2     		uxth	r2, r3
 4323 00ec FB88     		ldrh	r3, [r7, #6]
 4324 00ee 1344     		add	r3, r3, r2
 4325 00f0 9BB2     		uxth	r3, r3
 4326 00f2 18B2     		sxth	r0, r3
 4327 00f4 97F90D30 		ldrsb	r3, [r7, #13]
 4328 00f8 9BB2     		uxth	r3, r3
 4329 00fa 97F82420 		ldrb	r2, [r7, #36]	@ zero_extendqisi2
 4330 00fe 92B2     		uxth	r2, r2
 4331 0100 02FB03F3 		mul	r3, r2, r3
 4332 0104 9AB2     		uxth	r2, r3
 4333 0106 BB88     		ldrh	r3, [r7, #4]
 4334 0108 1344     		add	r3, r3, r2
 4335 010a 9BB2     		uxth	r3, r3
 4336 010c 19B2     		sxth	r1, r3
 4337 010e 97F82430 		ldrb	r3, [r7, #36]	@ zero_extendqisi2
 4338 0112 1AB2     		sxth	r2, r3
 4339 0114 97F82430 		ldrb	r3, [r7, #36]	@ zero_extendqisi2
 4340 0118 1CB2     		sxth	r4, r3
 4341 011a 3B88     		ldrh	r3, [r7]
 4342 011c 0093     		str	r3, [sp]
 4343 011e 2346     		mov	r3, r4
 4344 0120 FFF7FEFF 		bl	gfx_fillRect
 4345 0124 3FE0     		b	.L184
 4346              	.L181:
 599:ssd1306.c     ****                 }
 600:ssd1306.c     ****             } else if( bg != color ){
 4347              		.loc 1 600 0
 4348 0126 3A8C     		ldrh	r2, [r7, #32]
 4349 0128 3B88     		ldrh	r3, [r7]
 4350 012a 9A42     		cmp	r2, r3
 4351 012c 3BD0     		beq	.L184
 601:ssd1306.c     ****                 if( size == 1 ) // default size
 4352              		.loc 1 601 0
 4353 012e 97F82430 		ldrb	r3, [r7, #36]	@ zero_extendqisi2
 4354 0132 012B     		cmp	r3, #1
 4355 0134 12D1     		bne	.L185
 602:ssd1306.c     ****                     gfx_drawPixel( x+i, y+j, bg );
 4356              		.loc 1 602 0
 4357 0136 97F90F30 		ldrsb	r3, [r7, #15]
 4358 013a 9AB2     		uxth	r2, r3
 4359 013c FB88     		ldrh	r3, [r7, #6]
 4360 013e 1344     		add	r3, r3, r2
 4361 0140 9BB2     		uxth	r3, r3
 4362 0142 18B2     		sxth	r0, r3
 4363 0144 97F90D30 		ldrsb	r3, [r7, #13]
 4364 0148 9AB2     		uxth	r2, r3
ARM GAS  C:\Users\mariu\AppData\Local\Temp\ccmFU017.s 			page 89


 4365 014a BB88     		ldrh	r3, [r7, #4]
 4366 014c 1344     		add	r3, r3, r2
 4367 014e 9BB2     		uxth	r3, r3
 4368 0150 1BB2     		sxth	r3, r3
 4369 0152 3A8C     		ldrh	r2, [r7, #32]
 4370 0154 1946     		mov	r1, r3
 4371 0156 FFF7FEFF 		bl	gfx_drawPixel
 4372 015a 24E0     		b	.L184
 4373              	.L185:
 603:ssd1306.c     ****                 else { // big size
 604:ssd1306.c     ****                     gfx_fillRect( x+i*size, y+j*size, size, size, bg );
 4374              		.loc 1 604 0
 4375 015c 97F90F30 		ldrsb	r3, [r7, #15]
 4376 0160 9BB2     		uxth	r3, r3
 4377 0162 97F82420 		ldrb	r2, [r7, #36]	@ zero_extendqisi2
 4378 0166 92B2     		uxth	r2, r2
 4379 0168 02FB03F3 		mul	r3, r2, r3
 4380 016c 9AB2     		uxth	r2, r3
 4381 016e FB88     		ldrh	r3, [r7, #6]
 4382 0170 1344     		add	r3, r3, r2
 4383 0172 9BB2     		uxth	r3, r3
 4384 0174 18B2     		sxth	r0, r3
 4385 0176 97F90D30 		ldrsb	r3, [r7, #13]
 4386 017a 9BB2     		uxth	r3, r3
 4387 017c 97F82420 		ldrb	r2, [r7, #36]	@ zero_extendqisi2
 4388 0180 92B2     		uxth	r2, r2
 4389 0182 02FB03F3 		mul	r3, r2, r3
 4390 0186 9AB2     		uxth	r2, r3
 4391 0188 BB88     		ldrh	r3, [r7, #4]
 4392 018a 1344     		add	r3, r3, r2
 4393 018c 9BB2     		uxth	r3, r3
 4394 018e 19B2     		sxth	r1, r3
 4395 0190 97F82430 		ldrb	r3, [r7, #36]	@ zero_extendqisi2
 4396 0194 1AB2     		sxth	r2, r3
 4397 0196 97F82430 		ldrb	r3, [r7, #36]	@ zero_extendqisi2
 4398 019a 1CB2     		sxth	r4, r3
 4399 019c 3B8C     		ldrh	r3, [r7, #32]
 4400 019e 0093     		str	r3, [sp]
 4401 01a0 2346     		mov	r3, r4
 4402 01a2 FFF7FEFF 		bl	gfx_fillRect
 4403              	.L184:
 605:ssd1306.c     ****                 }
 606:ssd1306.c     ****             }
 607:ssd1306.c     ****             line >>= 1;
 4404              		.loc 1 607 0 discriminator 2
 4405 01a6 BB7B     		ldrb	r3, [r7, #14]	@ zero_extendqisi2
 4406 01a8 5B08     		lsrs	r3, r3, #1
 4407 01aa BB73     		strb	r3, [r7, #14]
 593:ssd1306.c     ****             if( line & 0x1 ){
 4408              		.loc 1 593 0 discriminator 2
 4409 01ac 97F90D30 		ldrsb	r3, [r7, #13]
 4410 01b0 DBB2     		uxtb	r3, r3
 4411 01b2 0133     		adds	r3, r3, #1
 4412 01b4 DBB2     		uxtb	r3, r3
 4413 01b6 7B73     		strb	r3, [r7, #13]
 4414              	.L180:
 593:ssd1306.c     ****             if( line & 0x1 ){
ARM GAS  C:\Users\mariu\AppData\Local\Temp\ccmFU017.s 			page 90


 4415              		.loc 1 593 0 is_stmt 0 discriminator 1
 4416 01b8 97F90D30 		ldrsb	r3, [r7, #13]
 4417 01bc 072B     		cmp	r3, #7
 4418 01be 7FF770AF 		ble	.L186
 4419              	.LBE8:
 586:ssd1306.c     ****         uint8_t line;
 4420              		.loc 1 586 0 is_stmt 1 discriminator 2
 4421 01c2 97F90F30 		ldrsb	r3, [r7, #15]
 4422 01c6 DBB2     		uxtb	r3, r3
 4423 01c8 0133     		adds	r3, r3, #1
 4424 01ca DBB2     		uxtb	r3, r3
 4425 01cc FB73     		strb	r3, [r7, #15]
 4426              	.L177:
 586:ssd1306.c     ****         uint8_t line;
 4427              		.loc 1 586 0 is_stmt 0 discriminator 1
 4428 01ce 97F90F30 		ldrsb	r3, [r7, #15]
 4429 01d2 052B     		cmp	r3, #5
 4430 01d4 7FF74FAF 		ble	.L187
 4431 01d8 00E0     		b	.L173
 4432              	.L188:
 583:ssd1306.c     **** 
 4433              		.loc 1 583 0 is_stmt 1
 4434 01da 00BF     		nop
 4435              	.L173:
 608:ssd1306.c     ****         }
 609:ssd1306.c     ****     }
 610:ssd1306.c     **** }
 4436              		.loc 1 610 0
 4437 01dc 1437     		adds	r7, r7, #20
 4438              		.cfi_def_cfa_offset 12
 4439 01de BD46     		mov	sp, r7
 4440              		.cfi_def_cfa_register 13
 4441              		@ sp needed
 4442 01e0 90BD     		pop	{r4, r7, pc}
 4443              	.L190:
 4444 01e2 00BF     		.align	2
 4445              	.L189:
 4446 01e4 02000000 		.word	_width
 4447 01e8 04000000 		.word	_height
 4448 01ec 00000000 		.word	font
 4449              		.cfi_endproc
 4450              	.LFE91:
 4451              		.size	gfx_drawChar, .-gfx_drawChar
 4452              		.section	.text.gfx_write,"ax",%progbits
 4453              		.align	2
 4454              		.global	gfx_write
 4455              		.thumb
 4456              		.thumb_func
 4457              		.type	gfx_write, %function
 4458              	gfx_write:
 4459              	.LFB92:
 611:ssd1306.c     **** 
 612:ssd1306.c     **** void gfx_write( uint8_t ch ){
 4460              		.loc 1 612 0
 4461              		.cfi_startproc
 4462              		@ args = 0, pretend = 0, frame = 8
 4463              		@ frame_needed = 1, uses_anonymous_args = 0
ARM GAS  C:\Users\mariu\AppData\Local\Temp\ccmFU017.s 			page 91


 4464 0000 B0B5     		push	{r4, r5, r7, lr}
 4465              		.cfi_def_cfa_offset 16
 4466              		.cfi_offset 4, -16
 4467              		.cfi_offset 5, -12
 4468              		.cfi_offset 7, -8
 4469              		.cfi_offset 14, -4
 4470 0002 84B0     		sub	sp, sp, #16
 4471              		.cfi_def_cfa_offset 32
 4472 0004 02AF     		add	r7, sp, #8
 4473              		.cfi_def_cfa 7, 24
 4474 0006 0346     		mov	r3, r0
 4475 0008 FB71     		strb	r3, [r7, #7]
 613:ssd1306.c     ****     if( ch == '\n' ){
 4476              		.loc 1 613 0
 4477 000a FB79     		ldrb	r3, [r7, #7]	@ zero_extendqisi2
 4478 000c 0A2B     		cmp	r3, #10
 4479 000e 11D1     		bne	.L192
 614:ssd1306.c     ****         cursor_y += textsize*8;
 4480              		.loc 1 614 0
 4481 0010 314B     		ldr	r3, .L195
 4482 0012 1B78     		ldrb	r3, [r3]	@ zero_extendqisi2
 4483 0014 9BB2     		uxth	r3, r3
 4484 0016 DB00     		lsls	r3, r3, #3
 4485 0018 9AB2     		uxth	r2, r3
 4486 001a 304B     		ldr	r3, .L195+4
 4487 001c B3F90030 		ldrsh	r3, [r3]
 4488 0020 9BB2     		uxth	r3, r3
 4489 0022 1344     		add	r3, r3, r2
 4490 0024 9BB2     		uxth	r3, r3
 4491 0026 1AB2     		sxth	r2, r3
 4492 0028 2C4B     		ldr	r3, .L195+4
 4493 002a 1A80     		strh	r2, [r3]	@ movhi
 615:ssd1306.c     ****         cursor_x = 0;
 4494              		.loc 1 615 0
 4495 002c 2C4B     		ldr	r3, .L195+8
 4496 002e 0022     		movs	r2, #0
 4497 0030 1A80     		strh	r2, [r3]	@ movhi
 616:ssd1306.c     ****     }else if( ch == '\r' ){
 617:ssd1306.c     ****         // skip em
 618:ssd1306.c     ****     }else{
 619:ssd1306.c     ****         gfx_drawChar(cursor_x, cursor_y, ch, textcolor, textbgcolor, textsize);
 620:ssd1306.c     ****         cursor_x += textsize*6;
 621:ssd1306.c     ****         if( wrap && (cursor_x > (_width - textsize*6)) ){
 622:ssd1306.c     ****             cursor_y += textsize*8;
 623:ssd1306.c     ****             cursor_x = 0;
 624:ssd1306.c     ****         }
 625:ssd1306.c     ****     }
 626:ssd1306.c     **** }
 4498              		.loc 1 626 0
 4499 0032 4DE0     		b	.L194
 4500              	.L192:
 616:ssd1306.c     ****     }else if( ch == '\r' ){
 4501              		.loc 1 616 0
 4502 0034 FB79     		ldrb	r3, [r7, #7]	@ zero_extendqisi2
 4503 0036 0D2B     		cmp	r3, #13
 4504 0038 4AD0     		beq	.L194
 619:ssd1306.c     ****         cursor_x += textsize*6;
ARM GAS  C:\Users\mariu\AppData\Local\Temp\ccmFU017.s 			page 92


 4505              		.loc 1 619 0
 4506 003a 294B     		ldr	r3, .L195+8
 4507 003c B3F90000 		ldrsh	r0, [r3]
 4508 0040 264B     		ldr	r3, .L195+4
 4509 0042 B3F90010 		ldrsh	r1, [r3]
 4510 0046 274B     		ldr	r3, .L195+12
 4511 0048 1D88     		ldrh	r5, [r3]
 4512 004a 274B     		ldr	r3, .L195+16
 4513 004c 1B88     		ldrh	r3, [r3]
 4514 004e 224A     		ldr	r2, .L195
 4515 0050 1278     		ldrb	r2, [r2]	@ zero_extendqisi2
 4516 0052 FC79     		ldrb	r4, [r7, #7]	@ zero_extendqisi2
 4517 0054 0192     		str	r2, [sp, #4]
 4518 0056 0093     		str	r3, [sp]
 4519 0058 2B46     		mov	r3, r5
 4520 005a 2246     		mov	r2, r4
 4521 005c FFF7FEFF 		bl	gfx_drawChar
 620:ssd1306.c     ****         if( wrap && (cursor_x > (_width - textsize*6)) ){
 4522              		.loc 1 620 0
 4523 0060 1D4B     		ldr	r3, .L195
 4524 0062 1B78     		ldrb	r3, [r3]	@ zero_extendqisi2
 4525 0064 9BB2     		uxth	r3, r3
 4526 0066 1A46     		mov	r2, r3	@ movhi
 4527 0068 5200     		lsls	r2, r2, #1
 4528 006a 1344     		add	r3, r3, r2
 4529 006c 5B00     		lsls	r3, r3, #1
 4530 006e 9AB2     		uxth	r2, r3
 4531 0070 1B4B     		ldr	r3, .L195+8
 4532 0072 B3F90030 		ldrsh	r3, [r3]
 4533 0076 9BB2     		uxth	r3, r3
 4534 0078 1344     		add	r3, r3, r2
 4535 007a 9BB2     		uxth	r3, r3
 4536 007c 1AB2     		sxth	r2, r3
 4537 007e 184B     		ldr	r3, .L195+8
 4538 0080 1A80     		strh	r2, [r3]	@ movhi
 621:ssd1306.c     ****             cursor_y += textsize*8;
 4539              		.loc 1 621 0
 4540 0082 1A4B     		ldr	r3, .L195+20
 4541 0084 1B78     		ldrb	r3, [r3]	@ zero_extendqisi2
 4542 0086 002B     		cmp	r3, #0
 4543 0088 22D0     		beq	.L194
 621:ssd1306.c     ****             cursor_y += textsize*8;
 4544              		.loc 1 621 0 is_stmt 0 discriminator 1
 4545 008a 154B     		ldr	r3, .L195+8
 4546 008c B3F90030 		ldrsh	r3, [r3]
 4547 0090 1946     		mov	r1, r3
 4548 0092 174B     		ldr	r3, .L195+24
 4549 0094 B3F90030 		ldrsh	r3, [r3]
 4550 0098 1846     		mov	r0, r3
 4551 009a 0F4B     		ldr	r3, .L195
 4552 009c 1B78     		ldrb	r3, [r3]	@ zero_extendqisi2
 4553 009e 1A46     		mov	r2, r3
 4554 00a0 1346     		mov	r3, r2
 4555 00a2 9200     		lsls	r2, r2, #2
 4556 00a4 9B1A     		subs	r3, r3, r2
 4557 00a6 5B00     		lsls	r3, r3, #1
 4558 00a8 0344     		add	r3, r3, r0
ARM GAS  C:\Users\mariu\AppData\Local\Temp\ccmFU017.s 			page 93


 4559 00aa 9942     		cmp	r1, r3
 4560 00ac 10DD     		ble	.L194
 622:ssd1306.c     ****             cursor_x = 0;
 4561              		.loc 1 622 0 is_stmt 1
 4562 00ae 0A4B     		ldr	r3, .L195
 4563 00b0 1B78     		ldrb	r3, [r3]	@ zero_extendqisi2
 4564 00b2 9BB2     		uxth	r3, r3
 4565 00b4 DB00     		lsls	r3, r3, #3
 4566 00b6 9AB2     		uxth	r2, r3
 4567 00b8 084B     		ldr	r3, .L195+4
 4568 00ba B3F90030 		ldrsh	r3, [r3]
 4569 00be 9BB2     		uxth	r3, r3
 4570 00c0 1344     		add	r3, r3, r2
 4571 00c2 9BB2     		uxth	r3, r3
 4572 00c4 1AB2     		sxth	r2, r3
 4573 00c6 054B     		ldr	r3, .L195+4
 4574 00c8 1A80     		strh	r2, [r3]	@ movhi
 623:ssd1306.c     ****         }
 4575              		.loc 1 623 0
 4576 00ca 054B     		ldr	r3, .L195+8
 4577 00cc 0022     		movs	r2, #0
 4578 00ce 1A80     		strh	r2, [r3]	@ movhi
 4579              	.L194:
 4580              		.loc 1 626 0
 4581 00d0 00BF     		nop
 4582 00d2 0837     		adds	r7, r7, #8
 4583              		.cfi_def_cfa_offset 16
 4584 00d4 BD46     		mov	sp, r7
 4585              		.cfi_def_cfa_register 13
 4586              		@ sp needed
 4587 00d6 B0BD     		pop	{r4, r5, r7, pc}
 4588              	.L196:
 4589              		.align	2
 4590              	.L195:
 4591 00d8 0E000000 		.word	textsize
 4592 00dc 08000000 		.word	cursor_y
 4593 00e0 06000000 		.word	cursor_x
 4594 00e4 0A000000 		.word	textcolor
 4595 00e8 0C000000 		.word	textbgcolor
 4596 00ec 00000000 		.word	wrap
 4597 00f0 02000000 		.word	_width
 4598              		.cfi_endproc
 4599              	.LFE92:
 4600              		.size	gfx_write, .-gfx_write
 4601              		.section	.text.gfx_print,"ax",%progbits
 4602              		.align	2
 4603              		.global	gfx_print
 4604              		.thumb
 4605              		.thumb_func
 4606              		.type	gfx_print, %function
 4607              	gfx_print:
 4608              	.LFB93:
 627:ssd1306.c     **** 
 628:ssd1306.c     **** void gfx_print( const char* s ){
 4609              		.loc 1 628 0
 4610              		.cfi_startproc
 4611              		@ args = 0, pretend = 0, frame = 16
ARM GAS  C:\Users\mariu\AppData\Local\Temp\ccmFU017.s 			page 94


 4612              		@ frame_needed = 1, uses_anonymous_args = 0
 4613 0000 80B5     		push	{r7, lr}
 4614              		.cfi_def_cfa_offset 8
 4615              		.cfi_offset 7, -8
 4616              		.cfi_offset 14, -4
 4617 0002 84B0     		sub	sp, sp, #16
 4618              		.cfi_def_cfa_offset 24
 4619 0004 00AF     		add	r7, sp, #0
 4620              		.cfi_def_cfa_register 7
 4621 0006 7860     		str	r0, [r7, #4]
 629:ssd1306.c     ****     
 630:ssd1306.c     ****     unsigned int len = strlen( s );
 4622              		.loc 1 630 0
 4623 0008 7868     		ldr	r0, [r7, #4]
 4624 000a FFF7FEFF 		bl	strlen
 4625 000e B860     		str	r0, [r7, #8]
 631:ssd1306.c     ****     unsigned int i = 0; 
 4626              		.loc 1 631 0
 4627 0010 0023     		movs	r3, #0
 4628 0012 FB60     		str	r3, [r7, #12]
 632:ssd1306.c     ****     for( i = 0 ; i < len ; i++ ){
 4629              		.loc 1 632 0
 4630 0014 0023     		movs	r3, #0
 4631 0016 FB60     		str	r3, [r7, #12]
 4632 0018 09E0     		b	.L198
 4633              	.L199:
 633:ssd1306.c     ****         gfx_write( s[i] );
 4634              		.loc 1 633 0 discriminator 3
 4635 001a 7A68     		ldr	r2, [r7, #4]
 4636 001c FB68     		ldr	r3, [r7, #12]
 4637 001e 1344     		add	r3, r3, r2
 4638 0020 1B78     		ldrb	r3, [r3]	@ zero_extendqisi2
 4639 0022 1846     		mov	r0, r3
 4640 0024 FFF7FEFF 		bl	gfx_write
 632:ssd1306.c     ****     for( i = 0 ; i < len ; i++ ){
 4641              		.loc 1 632 0 discriminator 3
 4642 0028 FB68     		ldr	r3, [r7, #12]
 4643 002a 0133     		adds	r3, r3, #1
 4644 002c FB60     		str	r3, [r7, #12]
 4645              	.L198:
 632:ssd1306.c     ****     for( i = 0 ; i < len ; i++ ){
 4646              		.loc 1 632 0 is_stmt 0 discriminator 1
 4647 002e FA68     		ldr	r2, [r7, #12]
 4648 0030 BB68     		ldr	r3, [r7, #8]
 4649 0032 9A42     		cmp	r2, r3
 4650 0034 F1D3     		bcc	.L199
 634:ssd1306.c     ****     }
 635:ssd1306.c     **** }
 4651              		.loc 1 635 0 is_stmt 1
 4652 0036 00BF     		nop
 4653 0038 1037     		adds	r7, r7, #16
 4654              		.cfi_def_cfa_offset 8
 4655 003a BD46     		mov	sp, r7
 4656              		.cfi_def_cfa_register 13
 4657              		@ sp needed
 4658 003c 80BD     		pop	{r7, pc}
 4659              		.cfi_endproc
ARM GAS  C:\Users\mariu\AppData\Local\Temp\ccmFU017.s 			page 95


 4660              	.LFE93:
 4661              		.size	gfx_print, .-gfx_print
 4662 003e 00BF     		.section	.text.gfx_println,"ax",%progbits
 4663              		.align	2
 4664              		.global	gfx_println
 4665              		.thumb
 4666              		.thumb_func
 4667              		.type	gfx_println, %function
 4668              	gfx_println:
 4669              	.LFB94:
 636:ssd1306.c     **** 
 637:ssd1306.c     **** void gfx_println( const char* s ){ 
 4670              		.loc 1 637 0
 4671              		.cfi_startproc
 4672              		@ args = 0, pretend = 0, frame = 8
 4673              		@ frame_needed = 1, uses_anonymous_args = 0
 4674 0000 80B5     		push	{r7, lr}
 4675              		.cfi_def_cfa_offset 8
 4676              		.cfi_offset 7, -8
 4677              		.cfi_offset 14, -4
 4678 0002 82B0     		sub	sp, sp, #8
 4679              		.cfi_def_cfa_offset 16
 4680 0004 00AF     		add	r7, sp, #0
 4681              		.cfi_def_cfa_register 7
 4682 0006 7860     		str	r0, [r7, #4]
 638:ssd1306.c     ****     gfx_print( s ); 
 4683              		.loc 1 638 0
 4684 0008 7868     		ldr	r0, [r7, #4]
 4685 000a FFF7FEFF 		bl	gfx_print
 639:ssd1306.c     ****     gfx_write( '\n' );
 4686              		.loc 1 639 0
 4687 000e 0A20     		movs	r0, #10
 4688 0010 FFF7FEFF 		bl	gfx_write
 640:ssd1306.c     **** }
 4689              		.loc 1 640 0
 4690 0014 00BF     		nop
 4691 0016 0837     		adds	r7, r7, #8
 4692              		.cfi_def_cfa_offset 8
 4693 0018 BD46     		mov	sp, r7
 4694              		.cfi_def_cfa_register 13
 4695              		@ sp needed
 4696 001a 80BD     		pop	{r7, pc}
 4697              		.cfi_endproc
 4698              	.LFE94:
 4699              		.size	gfx_println, .-gfx_println
 4700              		.text
 4701              	.Letext0:
 4702              		.file 2 "c:\\program files (x86)\\cypress\\psoc creator\\4.4\\psoc creator\\import\\gnu\\arm\\5.4.
 4703              		.file 3 "c:\\program files (x86)\\cypress\\psoc creator\\4.4\\psoc creator\\import\\gnu\\arm\\5.4.
 4704              		.file 4 "Generated_Source\\PSoC5/cytypes.h"
 4705              		.file 5 "ssd1306.h"
 4706              		.file 6 "font.h"
 4707              		.file 7 "Generated_Source\\PSoC5/core_cm3.h"
 4708              		.section	.debug_info,"",%progbits
 4709              	.Ldebug_info0:
 4710 0000 880C0000 		.4byte	0xc88
 4711 0004 0400     		.2byte	0x4
ARM GAS  C:\Users\mariu\AppData\Local\Temp\ccmFU017.s 			page 96


 4712 0006 00000000 		.4byte	.Ldebug_abbrev0
 4713 000a 04       		.byte	0x4
 4714 000b 01       		.uleb128 0x1
 4715 000c 49000000 		.4byte	.LASF116
 4716 0010 0C       		.byte	0xc
 4717 0011 F1030000 		.4byte	.LASF117
 4718 0015 DE040000 		.4byte	.LASF118
 4719 0019 00000000 		.4byte	.Ldebug_ranges0+0
 4720 001d 00000000 		.4byte	0
 4721 0021 00000000 		.4byte	.Ldebug_line0
 4722 0025 02       		.uleb128 0x2
 4723 0026 C8030000 		.4byte	.LASF0
 4724 002a 02       		.byte	0x2
 4725 002b 1B       		.byte	0x1b
 4726 002c 30000000 		.4byte	0x30
 4727 0030 03       		.uleb128 0x3
 4728 0031 01       		.byte	0x1
 4729 0032 06       		.byte	0x6
 4730 0033 A9050000 		.4byte	.LASF2
 4731 0037 02       		.uleb128 0x2
 4732 0038 6B040000 		.4byte	.LASF1
 4733 003c 02       		.byte	0x2
 4734 003d 1D       		.byte	0x1d
 4735 003e 42000000 		.4byte	0x42
 4736 0042 03       		.uleb128 0x3
 4737 0043 01       		.byte	0x1
 4738 0044 08       		.byte	0x8
 4739 0045 4C050000 		.4byte	.LASF3
 4740 0049 02       		.uleb128 0x2
 4741 004a 61030000 		.4byte	.LASF4
 4742 004e 02       		.byte	0x2
 4743 004f 29       		.byte	0x29
 4744 0050 54000000 		.4byte	0x54
 4745 0054 03       		.uleb128 0x3
 4746 0055 02       		.byte	0x2
 4747 0056 05       		.byte	0x5
 4748 0057 08040000 		.4byte	.LASF5
 4749 005b 02       		.uleb128 0x2
 4750 005c 0C020000 		.4byte	.LASF6
 4751 0060 02       		.byte	0x2
 4752 0061 2B       		.byte	0x2b
 4753 0062 66000000 		.4byte	0x66
 4754 0066 03       		.uleb128 0x3
 4755 0067 02       		.byte	0x2
 4756 0068 07       		.byte	0x7
 4757 0069 B5050000 		.4byte	.LASF7
 4758 006d 02       		.uleb128 0x2
 4759 006e 3F000000 		.4byte	.LASF8
 4760 0072 02       		.byte	0x2
 4761 0073 3F       		.byte	0x3f
 4762 0074 78000000 		.4byte	0x78
 4763 0078 03       		.uleb128 0x3
 4764 0079 04       		.byte	0x4
 4765 007a 05       		.byte	0x5
 4766 007b 1A040000 		.4byte	.LASF9
 4767 007f 03       		.uleb128 0x3
 4768 0080 04       		.byte	0x4
ARM GAS  C:\Users\mariu\AppData\Local\Temp\ccmFU017.s 			page 97


 4769 0081 07       		.byte	0x7
 4770 0082 A5040000 		.4byte	.LASF10
 4771 0086 03       		.uleb128 0x3
 4772 0087 08       		.byte	0x8
 4773 0088 05       		.byte	0x5
 4774 0089 27030000 		.4byte	.LASF11
 4775 008d 03       		.uleb128 0x3
 4776 008e 08       		.byte	0x8
 4777 008f 07       		.byte	0x7
 4778 0090 F5010000 		.4byte	.LASF12
 4779 0094 04       		.uleb128 0x4
 4780 0095 04       		.byte	0x4
 4781 0096 05       		.byte	0x5
 4782 0097 696E7400 		.ascii	"int\000"
 4783 009b 03       		.uleb128 0x3
 4784 009c 04       		.byte	0x4
 4785 009d 07       		.byte	0x7
 4786 009e 24000000 		.4byte	.LASF13
 4787 00a2 02       		.uleb128 0x2
 4788 00a3 AD010000 		.4byte	.LASF14
 4789 00a7 03       		.byte	0x3
 4790 00a8 14       		.byte	0x14
 4791 00a9 25000000 		.4byte	0x25
 4792 00ad 02       		.uleb128 0x2
 4793 00ae FE020000 		.4byte	.LASF15
 4794 00b2 03       		.byte	0x3
 4795 00b3 18       		.byte	0x18
 4796 00b4 37000000 		.4byte	0x37
 4797 00b8 02       		.uleb128 0x2
 4798 00b9 ED010000 		.4byte	.LASF16
 4799 00bd 03       		.byte	0x3
 4800 00be 20       		.byte	0x20
 4801 00bf 49000000 		.4byte	0x49
 4802 00c3 02       		.uleb128 0x2
 4803 00c4 E8030000 		.4byte	.LASF17
 4804 00c8 03       		.byte	0x3
 4805 00c9 24       		.byte	0x24
 4806 00ca 5B000000 		.4byte	0x5b
 4807 00ce 02       		.uleb128 0x2
 4808 00cf D1040000 		.4byte	.LASF18
 4809 00d3 03       		.byte	0x3
 4810 00d4 2C       		.byte	0x2c
 4811 00d5 6D000000 		.4byte	0x6d
 4812 00d9 05       		.uleb128 0x5
 4813 00da DB050000 		.4byte	.LASF19
 4814 00de 04       		.byte	0x4
 4815 00df 9201     		.2byte	0x192
 4816 00e1 42000000 		.4byte	0x42
 4817 00e5 05       		.uleb128 0x5
 4818 00e6 89030000 		.4byte	.LASF20
 4819 00ea 04       		.byte	0x4
 4820 00eb 9401     		.2byte	0x194
 4821 00ed 7F000000 		.4byte	0x7f
 4822 00f1 03       		.uleb128 0x3
 4823 00f2 04       		.byte	0x4
 4824 00f3 04       		.byte	0x4
 4825 00f4 B4010000 		.4byte	.LASF21
ARM GAS  C:\Users\mariu\AppData\Local\Temp\ccmFU017.s 			page 98


 4826 00f8 03       		.uleb128 0x3
 4827 00f9 08       		.byte	0x8
 4828 00fa 04       		.byte	0x4
 4829 00fb E1050000 		.4byte	.LASF22
 4830 00ff 03       		.uleb128 0x3
 4831 0100 01       		.byte	0x1
 4832 0101 08       		.byte	0x8
 4833 0102 F2020000 		.4byte	.LASF23
 4834 0106 03       		.uleb128 0x3
 4835 0107 08       		.byte	0x8
 4836 0108 04       		.byte	0x4
 4837 0109 D1030000 		.4byte	.LASF24
 4838 010d 03       		.uleb128 0x3
 4839 010e 04       		.byte	0x4
 4840 010f 07       		.byte	0x7
 4841 0110 95040000 		.4byte	.LASF25
 4842 0114 06       		.uleb128 0x6
 4843 0115 04       		.byte	0x4
 4844 0116 1A010000 		.4byte	0x11a
 4845 011a 07       		.uleb128 0x7
 4846 011b FF000000 		.4byte	0xff
 4847 011f 08       		.uleb128 0x8
 4848 0120 01       		.byte	0x1
 4849 0121 42000000 		.4byte	0x42
 4850 0125 05       		.byte	0x5
 4851 0126 19       		.byte	0x19
 4852 0127 38010000 		.4byte	0x138
 4853 012b 09       		.uleb128 0x9
 4854 012c 3F050000 		.4byte	.LASF26
 4855 0130 26       		.byte	0x26
 4856 0131 09       		.uleb128 0x9
 4857 0132 B7040000 		.4byte	.LASF27
 4858 0136 2A       		.byte	0x2a
 4859 0137 00       		.byte	0
 4860 0138 02       		.uleb128 0x2
 4861 0139 07010000 		.4byte	.LASF28
 4862 013d 05       		.byte	0x5
 4863 013e 1C       		.byte	0x1c
 4864 013f 1F010000 		.4byte	0x11f
 4865 0143 08       		.uleb128 0x8
 4866 0144 01       		.byte	0x1
 4867 0145 42000000 		.4byte	0x42
 4868 0149 05       		.byte	0x5
 4869 014a 1E       		.byte	0x1e
 4870 014b 80010000 		.4byte	0x180
 4871 014f 09       		.uleb128 0x9
 4872 0150 2E010000 		.4byte	.LASF29
 4873 0154 03       		.byte	0x3
 4874 0155 09       		.uleb128 0x9
 4875 0156 3D010000 		.4byte	.LASF30
 4876 015a 02       		.byte	0x2
 4877 015b 09       		.uleb128 0x9
 4878 015c 4C010000 		.4byte	.LASF31
 4879 0160 01       		.byte	0x1
 4880 0161 09       		.uleb128 0x9
 4881 0162 5B010000 		.4byte	.LASF32
 4882 0166 06       		.byte	0x6
ARM GAS  C:\Users\mariu\AppData\Local\Temp\ccmFU017.s 			page 99


 4883 0167 09       		.uleb128 0x9
 4884 0168 6A010000 		.4byte	.LASF33
 4885 016c 00       		.byte	0
 4886 016d 09       		.uleb128 0x9
 4887 016e 79010000 		.4byte	.LASF34
 4888 0172 05       		.byte	0x5
 4889 0173 09       		.uleb128 0x9
 4890 0174 88010000 		.4byte	.LASF35
 4891 0178 04       		.byte	0x4
 4892 0179 09       		.uleb128 0x9
 4893 017a 97010000 		.4byte	.LASF36
 4894 017e 07       		.byte	0x7
 4895 017f 00       		.byte	0
 4896 0180 02       		.uleb128 0x2
 4897 0181 3E030000 		.4byte	.LASF37
 4898 0185 05       		.byte	0x5
 4899 0186 27       		.byte	0x27
 4900 0187 43010000 		.4byte	0x143
 4901 018b 08       		.uleb128 0x8
 4902 018c 01       		.byte	0x1
 4903 018d 42000000 		.4byte	0x42
 4904 0191 05       		.byte	0x5
 4905 0192 29       		.byte	0x29
 4906 0193 C8010000 		.4byte	0x1c8
 4907 0197 09       		.uleb128 0x9
 4908 0198 57020000 		.4byte	.LASF38
 4909 019c 00       		.byte	0
 4910 019d 09       		.uleb128 0x9
 4911 019e 65020000 		.4byte	.LASF39
 4912 01a2 01       		.byte	0x1
 4913 01a3 09       		.uleb128 0x9
 4914 01a4 73020000 		.4byte	.LASF40
 4915 01a8 02       		.byte	0x2
 4916 01a9 09       		.uleb128 0x9
 4917 01aa 81020000 		.4byte	.LASF41
 4918 01ae 03       		.byte	0x3
 4919 01af 09       		.uleb128 0x9
 4920 01b0 8F020000 		.4byte	.LASF42
 4921 01b4 04       		.byte	0x4
 4922 01b5 09       		.uleb128 0x9
 4923 01b6 9D020000 		.4byte	.LASF43
 4924 01ba 05       		.byte	0x5
 4925 01bb 09       		.uleb128 0x9
 4926 01bc AB020000 		.4byte	.LASF44
 4927 01c0 06       		.byte	0x6
 4928 01c1 09       		.uleb128 0x9
 4929 01c2 B9020000 		.4byte	.LASF45
 4930 01c6 07       		.byte	0x7
 4931 01c7 00       		.byte	0
 4932 01c8 02       		.uleb128 0x2
 4933 01c9 4B030000 		.4byte	.LASF46
 4934 01cd 05       		.byte	0x5
 4935 01ce 32       		.byte	0x32
 4936 01cf 8B010000 		.4byte	0x18b
 4937 01d3 0A       		.uleb128 0xa
 4938 01d4 21010000 		.4byte	.LASF52
 4939 01d8 01       		.byte	0x1
ARM GAS  C:\Users\mariu\AppData\Local\Temp\ccmFU017.s 			page 100


 4940 01d9 74       		.byte	0x74
 4941 01da 00000000 		.4byte	.LFB63
 4942 01de 50000000 		.4byte	.LFE63-.LFB63
 4943 01e2 01       		.uleb128 0x1
 4944 01e3 9C       		.byte	0x9c
 4945 01e4 05020000 		.4byte	0x205
 4946 01e8 0B       		.uleb128 0xb
 4947 01e9 D7000000 		.4byte	.LASF47
 4948 01ed 01       		.byte	0x1
 4949 01ee 74       		.byte	0x74
 4950 01ef D9000000 		.4byte	0xd9
 4951 01f3 02       		.uleb128 0x2
 4952 01f4 91       		.byte	0x91
 4953 01f5 4F       		.sleb128 -49
 4954 01f6 0C       		.uleb128 0xc
 4955 01f7 9E040000 		.4byte	.LASF49
 4956 01fb 01       		.byte	0x1
 4957 01fc 79       		.byte	0x79
 4958 01fd 05020000 		.4byte	0x205
 4959 0201 02       		.uleb128 0x2
 4960 0202 91       		.byte	0x91
 4961 0203 54       		.sleb128 -44
 4962 0204 00       		.byte	0
 4963 0205 0D       		.uleb128 0xd
 4964 0206 D9000000 		.4byte	0xd9
 4965 020a 15020000 		.4byte	0x215
 4966 020e 0E       		.uleb128 0xe
 4967 020f 0D010000 		.4byte	0x10d
 4968 0213 19       		.byte	0x19
 4969 0214 00       		.byte	0
 4970 0215 0F       		.uleb128 0xf
 4971 0216 90030000 		.4byte	.LASF119
 4972 021a 01       		.byte	0x1
 4973 021b 9E       		.byte	0x9e
 4974 021c E5000000 		.4byte	0xe5
 4975 0220 00000000 		.4byte	.LFB64
 4976 0224 54000000 		.4byte	.LFE64-.LFB64
 4977 0228 01       		.uleb128 0x1
 4978 0229 9C       		.byte	0x9c
 4979 022a 6F020000 		.4byte	0x26f
 4980 022e 10       		.uleb128 0x10
 4981 022f 62756600 		.ascii	"buf\000"
 4982 0233 01       		.byte	0x1
 4983 0234 9E       		.byte	0x9e
 4984 0235 6F020000 		.4byte	0x26f
 4985 0239 02       		.uleb128 0x2
 4986 023a 91       		.byte	0x91
 4987 023b 6C       		.sleb128 -20
 4988 023c 0B       		.uleb128 0xb
 4989 023d 73030000 		.4byte	.LASF48
 4990 0241 01       		.byte	0x1
 4991 0242 9E       		.byte	0x9e
 4992 0243 C3000000 		.4byte	0xc3
 4993 0247 02       		.uleb128 0x2
 4994 0248 91       		.byte	0x91
 4995 0249 6A       		.sleb128 -22
 4996 024a 0C       		.uleb128 0xc
ARM GAS  C:\Users\mariu\AppData\Local\Temp\ccmFU017.s 			page 101


 4997 024b 06030000 		.4byte	.LASF50
 4998 024f 01       		.byte	0x1
 4999 0250 A0       		.byte	0xa0
 5000 0251 E5000000 		.4byte	0xe5
 5001 0255 02       		.uleb128 0x2
 5002 0256 91       		.byte	0x91
 5003 0257 74       		.sleb128 -12
 5004 0258 11       		.uleb128 0x11
 5005 0259 1C000000 		.4byte	.LBB2
 5006 025d 26000000 		.4byte	.LBE2-.LBB2
 5007 0261 12       		.uleb128 0x12
 5008 0262 6900     		.ascii	"i\000"
 5009 0264 01       		.byte	0x1
 5010 0265 A3       		.byte	0xa3
 5011 0266 94000000 		.4byte	0x94
 5012 026a 02       		.uleb128 0x2
 5013 026b 91       		.byte	0x91
 5014 026c 70       		.sleb128 -16
 5015 026d 00       		.byte	0
 5016 026e 00       		.byte	0
 5017 026f 06       		.uleb128 0x6
 5018 0270 04       		.byte	0x4
 5019 0271 D9000000 		.4byte	0xd9
 5020 0275 13       		.uleb128 0x13
 5021 0276 46020000 		.4byte	.LASF58
 5022 027a 01       		.byte	0x1
 5023 027b AC       		.byte	0xac
 5024 027c 00000000 		.4byte	.LFB65
 5025 0280 48010000 		.4byte	.LFE65-.LFB65
 5026 0284 01       		.uleb128 0x1
 5027 0285 9C       		.byte	0x9c
 5028 0286 B1020000 		.4byte	0x2b1
 5029 028a 10       		.uleb128 0x10
 5030 028b 7800     		.ascii	"x\000"
 5031 028d 01       		.byte	0x1
 5032 028e AC       		.byte	0xac
 5033 028f B8000000 		.4byte	0xb8
 5034 0293 02       		.uleb128 0x2
 5035 0294 91       		.byte	0x91
 5036 0295 76       		.sleb128 -10
 5037 0296 10       		.uleb128 0x10
 5038 0297 7900     		.ascii	"y\000"
 5039 0299 01       		.byte	0x1
 5040 029a AC       		.byte	0xac
 5041 029b B8000000 		.4byte	0xb8
 5042 029f 02       		.uleb128 0x2
 5043 02a0 91       		.byte	0x91
 5044 02a1 74       		.sleb128 -12
 5045 02a2 0B       		.uleb128 0xb
 5046 02a3 55040000 		.4byte	.LASF51
 5047 02a7 01       		.byte	0x1
 5048 02a8 AC       		.byte	0xac
 5049 02a9 C3000000 		.4byte	0xc3
 5050 02ad 02       		.uleb128 0x2
 5051 02ae 91       		.byte	0x91
 5052 02af 72       		.sleb128 -14
 5053 02b0 00       		.byte	0
ARM GAS  C:\Users\mariu\AppData\Local\Temp\ccmFU017.s 			page 102


 5054 02b1 14       		.uleb128 0x14
 5055 02b2 C3040000 		.4byte	.LASF120
 5056 02b6 01       		.byte	0x1
 5057 02b7 BF       		.byte	0xbf
 5058 02b8 00000000 		.4byte	.LFB66
 5059 02bc 2C000000 		.4byte	.LFE66-.LFB66
 5060 02c0 01       		.uleb128 0x1
 5061 02c1 9C       		.byte	0x9c
 5062 02c2 0A       		.uleb128 0xa
 5063 02c3 8C050000 		.4byte	.LASF53
 5064 02c7 01       		.byte	0x1
 5065 02c8 C6       		.byte	0xc6
 5066 02c9 00000000 		.4byte	.LFB67
 5067 02cd 2A000000 		.4byte	.LFE67-.LFB67
 5068 02d1 01       		.uleb128 0x1
 5069 02d2 9C       		.byte	0x9c
 5070 02d3 F4020000 		.4byte	0x2f4
 5071 02d7 0B       		.uleb128 0xb
 5072 02d8 35030000 		.4byte	.LASF54
 5073 02dc 01       		.byte	0x1
 5074 02dd C6       		.byte	0xc6
 5075 02de AD000000 		.4byte	0xad
 5076 02e2 02       		.uleb128 0x2
 5077 02e3 91       		.byte	0x91
 5078 02e4 6F       		.sleb128 -17
 5079 02e5 0C       		.uleb128 0xc
 5080 02e6 9E040000 		.4byte	.LASF49
 5081 02ea 01       		.byte	0x1
 5082 02eb C8       		.byte	0xc8
 5083 02ec F4020000 		.4byte	0x2f4
 5084 02f0 02       		.uleb128 0x2
 5085 02f1 91       		.byte	0x91
 5086 02f2 74       		.sleb128 -12
 5087 02f3 00       		.byte	0
 5088 02f4 0D       		.uleb128 0xd
 5089 02f5 D9000000 		.4byte	0xd9
 5090 02f9 04030000 		.4byte	0x304
 5091 02fd 0E       		.uleb128 0xe
 5092 02fe 0D010000 		.4byte	0x10d
 5093 0302 02       		.byte	0x2
 5094 0303 00       		.byte	0
 5095 0304 0A       		.uleb128 0xa
 5096 0305 46040000 		.4byte	.LASF55
 5097 0309 01       		.byte	0x1
 5098 030a D2       		.byte	0xd2
 5099 030b 00000000 		.4byte	.LFB68
 5100 030f 34000000 		.4byte	.LFE68-.LFB68
 5101 0313 01       		.uleb128 0x1
 5102 0314 9C       		.byte	0x9c
 5103 0315 36030000 		.4byte	0x336
 5104 0319 0B       		.uleb128 0xb
 5105 031a F7020000 		.4byte	.LASF56
 5106 031e 01       		.byte	0x1
 5107 031f D2       		.byte	0xd2
 5108 0320 AD000000 		.4byte	0xad
 5109 0324 02       		.uleb128 0x2
 5110 0325 91       		.byte	0x91
ARM GAS  C:\Users\mariu\AppData\Local\Temp\ccmFU017.s 			page 103


 5111 0326 6F       		.sleb128 -17
 5112 0327 0C       		.uleb128 0xc
 5113 0328 9E040000 		.4byte	.LASF49
 5114 032c 01       		.byte	0x1
 5115 032d D4       		.byte	0xd4
 5116 032e 36030000 		.4byte	0x336
 5117 0332 02       		.uleb128 0x2
 5118 0333 91       		.byte	0x91
 5119 0334 74       		.sleb128 -12
 5120 0335 00       		.byte	0
 5121 0336 0D       		.uleb128 0xd
 5122 0337 D9000000 		.4byte	0xd9
 5123 033b 46030000 		.4byte	0x346
 5124 033f 0E       		.uleb128 0xe
 5125 0340 0D010000 		.4byte	0x10d
 5126 0344 01       		.byte	0x1
 5127 0345 00       		.byte	0
 5128 0346 0A       		.uleb128 0xa
 5129 0347 E3020000 		.4byte	.LASF57
 5130 034b 01       		.byte	0x1
 5131 034c DD       		.byte	0xdd
 5132 034d 00000000 		.4byte	.LFB69
 5133 0351 3C000000 		.4byte	.LFE69-.LFB69
 5134 0355 01       		.uleb128 0x1
 5135 0356 9C       		.byte	0x9c
 5136 0357 6A030000 		.4byte	0x36a
 5137 035b 0C       		.uleb128 0xc
 5138 035c 9E040000 		.4byte	.LASF49
 5139 0360 01       		.byte	0x1
 5140 0361 DF       		.byte	0xdf
 5141 0362 6A030000 		.4byte	0x36a
 5142 0366 02       		.uleb128 0x2
 5143 0367 91       		.byte	0x91
 5144 0368 70       		.sleb128 -16
 5145 0369 00       		.byte	0
 5146 036a 0D       		.uleb128 0xd
 5147 036b D9000000 		.4byte	0xd9
 5148 036f 7A030000 		.4byte	0x37a
 5149 0373 0E       		.uleb128 0xe
 5150 0374 0D010000 		.4byte	0x10d
 5151 0378 06       		.byte	0x6
 5152 0379 00       		.byte	0
 5153 037a 13       		.uleb128 0x13
 5154 037b EF000000 		.4byte	.LASF59
 5155 037f 01       		.byte	0x1
 5156 0380 F0       		.byte	0xf0
 5157 0381 00000000 		.4byte	.LFB70
 5158 0385 4C020000 		.4byte	.LFE70-.LFB70
 5159 0389 01       		.uleb128 0x1
 5160 038a 9C       		.byte	0x9c
 5161 038b 8E040000 		.4byte	0x48e
 5162 038f 10       		.uleb128 0x10
 5163 0390 783100   		.ascii	"x1\000"
 5164 0393 01       		.byte	0x1
 5165 0394 F0       		.byte	0xf0
 5166 0395 B8000000 		.4byte	0xb8
 5167 0399 02       		.uleb128 0x2
ARM GAS  C:\Users\mariu\AppData\Local\Temp\ccmFU017.s 			page 104


 5168 039a 91       		.byte	0x91
 5169 039b 4E       		.sleb128 -50
 5170 039c 10       		.uleb128 0x10
 5171 039d 793100   		.ascii	"y1\000"
 5172 03a0 01       		.byte	0x1
 5173 03a1 F0       		.byte	0xf0
 5174 03a2 B8000000 		.4byte	0xb8
 5175 03a6 02       		.uleb128 0x2
 5176 03a7 91       		.byte	0x91
 5177 03a8 4C       		.sleb128 -52
 5178 03a9 10       		.uleb128 0x10
 5179 03aa 783200   		.ascii	"x2\000"
 5180 03ad 01       		.byte	0x1
 5181 03ae F0       		.byte	0xf0
 5182 03af B8000000 		.4byte	0xb8
 5183 03b3 02       		.uleb128 0x2
 5184 03b4 91       		.byte	0x91
 5185 03b5 4A       		.sleb128 -54
 5186 03b6 10       		.uleb128 0x10
 5187 03b7 793200   		.ascii	"y2\000"
 5188 03ba 01       		.byte	0x1
 5189 03bb F0       		.byte	0xf0
 5190 03bc B8000000 		.4byte	0xb8
 5191 03c0 02       		.uleb128 0x2
 5192 03c1 91       		.byte	0x91
 5193 03c2 48       		.sleb128 -56
 5194 03c3 0B       		.uleb128 0xb
 5195 03c4 55040000 		.4byte	.LASF51
 5196 03c8 01       		.byte	0x1
 5197 03c9 F0       		.byte	0xf0
 5198 03ca C3000000 		.4byte	0xc3
 5199 03ce 02       		.uleb128 0x2
 5200 03cf 91       		.byte	0x91
 5201 03d0 00       		.sleb128 0
 5202 03d1 15       		.uleb128 0x15
 5203 03d2 2C000000 		.4byte	.LBB3
 5204 03d6 70010000 		.4byte	.LBE3-.LBB3
 5205 03da 47040000 		.4byte	0x447
 5206 03de 0C       		.uleb128 0xc
 5207 03df BA010000 		.4byte	.LASF60
 5208 03e3 01       		.byte	0x1
 5209 03e4 F4       		.byte	0xf4
 5210 03e5 8E040000 		.4byte	0x48e
 5211 03e9 02       		.uleb128 0x2
 5212 03ea 91       		.byte	0x91
 5213 03eb 68       		.sleb128 -24
 5214 03ec 0C       		.uleb128 0xc
 5215 03ed 3A050000 		.4byte	.LASF61
 5216 03f1 01       		.byte	0x1
 5217 03f2 F5       		.byte	0xf5
 5218 03f3 8E040000 		.4byte	0x48e
 5219 03f7 02       		.uleb128 0x2
 5220 03f8 91       		.byte	0x91
 5221 03f9 64       		.sleb128 -28
 5222 03fa 12       		.uleb128 0x12
 5223 03fb 70747200 		.ascii	"ptr\000"
 5224 03ff 01       		.byte	0x1
ARM GAS  C:\Users\mariu\AppData\Local\Temp\ccmFU017.s 			page 105


 5225 0400 F6       		.byte	0xf6
 5226 0401 8E040000 		.4byte	0x48e
 5227 0405 02       		.uleb128 0x2
 5228 0406 91       		.byte	0x91
 5229 0407 74       		.sleb128 -12
 5230 0408 11       		.uleb128 0x11
 5231 0409 72000000 		.4byte	.LBB4
 5232 040d 20010000 		.4byte	.LBE4-.LBB4
 5233 0411 0C       		.uleb128 0xc
 5234 0412 A2030000 		.4byte	.LASF62
 5235 0416 01       		.byte	0x1
 5236 0417 FA       		.byte	0xfa
 5237 0418 AD000000 		.4byte	0xad
 5238 041c 02       		.uleb128 0x2
 5239 041d 91       		.byte	0x91
 5240 041e 73       		.sleb128 -13
 5241 041f 11       		.uleb128 0x11
 5242 0420 7A000000 		.4byte	.LBB5
 5243 0424 56000000 		.4byte	.LBE5-.LBB5
 5244 0428 0C       		.uleb128 0xc
 5245 0429 75040000 		.4byte	.LASF63
 5246 042d 01       		.byte	0x1
 5247 042e FD       		.byte	0xfd
 5248 042f AD000000 		.4byte	0xad
 5249 0433 02       		.uleb128 0x2
 5250 0434 91       		.byte	0x91
 5251 0435 63       		.sleb128 -29
 5252 0436 0C       		.uleb128 0xc
 5253 0437 5A050000 		.4byte	.LASF64
 5254 043b 01       		.byte	0x1
 5255 043c FF       		.byte	0xff
 5256 043d AD000000 		.4byte	0xad
 5257 0441 02       		.uleb128 0x2
 5258 0442 91       		.byte	0x91
 5259 0443 72       		.sleb128 -14
 5260 0444 00       		.byte	0
 5261 0445 00       		.byte	0
 5262 0446 00       		.byte	0
 5263 0447 11       		.uleb128 0x11
 5264 0448 9E010000 		.4byte	.LBB6
 5265 044c 9C000000 		.4byte	.LBE6-.LBB6
 5266 0450 16       		.uleb128 0x16
 5267 0451 BA010000 		.4byte	.LASF60
 5268 0455 01       		.byte	0x1
 5269 0456 1B01     		.2byte	0x11b
 5270 0458 8E040000 		.4byte	0x48e
 5271 045c 02       		.uleb128 0x2
 5272 045d 91       		.byte	0x91
 5273 045e 5C       		.sleb128 -36
 5274 045f 16       		.uleb128 0x16
 5275 0460 3A050000 		.4byte	.LASF61
 5276 0464 01       		.byte	0x1
 5277 0465 1C01     		.2byte	0x11c
 5278 0467 8E040000 		.4byte	0x48e
 5279 046b 02       		.uleb128 0x2
 5280 046c 91       		.byte	0x91
 5281 046d 58       		.sleb128 -40
ARM GAS  C:\Users\mariu\AppData\Local\Temp\ccmFU017.s 			page 106


 5282 046e 16       		.uleb128 0x16
 5283 046f 12040000 		.4byte	.LASF65
 5284 0473 01       		.byte	0x1
 5285 0474 1D01     		.2byte	0x11d
 5286 0476 AD000000 		.4byte	0xad
 5287 047a 02       		.uleb128 0x2
 5288 047b 91       		.byte	0x91
 5289 047c 57       		.sleb128 -41
 5290 047d 17       		.uleb128 0x17
 5291 047e 70747200 		.ascii	"ptr\000"
 5292 0482 01       		.byte	0x1
 5293 0483 1F01     		.2byte	0x11f
 5294 0485 8E040000 		.4byte	0x48e
 5295 0489 02       		.uleb128 0x2
 5296 048a 91       		.byte	0x91
 5297 048b 6C       		.sleb128 -20
 5298 048c 00       		.byte	0
 5299 048d 00       		.byte	0
 5300 048e 06       		.uleb128 0x6
 5301 048f 04       		.byte	0x4
 5302 0490 AD000000 		.4byte	0xad
 5303 0494 18       		.uleb128 0x18
 5304 0495 C8050000 		.4byte	.LASF66
 5305 0499 01       		.byte	0x1
 5306 049a 2D01     		.2byte	0x12d
 5307 049c 00000000 		.4byte	.LFB71
 5308 04a0 20000000 		.4byte	.LFE71-.LFB71
 5309 04a4 01       		.uleb128 0x1
 5310 04a5 9C       		.byte	0x9c
 5311 04a6 BA040000 		.4byte	0x4ba
 5312 04aa 16       		.uleb128 0x16
 5313 04ab 9E040000 		.4byte	.LASF49
 5314 04af 01       		.byte	0x1
 5315 04b0 2F01     		.2byte	0x12f
 5316 04b2 36030000 		.4byte	0x336
 5317 04b6 02       		.uleb128 0x2
 5318 04b7 91       		.byte	0x91
 5319 04b8 74       		.sleb128 -12
 5320 04b9 00       		.byte	0
 5321 04ba 18       		.uleb128 0x18
 5322 04bb 71050000 		.4byte	.LASF67
 5323 04bf 01       		.byte	0x1
 5324 04c0 3601     		.2byte	0x136
 5325 04c2 00000000 		.4byte	.LFB72
 5326 04c6 56000000 		.4byte	.LFE72-.LFB72
 5327 04ca 01       		.uleb128 0x1
 5328 04cb 9C       		.byte	0x9c
 5329 04cc 1C050000 		.4byte	0x51c
 5330 04d0 19       		.uleb128 0x19
 5331 04d1 7A040000 		.4byte	.LASF68
 5332 04d5 01       		.byte	0x1
 5333 04d6 3601     		.2byte	0x136
 5334 04d8 C8010000 		.4byte	0x1c8
 5335 04dc 02       		.uleb128 0x2
 5336 04dd 91       		.byte	0x91
 5337 04de 5F       		.sleb128 -33
 5338 04df 1A       		.uleb128 0x1a
ARM GAS  C:\Users\mariu\AppData\Local\Temp\ccmFU017.s 			page 107


 5339 04e0 656E6400 		.ascii	"end\000"
 5340 04e4 01       		.byte	0x1
 5341 04e5 3601     		.2byte	0x136
 5342 04e7 C8010000 		.4byte	0x1c8
 5343 04eb 02       		.uleb128 0x2
 5344 04ec 91       		.byte	0x91
 5345 04ed 5E       		.sleb128 -34
 5346 04ee 1A       		.uleb128 0x1a
 5347 04ef 64697200 		.ascii	"dir\000"
 5348 04f3 01       		.byte	0x1
 5349 04f4 3601     		.2byte	0x136
 5350 04f6 38010000 		.4byte	0x138
 5351 04fa 02       		.uleb128 0x2
 5352 04fb 91       		.byte	0x91
 5353 04fc 5D       		.sleb128 -35
 5354 04fd 19       		.uleb128 0x19
 5355 04fe 1B010000 		.4byte	.LASF69
 5356 0502 01       		.byte	0x1
 5357 0503 3601     		.2byte	0x136
 5358 0505 80010000 		.4byte	0x180
 5359 0509 02       		.uleb128 0x2
 5360 050a 91       		.byte	0x91
 5361 050b 5C       		.sleb128 -36
 5362 050c 16       		.uleb128 0x16
 5363 050d 9E040000 		.4byte	.LASF49
 5364 0511 01       		.byte	0x1
 5365 0512 3801     		.2byte	0x138
 5366 0514 1C050000 		.4byte	0x51c
 5367 0518 02       		.uleb128 0x2
 5368 0519 91       		.byte	0x91
 5369 051a 64       		.sleb128 -28
 5370 051b 00       		.byte	0
 5371 051c 0D       		.uleb128 0xd
 5372 051d D9000000 		.4byte	0xd9
 5373 0521 2C050000 		.4byte	0x52c
 5374 0525 0E       		.uleb128 0xe
 5375 0526 0D010000 		.4byte	0x10d
 5376 052a 08       		.byte	0x8
 5377 052b 00       		.byte	0
 5378 052c 1B       		.uleb128 0x1b
 5379 052d 0E000000 		.4byte	.LASF70
 5380 0531 01       		.byte	0x1
 5381 0532 5501     		.2byte	0x155
 5382 0534 00000000 		.4byte	.LFB73
 5383 0538 98000000 		.4byte	.LFE73-.LFB73
 5384 053c 01       		.uleb128 0x1
 5385 053d 9C       		.byte	0x9c
 5386 053e 61050000 		.4byte	0x561
 5387 0542 19       		.uleb128 0x19
 5388 0543 40020000 		.4byte	.LASF71
 5389 0547 01       		.byte	0x1
 5390 0548 5501     		.2byte	0x155
 5391 054a B8000000 		.4byte	0xb8
 5392 054e 02       		.uleb128 0x2
 5393 054f 91       		.byte	0x91
 5394 0550 76       		.sleb128 -10
 5395 0551 19       		.uleb128 0x19
ARM GAS  C:\Users\mariu\AppData\Local\Temp\ccmFU017.s 			page 108


 5396 0552 B0030000 		.4byte	.LASF72
 5397 0556 01       		.byte	0x1
 5398 0557 5501     		.2byte	0x155
 5399 0559 B8000000 		.4byte	0xb8
 5400 055d 02       		.uleb128 0x2
 5401 055e 91       		.byte	0x91
 5402 055f 74       		.sleb128 -12
 5403 0560 00       		.byte	0
 5404 0561 1C       		.uleb128 0x1c
 5405 0562 57030000 		.4byte	.LASF73
 5406 0566 01       		.byte	0x1
 5407 0567 6301     		.2byte	0x163
 5408 0569 B8000000 		.4byte	0xb8
 5409 056d 00000000 		.4byte	.LFB74
 5410 0571 18000000 		.4byte	.LFE74-.LFB74
 5411 0575 01       		.uleb128 0x1
 5412 0576 9C       		.byte	0x9c
 5413 0577 1C       		.uleb128 0x1c
 5414 0578 DD030000 		.4byte	.LASF74
 5415 057c 01       		.byte	0x1
 5416 057d 6701     		.2byte	0x167
 5417 057f B8000000 		.4byte	0xb8
 5418 0583 00000000 		.4byte	.LFB75
 5419 0587 18000000 		.4byte	.LFE75-.LFB75
 5420 058b 01       		.uleb128 0x1
 5421 058c 9C       		.byte	0x9c
 5422 058d 1C       		.uleb128 0x1c
 5423 058e 17000000 		.4byte	.LASF75
 5424 0592 01       		.byte	0x1
 5425 0593 6B01     		.2byte	0x16b
 5426 0595 AD000000 		.4byte	0xad
 5427 0599 00000000 		.4byte	.LFB76
 5428 059d 14000000 		.4byte	.LFE76-.LFB76
 5429 05a1 01       		.uleb128 0x1
 5430 05a2 9C       		.byte	0x9c
 5431 05a3 1B       		.uleb128 0x1b
 5432 05a4 FE050000 		.4byte	.LASF76
 5433 05a8 01       		.byte	0x1
 5434 05a9 6F01     		.2byte	0x16f
 5435 05ab 00000000 		.4byte	.LFB77
 5436 05af 30000000 		.4byte	.LFE77-.LFB77
 5437 05b3 01       		.uleb128 0x1
 5438 05b4 9C       		.byte	0x9c
 5439 05b5 D4050000 		.4byte	0x5d4
 5440 05b9 1A       		.uleb128 0x1a
 5441 05ba 7800     		.ascii	"x\000"
 5442 05bc 01       		.byte	0x1
 5443 05bd 6F01     		.2byte	0x16f
 5444 05bf B8000000 		.4byte	0xb8
 5445 05c3 02       		.uleb128 0x2
 5446 05c4 91       		.byte	0x91
 5447 05c5 76       		.sleb128 -10
 5448 05c6 1A       		.uleb128 0x1a
 5449 05c7 7900     		.ascii	"y\000"
 5450 05c9 01       		.byte	0x1
 5451 05ca 6F01     		.2byte	0x16f
 5452 05cc B8000000 		.4byte	0xb8
ARM GAS  C:\Users\mariu\AppData\Local\Temp\ccmFU017.s 			page 109


 5453 05d0 02       		.uleb128 0x2
 5454 05d1 91       		.byte	0x91
 5455 05d2 74       		.sleb128 -12
 5456 05d3 00       		.byte	0
 5457 05d4 1B       		.uleb128 0x1b
 5458 05d5 5B040000 		.4byte	.LASF77
 5459 05d9 01       		.byte	0x1
 5460 05da 7401     		.2byte	0x174
 5461 05dc 00000000 		.4byte	.LFB78
 5462 05e0 28000000 		.4byte	.LFE78-.LFB78
 5463 05e4 01       		.uleb128 0x1
 5464 05e5 9C       		.byte	0x9c
 5465 05e6 FA050000 		.4byte	0x5fa
 5466 05ea 19       		.uleb128 0x19
 5467 05eb 73030000 		.4byte	.LASF48
 5468 05ef 01       		.byte	0x1
 5469 05f0 7401     		.2byte	0x174
 5470 05f2 AD000000 		.4byte	0xad
 5471 05f6 02       		.uleb128 0x2
 5472 05f7 91       		.byte	0x91
 5473 05f8 77       		.sleb128 -9
 5474 05f9 00       		.byte	0
 5475 05fa 1B       		.uleb128 0x1b
 5476 05fb B7030000 		.4byte	.LASF78
 5477 05ff 01       		.byte	0x1
 5478 0600 7801     		.2byte	0x178
 5479 0602 00000000 		.4byte	.LFB79
 5480 0606 2C000000 		.4byte	.LFE79-.LFB79
 5481 060a 01       		.uleb128 0x1
 5482 060b 9C       		.byte	0x9c
 5483 060c 20060000 		.4byte	0x620
 5484 0610 19       		.uleb128 0x19
 5485 0611 55040000 		.4byte	.LASF51
 5486 0615 01       		.byte	0x1
 5487 0616 7801     		.2byte	0x178
 5488 0618 C3000000 		.4byte	0xc3
 5489 061c 02       		.uleb128 0x2
 5490 061d 91       		.byte	0x91
 5491 061e 76       		.sleb128 -10
 5492 061f 00       		.byte	0
 5493 0620 1B       		.uleb128 0x1b
 5494 0621 31000000 		.4byte	.LASF79
 5495 0625 01       		.byte	0x1
 5496 0626 7E01     		.2byte	0x17e
 5497 0628 00000000 		.4byte	.LFB80
 5498 062c 20000000 		.4byte	.LFE80-.LFB80
 5499 0630 01       		.uleb128 0x1
 5500 0631 9C       		.byte	0x9c
 5501 0632 46060000 		.4byte	0x646
 5502 0636 19       		.uleb128 0x19
 5503 0637 55040000 		.4byte	.LASF51
 5504 063b 01       		.byte	0x1
 5505 063c 7E01     		.2byte	0x17e
 5506 063e C3000000 		.4byte	0xc3
 5507 0642 02       		.uleb128 0x2
 5508 0643 91       		.byte	0x91
 5509 0644 76       		.sleb128 -10
ARM GAS  C:\Users\mariu\AppData\Local\Temp\ccmFU017.s 			page 110


 5510 0645 00       		.byte	0
 5511 0646 1B       		.uleb128 0x1b
 5512 0647 0C060000 		.4byte	.LASF80
 5513 064b 01       		.byte	0x1
 5514 064c 8201     		.2byte	0x182
 5515 064e 00000000 		.4byte	.LFB81
 5516 0652 20000000 		.4byte	.LFE81-.LFB81
 5517 0656 01       		.uleb128 0x1
 5518 0657 9C       		.byte	0x9c
 5519 0658 6A060000 		.4byte	0x66a
 5520 065c 1A       		.uleb128 0x1a
 5521 065d 7700     		.ascii	"w\000"
 5522 065f 01       		.byte	0x1
 5523 0660 8201     		.2byte	0x182
 5524 0662 D9000000 		.4byte	0xd9
 5525 0666 02       		.uleb128 0x2
 5526 0667 91       		.byte	0x91
 5527 0668 77       		.sleb128 -9
 5528 0669 00       		.byte	0
 5529 066a 1B       		.uleb128 0x1b
 5530 066b DF000000 		.4byte	.LASF81
 5531 066f 01       		.byte	0x1
 5532 0670 8601     		.2byte	0x186
 5533 0672 00000000 		.4byte	.LFB82
 5534 0676 80000000 		.4byte	.LFE82-.LFB82
 5535 067a 01       		.uleb128 0x1
 5536 067b 9C       		.byte	0x9c
 5537 067c 8E060000 		.4byte	0x68e
 5538 0680 1A       		.uleb128 0x1a
 5539 0681 7800     		.ascii	"x\000"
 5540 0683 01       		.byte	0x1
 5541 0684 8601     		.2byte	0x186
 5542 0686 AD000000 		.4byte	0xad
 5543 068a 02       		.uleb128 0x2
 5544 068b 91       		.byte	0x91
 5545 068c 77       		.sleb128 -9
 5546 068d 00       		.byte	0
 5547 068e 1D       		.uleb128 0x1d
 5548 068f 17020000 		.4byte	.LASF82
 5549 0693 01       		.byte	0x1
 5550 0694 9701     		.2byte	0x197
 5551 0696 00000000 		.4byte	.LFB83
 5552 069a C0000000 		.4byte	.LFE83-.LFB83
 5553 069e 01       		.uleb128 0x1
 5554 069f 9C       		.byte	0x9c
 5555 06a0 CF060000 		.4byte	0x6cf
 5556 06a4 1A       		.uleb128 0x1a
 5557 06a5 707800   		.ascii	"px\000"
 5558 06a8 01       		.byte	0x1
 5559 06a9 9701     		.2byte	0x197
 5560 06ab CF060000 		.4byte	0x6cf
 5561 06af 02       		.uleb128 0x2
 5562 06b0 91       		.byte	0x91
 5563 06b1 6C       		.sleb128 -20
 5564 06b2 1A       		.uleb128 0x1a
 5565 06b3 707900   		.ascii	"py\000"
 5566 06b6 01       		.byte	0x1
ARM GAS  C:\Users\mariu\AppData\Local\Temp\ccmFU017.s 			page 111


 5567 06b7 9701     		.2byte	0x197
 5568 06b9 CF060000 		.4byte	0x6cf
 5569 06bd 02       		.uleb128 0x2
 5570 06be 91       		.byte	0x91
 5571 06bf 68       		.sleb128 -24
 5572 06c0 17       		.uleb128 0x17
 5573 06c1 793000   		.ascii	"y0\000"
 5574 06c4 01       		.byte	0x1
 5575 06c5 9901     		.2byte	0x199
 5576 06c7 B8000000 		.4byte	0xb8
 5577 06cb 02       		.uleb128 0x2
 5578 06cc 91       		.byte	0x91
 5579 06cd 76       		.sleb128 -10
 5580 06ce 00       		.byte	0
 5581 06cf 06       		.uleb128 0x6
 5582 06d0 04       		.byte	0x4
 5583 06d1 B8000000 		.4byte	0xb8
 5584 06d5 18       		.uleb128 0x18
 5585 06d6 00000000 		.4byte	.LASF83
 5586 06da 01       		.byte	0x1
 5587 06db AB01     		.2byte	0x1ab
 5588 06dd 00000000 		.4byte	.LFB84
 5589 06e1 6C000000 		.4byte	.LFE84-.LFB84
 5590 06e5 01       		.uleb128 0x1
 5591 06e6 9C       		.byte	0x9c
 5592 06e7 15070000 		.4byte	0x715
 5593 06eb 1A       		.uleb128 0x1a
 5594 06ec 7800     		.ascii	"x\000"
 5595 06ee 01       		.byte	0x1
 5596 06ef AB01     		.2byte	0x1ab
 5597 06f1 B8000000 		.4byte	0xb8
 5598 06f5 02       		.uleb128 0x2
 5599 06f6 91       		.byte	0x91
 5600 06f7 76       		.sleb128 -10
 5601 06f8 1A       		.uleb128 0x1a
 5602 06f9 7900     		.ascii	"y\000"
 5603 06fb 01       		.byte	0x1
 5604 06fc AB01     		.2byte	0x1ab
 5605 06fe B8000000 		.4byte	0xb8
 5606 0702 02       		.uleb128 0x2
 5607 0703 91       		.byte	0x91
 5608 0704 74       		.sleb128 -12
 5609 0705 19       		.uleb128 0x19
 5610 0706 55040000 		.4byte	.LASF51
 5611 070a 01       		.byte	0x1
 5612 070b AB01     		.2byte	0x1ab
 5613 070d C3000000 		.4byte	0xc3
 5614 0711 02       		.uleb128 0x2
 5615 0712 91       		.byte	0x91
 5616 0713 72       		.sleb128 -14
 5617 0714 00       		.byte	0
 5618 0715 1E       		.uleb128 0x1e
 5619 0716 FC000000 		.4byte	.LASF84
 5620 071a 01       		.byte	0x1
 5621 071b B601     		.2byte	0x1b6
 5622 071d 00000000 		.4byte	.LFB85
 5623 0721 AC010000 		.4byte	.LFE85-.LFB85
ARM GAS  C:\Users\mariu\AppData\Local\Temp\ccmFU017.s 			page 112


 5624 0725 01       		.uleb128 0x1
 5625 0726 9C       		.byte	0x9c
 5626 0727 8A070000 		.4byte	0x78a
 5627 072b 1A       		.uleb128 0x1a
 5628 072c 783100   		.ascii	"x1\000"
 5629 072f 01       		.byte	0x1
 5630 0730 B601     		.2byte	0x1b6
 5631 0732 B8000000 		.4byte	0xb8
 5632 0736 02       		.uleb128 0x2
 5633 0737 91       		.byte	0x91
 5634 0738 66       		.sleb128 -26
 5635 0739 1A       		.uleb128 0x1a
 5636 073a 793100   		.ascii	"y1\000"
 5637 073d 01       		.byte	0x1
 5638 073e B601     		.2byte	0x1b6
 5639 0740 B8000000 		.4byte	0xb8
 5640 0744 02       		.uleb128 0x2
 5641 0745 91       		.byte	0x91
 5642 0746 64       		.sleb128 -28
 5643 0747 1A       		.uleb128 0x1a
 5644 0748 783200   		.ascii	"x2\000"
 5645 074b 01       		.byte	0x1
 5646 074c B601     		.2byte	0x1b6
 5647 074e B8000000 		.4byte	0xb8
 5648 0752 02       		.uleb128 0x2
 5649 0753 91       		.byte	0x91
 5650 0754 62       		.sleb128 -30
 5651 0755 1A       		.uleb128 0x1a
 5652 0756 793200   		.ascii	"y2\000"
 5653 0759 01       		.byte	0x1
 5654 075a B601     		.2byte	0x1b6
 5655 075c B8000000 		.4byte	0xb8
 5656 0760 02       		.uleb128 0x2
 5657 0761 91       		.byte	0x91
 5658 0762 60       		.sleb128 -32
 5659 0763 19       		.uleb128 0x19
 5660 0764 55040000 		.4byte	.LASF51
 5661 0768 01       		.byte	0x1
 5662 0769 B601     		.2byte	0x1b6
 5663 076b C3000000 		.4byte	0xc3
 5664 076f 02       		.uleb128 0x2
 5665 0770 91       		.byte	0x91
 5666 0771 00       		.sleb128 0
 5667 0772 11       		.uleb128 0x11
 5668 0773 50010000 		.4byte	.LBB7
 5669 0777 1C000000 		.4byte	.LBE7-.LBB7
 5670 077b 17       		.uleb128 0x17
 5671 077c 7400     		.ascii	"t\000"
 5672 077e 01       		.byte	0x1
 5673 077f D001     		.2byte	0x1d0
 5674 0781 B8000000 		.4byte	0xb8
 5675 0785 02       		.uleb128 0x2
 5676 0786 91       		.byte	0x91
 5677 0787 6E       		.sleb128 -18
 5678 0788 00       		.byte	0
 5679 0789 00       		.byte	0
 5680 078a 18       		.uleb128 0x18
ARM GAS  C:\Users\mariu\AppData\Local\Temp\ccmFU017.s 			page 113


 5681 078b D6020000 		.4byte	.LASF85
 5682 078f 01       		.byte	0x1
 5683 0790 D801     		.2byte	0x1d8
 5684 0792 00000000 		.4byte	.LFB86
 5685 0796 74010000 		.4byte	.LFE86-.LFB86
 5686 079a 01       		.uleb128 0x1
 5687 079b 9C       		.byte	0x9c
 5688 079c 3E080000 		.4byte	0x83e
 5689 07a0 1A       		.uleb128 0x1a
 5690 07a1 783000   		.ascii	"x0\000"
 5691 07a4 01       		.byte	0x1
 5692 07a5 D801     		.2byte	0x1d8
 5693 07a7 B8000000 		.4byte	0xb8
 5694 07ab 02       		.uleb128 0x2
 5695 07ac 91       		.byte	0x91
 5696 07ad 5E       		.sleb128 -34
 5697 07ae 1A       		.uleb128 0x1a
 5698 07af 793000   		.ascii	"y0\000"
 5699 07b2 01       		.byte	0x1
 5700 07b3 D801     		.2byte	0x1d8
 5701 07b5 B8000000 		.4byte	0xb8
 5702 07b9 02       		.uleb128 0x2
 5703 07ba 91       		.byte	0x91
 5704 07bb 5C       		.sleb128 -36
 5705 07bc 1A       		.uleb128 0x1a
 5706 07bd 783100   		.ascii	"x1\000"
 5707 07c0 01       		.byte	0x1
 5708 07c1 D801     		.2byte	0x1d8
 5709 07c3 B8000000 		.4byte	0xb8
 5710 07c7 02       		.uleb128 0x2
 5711 07c8 91       		.byte	0x91
 5712 07c9 5A       		.sleb128 -38
 5713 07ca 1A       		.uleb128 0x1a
 5714 07cb 793100   		.ascii	"y1\000"
 5715 07ce 01       		.byte	0x1
 5716 07cf D801     		.2byte	0x1d8
 5717 07d1 B8000000 		.4byte	0xb8
 5718 07d5 02       		.uleb128 0x2
 5719 07d6 91       		.byte	0x91
 5720 07d7 58       		.sleb128 -40
 5721 07d8 19       		.uleb128 0x19
 5722 07d9 55040000 		.4byte	.LASF51
 5723 07dd 01       		.byte	0x1
 5724 07de D801     		.2byte	0x1d8
 5725 07e0 C3000000 		.4byte	0xc3
 5726 07e4 02       		.uleb128 0x2
 5727 07e5 91       		.byte	0x91
 5728 07e6 00       		.sleb128 0
 5729 07e7 17       		.uleb128 0x17
 5730 07e8 7400     		.ascii	"t\000"
 5731 07ea 01       		.byte	0x1
 5732 07eb E001     		.2byte	0x1e0
 5733 07ed B8000000 		.4byte	0xb8
 5734 07f1 02       		.uleb128 0x2
 5735 07f2 91       		.byte	0x91
 5736 07f3 68       		.sleb128 -24
 5737 07f4 16       		.uleb128 0x16
ARM GAS  C:\Users\mariu\AppData\Local\Temp\ccmFU017.s 			page 114


 5738 07f5 21030000 		.4byte	.LASF86
 5739 07f9 01       		.byte	0x1
 5740 07fa E201     		.2byte	0x1e2
 5741 07fc B8000000 		.4byte	0xb8
 5742 0800 02       		.uleb128 0x2
 5743 0801 91       		.byte	0x91
 5744 0802 6A       		.sleb128 -22
 5745 0803 17       		.uleb128 0x17
 5746 0804 647800   		.ascii	"dx\000"
 5747 0807 01       		.byte	0x1
 5748 0808 EB01     		.2byte	0x1eb
 5749 080a B8000000 		.4byte	0xb8
 5750 080e 02       		.uleb128 0x2
 5751 080f 91       		.byte	0x91
 5752 0810 66       		.sleb128 -26
 5753 0811 17       		.uleb128 0x17
 5754 0812 647900   		.ascii	"dy\000"
 5755 0815 01       		.byte	0x1
 5756 0816 EB01     		.2byte	0x1eb
 5757 0818 B8000000 		.4byte	0xb8
 5758 081c 02       		.uleb128 0x2
 5759 081d 91       		.byte	0x91
 5760 081e 64       		.sleb128 -28
 5761 081f 17       		.uleb128 0x17
 5762 0820 65727200 		.ascii	"err\000"
 5763 0824 01       		.byte	0x1
 5764 0825 EE01     		.2byte	0x1ee
 5765 0827 B8000000 		.4byte	0xb8
 5766 082b 02       		.uleb128 0x2
 5767 082c 91       		.byte	0x91
 5768 082d 6E       		.sleb128 -18
 5769 082e 16       		.uleb128 0x16
 5770 082f 8A040000 		.4byte	.LASF87
 5771 0833 01       		.byte	0x1
 5772 0834 EF01     		.2byte	0x1ef
 5773 0836 B8000000 		.4byte	0xb8
 5774 083a 02       		.uleb128 0x2
 5775 083b 91       		.byte	0x91
 5776 083c 6C       		.sleb128 -20
 5777 083d 00       		.byte	0
 5778 083e 18       		.uleb128 0x18
 5779 083f 0D030000 		.4byte	.LASF88
 5780 0843 01       		.byte	0x1
 5781 0844 0302     		.2byte	0x203
 5782 0846 00000000 		.4byte	.LFB87
 5783 084a E2000000 		.4byte	.LFE87-.LFB87
 5784 084e 01       		.uleb128 0x1
 5785 084f 9C       		.byte	0x9c
 5786 0850 98080000 		.4byte	0x898
 5787 0854 1A       		.uleb128 0x1a
 5788 0855 7800     		.ascii	"x\000"
 5789 0857 01       		.byte	0x1
 5790 0858 0302     		.2byte	0x203
 5791 085a B8000000 		.4byte	0xb8
 5792 085e 02       		.uleb128 0x2
 5793 085f 91       		.byte	0x91
 5794 0860 6E       		.sleb128 -18
ARM GAS  C:\Users\mariu\AppData\Local\Temp\ccmFU017.s 			page 115


 5795 0861 1A       		.uleb128 0x1a
 5796 0862 7900     		.ascii	"y\000"
 5797 0864 01       		.byte	0x1
 5798 0865 0302     		.2byte	0x203
 5799 0867 B8000000 		.4byte	0xb8
 5800 086b 02       		.uleb128 0x2
 5801 086c 91       		.byte	0x91
 5802 086d 6C       		.sleb128 -20
 5803 086e 1A       		.uleb128 0x1a
 5804 086f 7700     		.ascii	"w\000"
 5805 0871 01       		.byte	0x1
 5806 0872 0302     		.2byte	0x203
 5807 0874 B8000000 		.4byte	0xb8
 5808 0878 02       		.uleb128 0x2
 5809 0879 91       		.byte	0x91
 5810 087a 6A       		.sleb128 -22
 5811 087b 1A       		.uleb128 0x1a
 5812 087c 6800     		.ascii	"h\000"
 5813 087e 01       		.byte	0x1
 5814 087f 0302     		.2byte	0x203
 5815 0881 B8000000 		.4byte	0xb8
 5816 0885 02       		.uleb128 0x2
 5817 0886 91       		.byte	0x91
 5818 0887 68       		.sleb128 -24
 5819 0888 19       		.uleb128 0x19
 5820 0889 55040000 		.4byte	.LASF51
 5821 088d 01       		.byte	0x1
 5822 088e 0302     		.2byte	0x203
 5823 0890 C3000000 		.4byte	0xc3
 5824 0894 02       		.uleb128 0x2
 5825 0895 91       		.byte	0x91
 5826 0896 00       		.sleb128 0
 5827 0897 00       		.byte	0
 5828 0898 18       		.uleb128 0x18
 5829 0899 FB030000 		.4byte	.LASF89
 5830 089d 01       		.byte	0x1
 5831 089e 0B02     		.2byte	0x20b
 5832 08a0 00000000 		.4byte	.LFB88
 5833 08a4 C8000000 		.4byte	.LFE88-.LFB88
 5834 08a8 01       		.uleb128 0x1
 5835 08a9 9C       		.byte	0x9c
 5836 08aa FF080000 		.4byte	0x8ff
 5837 08ae 1A       		.uleb128 0x1a
 5838 08af 7800     		.ascii	"x\000"
 5839 08b1 01       		.byte	0x1
 5840 08b2 0B02     		.2byte	0x20b
 5841 08b4 B8000000 		.4byte	0xb8
 5842 08b8 02       		.uleb128 0x2
 5843 08b9 91       		.byte	0x91
 5844 08ba 66       		.sleb128 -26
 5845 08bb 1A       		.uleb128 0x1a
 5846 08bc 7900     		.ascii	"y\000"
 5847 08be 01       		.byte	0x1
 5848 08bf 0B02     		.2byte	0x20b
 5849 08c1 B8000000 		.4byte	0xb8
 5850 08c5 02       		.uleb128 0x2
 5851 08c6 91       		.byte	0x91
ARM GAS  C:\Users\mariu\AppData\Local\Temp\ccmFU017.s 			page 116


 5852 08c7 64       		.sleb128 -28
 5853 08c8 1A       		.uleb128 0x1a
 5854 08c9 7700     		.ascii	"w\000"
 5855 08cb 01       		.byte	0x1
 5856 08cc 0B02     		.2byte	0x20b
 5857 08ce B8000000 		.4byte	0xb8
 5858 08d2 02       		.uleb128 0x2
 5859 08d3 91       		.byte	0x91
 5860 08d4 62       		.sleb128 -30
 5861 08d5 1A       		.uleb128 0x1a
 5862 08d6 6800     		.ascii	"h\000"
 5863 08d8 01       		.byte	0x1
 5864 08d9 0B02     		.2byte	0x20b
 5865 08db B8000000 		.4byte	0xb8
 5866 08df 02       		.uleb128 0x2
 5867 08e0 91       		.byte	0x91
 5868 08e1 60       		.sleb128 -32
 5869 08e2 19       		.uleb128 0x19
 5870 08e3 55040000 		.4byte	.LASF51
 5871 08e7 01       		.byte	0x1
 5872 08e8 0B02     		.2byte	0x20b
 5873 08ea C3000000 		.4byte	0xc3
 5874 08ee 02       		.uleb128 0x2
 5875 08ef 91       		.byte	0x91
 5876 08f0 00       		.sleb128 0
 5877 08f1 17       		.uleb128 0x17
 5878 08f2 6900     		.ascii	"i\000"
 5879 08f4 01       		.byte	0x1
 5880 08f5 0C02     		.2byte	0x20c
 5881 08f7 B8000000 		.4byte	0xb8
 5882 08fb 02       		.uleb128 0x2
 5883 08fc 91       		.byte	0x91
 5884 08fd 6E       		.sleb128 -18
 5885 08fe 00       		.byte	0
 5886 08ff 18       		.uleb128 0x18
 5887 0900 31020000 		.4byte	.LASF90
 5888 0904 01       		.byte	0x1
 5889 0905 1A02     		.2byte	0x21a
 5890 0907 00000000 		.4byte	.LFB89
 5891 090b D6010000 		.4byte	.LFE89-.LFB89
 5892 090f 01       		.uleb128 0x1
 5893 0910 9C       		.byte	0x9c
 5894 0911 93090000 		.4byte	0x993
 5895 0915 1A       		.uleb128 0x1a
 5896 0916 783000   		.ascii	"x0\000"
 5897 0919 01       		.byte	0x1
 5898 091a 1A02     		.2byte	0x21a
 5899 091c B8000000 		.4byte	0xb8
 5900 0920 02       		.uleb128 0x2
 5901 0921 91       		.byte	0x91
 5902 0922 5E       		.sleb128 -34
 5903 0923 1A       		.uleb128 0x1a
 5904 0924 793000   		.ascii	"y0\000"
 5905 0927 01       		.byte	0x1
 5906 0928 1A02     		.2byte	0x21a
 5907 092a B8000000 		.4byte	0xb8
 5908 092e 02       		.uleb128 0x2
ARM GAS  C:\Users\mariu\AppData\Local\Temp\ccmFU017.s 			page 117


 5909 092f 91       		.byte	0x91
 5910 0930 5C       		.sleb128 -36
 5911 0931 1A       		.uleb128 0x1a
 5912 0932 7200     		.ascii	"r\000"
 5913 0934 01       		.byte	0x1
 5914 0935 1A02     		.2byte	0x21a
 5915 0937 B8000000 		.4byte	0xb8
 5916 093b 02       		.uleb128 0x2
 5917 093c 91       		.byte	0x91
 5918 093d 5A       		.sleb128 -38
 5919 093e 19       		.uleb128 0x19
 5920 093f 55040000 		.4byte	.LASF51
 5921 0943 01       		.byte	0x1
 5922 0944 1A02     		.2byte	0x21a
 5923 0946 C3000000 		.4byte	0xc3
 5924 094a 02       		.uleb128 0x2
 5925 094b 91       		.byte	0x91
 5926 094c 58       		.sleb128 -40
 5927 094d 17       		.uleb128 0x17
 5928 094e 6600     		.ascii	"f\000"
 5929 0950 01       		.byte	0x1
 5930 0951 1C02     		.2byte	0x21c
 5931 0953 B8000000 		.4byte	0xb8
 5932 0957 02       		.uleb128 0x2
 5933 0958 91       		.byte	0x91
 5934 0959 6E       		.sleb128 -18
 5935 095a 16       		.uleb128 0x16
 5936 095b 9D050000 		.4byte	.LASF91
 5937 095f 01       		.byte	0x1
 5938 0960 1D02     		.2byte	0x21d
 5939 0962 B8000000 		.4byte	0xb8
 5940 0966 02       		.uleb128 0x2
 5941 0967 91       		.byte	0x91
 5942 0968 6C       		.sleb128 -20
 5943 0969 16       		.uleb128 0x16
 5944 096a A3050000 		.4byte	.LASF92
 5945 096e 01       		.byte	0x1
 5946 096f 1E02     		.2byte	0x21e
 5947 0971 B8000000 		.4byte	0xb8
 5948 0975 02       		.uleb128 0x2
 5949 0976 91       		.byte	0x91
 5950 0977 6A       		.sleb128 -22
 5951 0978 17       		.uleb128 0x17
 5952 0979 7800     		.ascii	"x\000"
 5953 097b 01       		.byte	0x1
 5954 097c 1F02     		.2byte	0x21f
 5955 097e B8000000 		.4byte	0xb8
 5956 0982 02       		.uleb128 0x2
 5957 0983 91       		.byte	0x91
 5958 0984 68       		.sleb128 -24
 5959 0985 17       		.uleb128 0x17
 5960 0986 7900     		.ascii	"y\000"
 5961 0988 01       		.byte	0x1
 5962 0989 2002     		.2byte	0x220
 5963 098b B8000000 		.4byte	0xb8
 5964 098f 02       		.uleb128 0x2
 5965 0990 91       		.byte	0x91
ARM GAS  C:\Users\mariu\AppData\Local\Temp\ccmFU017.s 			page 118


 5966 0991 66       		.sleb128 -26
 5967 0992 00       		.byte	0
 5968 0993 18       		.uleb128 0x18
 5969 0994 D3010000 		.4byte	.LASF93
 5970 0998 01       		.byte	0x1
 5971 0999 3902     		.2byte	0x239
 5972 099b 00000000 		.4byte	.LFB90
 5973 099f 74000000 		.4byte	.LFE90-.LFB90
 5974 09a3 01       		.uleb128 0x1
 5975 09a4 9C       		.byte	0x9c
 5976 09a5 0D0A0000 		.4byte	0xa0d
 5977 09a9 1A       		.uleb128 0x1a
 5978 09aa 783000   		.ascii	"x0\000"
 5979 09ad 01       		.byte	0x1
 5980 09ae 3902     		.2byte	0x239
 5981 09b0 B8000000 		.4byte	0xb8
 5982 09b4 02       		.uleb128 0x2
 5983 09b5 91       		.byte	0x91
 5984 09b6 6E       		.sleb128 -18
 5985 09b7 1A       		.uleb128 0x1a
 5986 09b8 793000   		.ascii	"y0\000"
 5987 09bb 01       		.byte	0x1
 5988 09bc 3902     		.2byte	0x239
 5989 09be B8000000 		.4byte	0xb8
 5990 09c2 02       		.uleb128 0x2
 5991 09c3 91       		.byte	0x91
 5992 09c4 6C       		.sleb128 -20
 5993 09c5 1A       		.uleb128 0x1a
 5994 09c6 783100   		.ascii	"x1\000"
 5995 09c9 01       		.byte	0x1
 5996 09ca 3902     		.2byte	0x239
 5997 09cc B8000000 		.4byte	0xb8
 5998 09d0 02       		.uleb128 0x2
 5999 09d1 91       		.byte	0x91
 6000 09d2 6A       		.sleb128 -22
 6001 09d3 1A       		.uleb128 0x1a
 6002 09d4 793100   		.ascii	"y1\000"
 6003 09d7 01       		.byte	0x1
 6004 09d8 3902     		.2byte	0x239
 6005 09da B8000000 		.4byte	0xb8
 6006 09de 02       		.uleb128 0x2
 6007 09df 91       		.byte	0x91
 6008 09e0 68       		.sleb128 -24
 6009 09e1 1A       		.uleb128 0x1a
 6010 09e2 783200   		.ascii	"x2\000"
 6011 09e5 01       		.byte	0x1
 6012 09e6 3902     		.2byte	0x239
 6013 09e8 B8000000 		.4byte	0xb8
 6014 09ec 02       		.uleb128 0x2
 6015 09ed 91       		.byte	0x91
 6016 09ee 00       		.sleb128 0
 6017 09ef 1A       		.uleb128 0x1a
 6018 09f0 793200   		.ascii	"y2\000"
 6019 09f3 01       		.byte	0x1
 6020 09f4 3902     		.2byte	0x239
 6021 09f6 B8000000 		.4byte	0xb8
 6022 09fa 02       		.uleb128 0x2
ARM GAS  C:\Users\mariu\AppData\Local\Temp\ccmFU017.s 			page 119


 6023 09fb 91       		.byte	0x91
 6024 09fc 04       		.sleb128 4
 6025 09fd 19       		.uleb128 0x19
 6026 09fe 55040000 		.4byte	.LASF51
 6027 0a02 01       		.byte	0x1
 6028 0a03 3902     		.2byte	0x239
 6029 0a05 C3000000 		.4byte	0xc3
 6030 0a09 02       		.uleb128 0x2
 6031 0a0a 91       		.byte	0x91
 6032 0a0b 08       		.sleb128 8
 6033 0a0c 00       		.byte	0
 6034 0a0d 18       		.uleb128 0x18
 6035 0a0e 64050000 		.4byte	.LASF94
 6036 0a12 01       		.byte	0x1
 6037 0a13 4202     		.2byte	0x242
 6038 0a15 00000000 		.4byte	.LFB91
 6039 0a19 F0010000 		.4byte	.LFE91-.LFB91
 6040 0a1d 01       		.uleb128 0x1
 6041 0a1e 9C       		.byte	0x9c
 6042 0a1f AA0A0000 		.4byte	0xaaa
 6043 0a23 1A       		.uleb128 0x1a
 6044 0a24 7800     		.ascii	"x\000"
 6045 0a26 01       		.byte	0x1
 6046 0a27 4202     		.2byte	0x242
 6047 0a29 B8000000 		.4byte	0xb8
 6048 0a2d 02       		.uleb128 0x2
 6049 0a2e 91       		.byte	0x91
 6050 0a2f 66       		.sleb128 -26
 6051 0a30 1A       		.uleb128 0x1a
 6052 0a31 7900     		.ascii	"y\000"
 6053 0a33 01       		.byte	0x1
 6054 0a34 4202     		.2byte	0x242
 6055 0a36 B8000000 		.4byte	0xb8
 6056 0a3a 02       		.uleb128 0x2
 6057 0a3b 91       		.byte	0x91
 6058 0a3c 64       		.sleb128 -28
 6059 0a3d 1A       		.uleb128 0x1a
 6060 0a3e 6300     		.ascii	"c\000"
 6061 0a40 01       		.byte	0x1
 6062 0a41 4202     		.2byte	0x242
 6063 0a43 42000000 		.4byte	0x42
 6064 0a47 02       		.uleb128 0x2
 6065 0a48 91       		.byte	0x91
 6066 0a49 63       		.sleb128 -29
 6067 0a4a 19       		.uleb128 0x19
 6068 0a4b 55040000 		.4byte	.LASF51
 6069 0a4f 01       		.byte	0x1
 6070 0a50 4202     		.2byte	0x242
 6071 0a52 C3000000 		.4byte	0xc3
 6072 0a56 02       		.uleb128 0x2
 6073 0a57 91       		.byte	0x91
 6074 0a58 60       		.sleb128 -32
 6075 0a59 1A       		.uleb128 0x1a
 6076 0a5a 626700   		.ascii	"bg\000"
 6077 0a5d 01       		.byte	0x1
 6078 0a5e 4202     		.2byte	0x242
 6079 0a60 C3000000 		.4byte	0xc3
ARM GAS  C:\Users\mariu\AppData\Local\Temp\ccmFU017.s 			page 120


 6080 0a64 02       		.uleb128 0x2
 6081 0a65 91       		.byte	0x91
 6082 0a66 00       		.sleb128 0
 6083 0a67 19       		.uleb128 0x19
 6084 0a68 73030000 		.4byte	.LASF48
 6085 0a6c 01       		.byte	0x1
 6086 0a6d 4202     		.2byte	0x242
 6087 0a6f AD000000 		.4byte	0xad
 6088 0a73 02       		.uleb128 0x2
 6089 0a74 91       		.byte	0x91
 6090 0a75 04       		.sleb128 4
 6091 0a76 17       		.uleb128 0x17
 6092 0a77 6900     		.ascii	"i\000"
 6093 0a79 01       		.byte	0x1
 6094 0a7a 4902     		.2byte	0x249
 6095 0a7c A2000000 		.4byte	0xa2
 6096 0a80 02       		.uleb128 0x2
 6097 0a81 91       		.byte	0x91
 6098 0a82 6F       		.sleb128 -17
 6099 0a83 11       		.uleb128 0x11
 6100 0a84 76000000 		.4byte	.LBB8
 6101 0a88 4C010000 		.4byte	.LBE8-.LBB8
 6102 0a8c 16       		.uleb128 0x16
 6103 0a8d 5F050000 		.4byte	.LASF95
 6104 0a91 01       		.byte	0x1
 6105 0a92 4B02     		.2byte	0x24b
 6106 0a94 AD000000 		.4byte	0xad
 6107 0a98 02       		.uleb128 0x2
 6108 0a99 91       		.byte	0x91
 6109 0a9a 6E       		.sleb128 -18
 6110 0a9b 17       		.uleb128 0x17
 6111 0a9c 6A00     		.ascii	"j\000"
 6112 0a9e 01       		.byte	0x1
 6113 0a9f 5002     		.2byte	0x250
 6114 0aa1 A2000000 		.4byte	0xa2
 6115 0aa5 02       		.uleb128 0x2
 6116 0aa6 91       		.byte	0x91
 6117 0aa7 6D       		.sleb128 -19
 6118 0aa8 00       		.byte	0
 6119 0aa9 00       		.byte	0
 6120 0aaa 18       		.uleb128 0x18
 6121 0aab 3C040000 		.4byte	.LASF96
 6122 0aaf 01       		.byte	0x1
 6123 0ab0 6402     		.2byte	0x264
 6124 0ab2 00000000 		.4byte	.LFB92
 6125 0ab6 F4000000 		.4byte	.LFE92-.LFB92
 6126 0aba 01       		.uleb128 0x1
 6127 0abb 9C       		.byte	0x9c
 6128 0abc CF0A0000 		.4byte	0xacf
 6129 0ac0 1A       		.uleb128 0x1a
 6130 0ac1 636800   		.ascii	"ch\000"
 6131 0ac4 01       		.byte	0x1
 6132 0ac5 6402     		.2byte	0x264
 6133 0ac7 AD000000 		.4byte	0xad
 6134 0acb 02       		.uleb128 0x2
 6135 0acc 91       		.byte	0x91
 6136 0acd 6F       		.sleb128 -17
ARM GAS  C:\Users\mariu\AppData\Local\Temp\ccmFU017.s 			page 121


 6137 0ace 00       		.byte	0
 6138 0acf 18       		.uleb128 0x18
 6139 0ad0 80040000 		.4byte	.LASF97
 6140 0ad4 01       		.byte	0x1
 6141 0ad5 7402     		.2byte	0x274
 6142 0ad7 00000000 		.4byte	.LFB93
 6143 0adb 3E000000 		.4byte	.LFE93-.LFB93
 6144 0adf 01       		.uleb128 0x1
 6145 0ae0 9C       		.byte	0x9c
 6146 0ae1 0F0B0000 		.4byte	0xb0f
 6147 0ae5 1A       		.uleb128 0x1a
 6148 0ae6 7300     		.ascii	"s\000"
 6149 0ae8 01       		.byte	0x1
 6150 0ae9 7402     		.2byte	0x274
 6151 0aeb 14010000 		.4byte	0x114
 6152 0aef 02       		.uleb128 0x2
 6153 0af0 91       		.byte	0x91
 6154 0af1 6C       		.sleb128 -20
 6155 0af2 17       		.uleb128 0x17
 6156 0af3 6C656E00 		.ascii	"len\000"
 6157 0af7 01       		.byte	0x1
 6158 0af8 7602     		.2byte	0x276
 6159 0afa 9B000000 		.4byte	0x9b
 6160 0afe 02       		.uleb128 0x2
 6161 0aff 91       		.byte	0x91
 6162 0b00 70       		.sleb128 -16
 6163 0b01 17       		.uleb128 0x17
 6164 0b02 6900     		.ascii	"i\000"
 6165 0b04 01       		.byte	0x1
 6166 0b05 7702     		.2byte	0x277
 6167 0b07 9B000000 		.4byte	0x9b
 6168 0b0b 02       		.uleb128 0x2
 6169 0b0c 91       		.byte	0x91
 6170 0b0d 74       		.sleb128 -12
 6171 0b0e 00       		.byte	0
 6172 0b0f 18       		.uleb128 0x18
 6173 0b10 23040000 		.4byte	.LASF98
 6174 0b14 01       		.byte	0x1
 6175 0b15 7D02     		.2byte	0x27d
 6176 0b17 00000000 		.4byte	.LFB94
 6177 0b1b 1C000000 		.4byte	.LFE94-.LFB94
 6178 0b1f 01       		.uleb128 0x1
 6179 0b20 9C       		.byte	0x9c
 6180 0b21 330B0000 		.4byte	0xb33
 6181 0b25 1A       		.uleb128 0x1a
 6182 0b26 7300     		.ascii	"s\000"
 6183 0b28 01       		.byte	0x1
 6184 0b29 7D02     		.2byte	0x27d
 6185 0b2b 14010000 		.4byte	0x114
 6186 0b2f 02       		.uleb128 0x2
 6187 0b30 91       		.byte	0x91
 6188 0b31 74       		.sleb128 -12
 6189 0b32 00       		.byte	0
 6190 0b33 0D       		.uleb128 0xd
 6191 0b34 440B0000 		.4byte	0xb44
 6192 0b38 440B0000 		.4byte	0xb44
 6193 0b3c 1F       		.uleb128 0x1f
ARM GAS  C:\Users\mariu\AppData\Local\Temp\ccmFU017.s 			page 122


 6194 0b3d 0D010000 		.4byte	0x10d
 6195 0b41 FA04     		.2byte	0x4fa
 6196 0b43 00       		.byte	0
 6197 0b44 07       		.uleb128 0x7
 6198 0b45 42000000 		.4byte	0x42
 6199 0b49 0C       		.uleb128 0xc
 6200 0b4a 90040000 		.4byte	.LASF99
 6201 0b4e 06       		.byte	0x6
 6202 0b4f 05       		.byte	0x5
 6203 0b50 5A0B0000 		.4byte	0xb5a
 6204 0b54 05       		.uleb128 0x5
 6205 0b55 03       		.byte	0x3
 6206 0b56 00000000 		.4byte	font
 6207 0b5a 07       		.uleb128 0x7
 6208 0b5b 330B0000 		.4byte	0xb33
 6209 0b5f 0C       		.uleb128 0xc
 6210 0b60 A7030000 		.4byte	.LASF100
 6211 0b64 01       		.byte	0x1
 6212 0b65 5B       		.byte	0x5b
 6213 0b66 D9000000 		.4byte	0xd9
 6214 0b6a 05       		.uleb128 0x5
 6215 0b6b 03       		.byte	0x3
 6216 0b6c 00000000 		.4byte	_i2caddr
 6217 0b70 0D       		.uleb128 0xd
 6218 0b71 AD000000 		.4byte	0xad
 6219 0b75 810B0000 		.4byte	0xb81
 6220 0b79 1F       		.uleb128 0x1f
 6221 0b7a 0D010000 		.4byte	0x10d
 6222 0b7e 0004     		.2byte	0x400
 6223 0b80 00       		.byte	0
 6224 0b81 0C       		.uleb128 0xc
 6225 0b82 C7020000 		.4byte	.LASF101
 6226 0b86 01       		.byte	0x1
 6227 0b87 5E       		.byte	0x5e
 6228 0b88 700B0000 		.4byte	0xb70
 6229 0b8c 05       		.uleb128 0x5
 6230 0b8d 03       		.byte	0x3
 6231 0b8e 00000000 		.4byte	SSD1306_buffer
 6232 0b92 0C       		.uleb128 0xc
 6233 0b93 80050000 		.4byte	.LASF102
 6234 0b97 01       		.byte	0x1
 6235 0b98 60       		.byte	0x60
 6236 0b99 8E040000 		.4byte	0x48e
 6237 0b9d 05       		.uleb128 0x5
 6238 0b9e 03       		.byte	0x3
 6239 0b9f 04040000 		.4byte	_displaybuf
 6240 0ba3 0C       		.uleb128 0xc
 6241 0ba4 78030000 		.4byte	.LASF103
 6242 0ba8 01       		.byte	0x1
 6243 0ba9 61       		.byte	0x61
 6244 0baa C3000000 		.4byte	0xc3
 6245 0bae 05       		.uleb128 0x5
 6246 0baf 03       		.byte	0x3
 6247 0bb0 08040000 		.4byte	_displaybuf_size
 6248 0bb4 16       		.uleb128 0x16
 6249 0bb5 1A030000 		.4byte	.LASF104
 6250 0bb9 01       		.byte	0x1
ARM GAS  C:\Users\mariu\AppData\Local\Temp\ccmFU017.s 			page 123


 6251 0bba 4C01     		.2byte	0x14c
 6252 0bbc B8000000 		.4byte	0xb8
 6253 0bc0 05       		.uleb128 0x5
 6254 0bc1 03       		.byte	0x3
 6255 0bc2 02000000 		.4byte	_width
 6256 0bc6 16       		.uleb128 0x16
 6257 0bc7 6B030000 		.4byte	.LASF105
 6258 0bcb 01       		.byte	0x1
 6259 0bcc 4C01     		.2byte	0x14c
 6260 0bce B8000000 		.4byte	0xb8
 6261 0bd2 05       		.uleb128 0x5
 6262 0bd3 03       		.byte	0x3
 6263 0bd4 04000000 		.4byte	_height
 6264 0bd8 16       		.uleb128 0x16
 6265 0bd9 C1010000 		.4byte	.LASF106
 6266 0bdd 01       		.byte	0x1
 6267 0bde 4D01     		.2byte	0x14d
 6268 0be0 B8000000 		.4byte	0xb8
 6269 0be4 05       		.uleb128 0x5
 6270 0be5 03       		.byte	0x3
 6271 0be6 06000000 		.4byte	cursor_x
 6272 0bea 16       		.uleb128 0x16
 6273 0beb CA010000 		.4byte	.LASF107
 6274 0bef 01       		.byte	0x1
 6275 0bf0 4D01     		.2byte	0x14d
 6276 0bf2 B8000000 		.4byte	0xb8
 6277 0bf6 05       		.uleb128 0x5
 6278 0bf7 03       		.byte	0x3
 6279 0bf8 08000000 		.4byte	cursor_y
 6280 0bfc 16       		.uleb128 0x16
 6281 0bfd E8050000 		.4byte	.LASF108
 6282 0c01 01       		.byte	0x1
 6283 0c02 4E01     		.2byte	0x14e
 6284 0c04 C3000000 		.4byte	0xc3
 6285 0c08 05       		.uleb128 0x5
 6286 0c09 03       		.byte	0x3
 6287 0c0a 0A000000 		.4byte	textcolor
 6288 0c0e 16       		.uleb128 0x16
 6289 0c0f F2050000 		.4byte	.LASF109
 6290 0c13 01       		.byte	0x1
 6291 0c14 4E01     		.2byte	0x14e
 6292 0c16 C3000000 		.4byte	0xc3
 6293 0c1a 05       		.uleb128 0x5
 6294 0c1b 03       		.byte	0x3
 6295 0c1c 0C000000 		.4byte	textbgcolor
 6296 0c20 16       		.uleb128 0x16
 6297 0c21 E4010000 		.4byte	.LASF110
 6298 0c25 01       		.byte	0x1
 6299 0c26 4F01     		.2byte	0x14f
 6300 0c28 AD000000 		.4byte	0xad
 6301 0c2c 05       		.uleb128 0x5
 6302 0c2d 03       		.byte	0x3
 6303 0c2e 0E000000 		.4byte	textsize
 6304 0c32 20       		.uleb128 0x20
 6305 0c33 2F040000 		.4byte	.LASF111
 6306 0c37 07       		.byte	0x7
 6307 0c38 1207     		.2byte	0x712
ARM GAS  C:\Users\mariu\AppData\Local\Temp\ccmFU017.s 			page 124


 6308 0c3a 3E0C0000 		.4byte	0xc3e
 6309 0c3e 21       		.uleb128 0x21
 6310 0c3f CE000000 		.4byte	0xce
 6311 0c43 22       		.uleb128 0x22
 6312 0c44 2B020000 		.4byte	.LASF112
 6313 0c48 01       		.byte	0x1
 6314 0c49 4B01     		.2byte	0x14b
 6315 0c4b B8000000 		.4byte	0xb8
 6316 0c4f 05       		.uleb128 0x5
 6317 0c50 03       		.byte	0x3
 6318 0c51 00000000 		.4byte	WIDTH
 6319 0c55 22       		.uleb128 0x22
 6320 0c56 A6010000 		.4byte	.LASF113
 6321 0c5a 01       		.byte	0x1
 6322 0c5b 4B01     		.2byte	0x14b
 6323 0c5d B8000000 		.4byte	0xb8
 6324 0c61 05       		.uleb128 0x5
 6325 0c62 03       		.byte	0x3
 6326 0c63 00000000 		.4byte	HEIGHT
 6327 0c67 22       		.uleb128 0x22
 6328 0c68 12010000 		.4byte	.LASF114
 6329 0c6c 01       		.byte	0x1
 6330 0c6d 5001     		.2byte	0x150
 6331 0c6f AD000000 		.4byte	0xad
 6332 0c73 05       		.uleb128 0x5
 6333 0c74 03       		.byte	0x3
 6334 0c75 00000000 		.4byte	rotation
 6335 0c79 22       		.uleb128 0x22
 6336 0c7a D9040000 		.4byte	.LASF115
 6337 0c7e 01       		.byte	0x1
 6338 0c7f 5101     		.2byte	0x151
 6339 0c81 AD000000 		.4byte	0xad
 6340 0c85 05       		.uleb128 0x5
 6341 0c86 03       		.byte	0x3
 6342 0c87 00000000 		.4byte	wrap
 6343 0c8b 00       		.byte	0
 6344              		.section	.debug_abbrev,"",%progbits
 6345              	.Ldebug_abbrev0:
 6346 0000 01       		.uleb128 0x1
 6347 0001 11       		.uleb128 0x11
 6348 0002 01       		.byte	0x1
 6349 0003 25       		.uleb128 0x25
 6350 0004 0E       		.uleb128 0xe
 6351 0005 13       		.uleb128 0x13
 6352 0006 0B       		.uleb128 0xb
 6353 0007 03       		.uleb128 0x3
 6354 0008 0E       		.uleb128 0xe
 6355 0009 1B       		.uleb128 0x1b
 6356 000a 0E       		.uleb128 0xe
 6357 000b 55       		.uleb128 0x55
 6358 000c 17       		.uleb128 0x17
 6359 000d 11       		.uleb128 0x11
 6360 000e 01       		.uleb128 0x1
 6361 000f 10       		.uleb128 0x10
 6362 0010 17       		.uleb128 0x17
 6363 0011 00       		.byte	0
 6364 0012 00       		.byte	0
ARM GAS  C:\Users\mariu\AppData\Local\Temp\ccmFU017.s 			page 125


 6365 0013 02       		.uleb128 0x2
 6366 0014 16       		.uleb128 0x16
 6367 0015 00       		.byte	0
 6368 0016 03       		.uleb128 0x3
 6369 0017 0E       		.uleb128 0xe
 6370 0018 3A       		.uleb128 0x3a
 6371 0019 0B       		.uleb128 0xb
 6372 001a 3B       		.uleb128 0x3b
 6373 001b 0B       		.uleb128 0xb
 6374 001c 49       		.uleb128 0x49
 6375 001d 13       		.uleb128 0x13
 6376 001e 00       		.byte	0
 6377 001f 00       		.byte	0
 6378 0020 03       		.uleb128 0x3
 6379 0021 24       		.uleb128 0x24
 6380 0022 00       		.byte	0
 6381 0023 0B       		.uleb128 0xb
 6382 0024 0B       		.uleb128 0xb
 6383 0025 3E       		.uleb128 0x3e
 6384 0026 0B       		.uleb128 0xb
 6385 0027 03       		.uleb128 0x3
 6386 0028 0E       		.uleb128 0xe
 6387 0029 00       		.byte	0
 6388 002a 00       		.byte	0
 6389 002b 04       		.uleb128 0x4
 6390 002c 24       		.uleb128 0x24
 6391 002d 00       		.byte	0
 6392 002e 0B       		.uleb128 0xb
 6393 002f 0B       		.uleb128 0xb
 6394 0030 3E       		.uleb128 0x3e
 6395 0031 0B       		.uleb128 0xb
 6396 0032 03       		.uleb128 0x3
 6397 0033 08       		.uleb128 0x8
 6398 0034 00       		.byte	0
 6399 0035 00       		.byte	0
 6400 0036 05       		.uleb128 0x5
 6401 0037 16       		.uleb128 0x16
 6402 0038 00       		.byte	0
 6403 0039 03       		.uleb128 0x3
 6404 003a 0E       		.uleb128 0xe
 6405 003b 3A       		.uleb128 0x3a
 6406 003c 0B       		.uleb128 0xb
 6407 003d 3B       		.uleb128 0x3b
 6408 003e 05       		.uleb128 0x5
 6409 003f 49       		.uleb128 0x49
 6410 0040 13       		.uleb128 0x13
 6411 0041 00       		.byte	0
 6412 0042 00       		.byte	0
 6413 0043 06       		.uleb128 0x6
 6414 0044 0F       		.uleb128 0xf
 6415 0045 00       		.byte	0
 6416 0046 0B       		.uleb128 0xb
 6417 0047 0B       		.uleb128 0xb
 6418 0048 49       		.uleb128 0x49
 6419 0049 13       		.uleb128 0x13
 6420 004a 00       		.byte	0
 6421 004b 00       		.byte	0
ARM GAS  C:\Users\mariu\AppData\Local\Temp\ccmFU017.s 			page 126


 6422 004c 07       		.uleb128 0x7
 6423 004d 26       		.uleb128 0x26
 6424 004e 00       		.byte	0
 6425 004f 49       		.uleb128 0x49
 6426 0050 13       		.uleb128 0x13
 6427 0051 00       		.byte	0
 6428 0052 00       		.byte	0
 6429 0053 08       		.uleb128 0x8
 6430 0054 04       		.uleb128 0x4
 6431 0055 01       		.byte	0x1
 6432 0056 0B       		.uleb128 0xb
 6433 0057 0B       		.uleb128 0xb
 6434 0058 49       		.uleb128 0x49
 6435 0059 13       		.uleb128 0x13
 6436 005a 3A       		.uleb128 0x3a
 6437 005b 0B       		.uleb128 0xb
 6438 005c 3B       		.uleb128 0x3b
 6439 005d 0B       		.uleb128 0xb
 6440 005e 01       		.uleb128 0x1
 6441 005f 13       		.uleb128 0x13
 6442 0060 00       		.byte	0
 6443 0061 00       		.byte	0
 6444 0062 09       		.uleb128 0x9
 6445 0063 28       		.uleb128 0x28
 6446 0064 00       		.byte	0
 6447 0065 03       		.uleb128 0x3
 6448 0066 0E       		.uleb128 0xe
 6449 0067 1C       		.uleb128 0x1c
 6450 0068 0B       		.uleb128 0xb
 6451 0069 00       		.byte	0
 6452 006a 00       		.byte	0
 6453 006b 0A       		.uleb128 0xa
 6454 006c 2E       		.uleb128 0x2e
 6455 006d 01       		.byte	0x1
 6456 006e 3F       		.uleb128 0x3f
 6457 006f 19       		.uleb128 0x19
 6458 0070 03       		.uleb128 0x3
 6459 0071 0E       		.uleb128 0xe
 6460 0072 3A       		.uleb128 0x3a
 6461 0073 0B       		.uleb128 0xb
 6462 0074 3B       		.uleb128 0x3b
 6463 0075 0B       		.uleb128 0xb
 6464 0076 27       		.uleb128 0x27
 6465 0077 19       		.uleb128 0x19
 6466 0078 11       		.uleb128 0x11
 6467 0079 01       		.uleb128 0x1
 6468 007a 12       		.uleb128 0x12
 6469 007b 06       		.uleb128 0x6
 6470 007c 40       		.uleb128 0x40
 6471 007d 18       		.uleb128 0x18
 6472 007e 9642     		.uleb128 0x2116
 6473 0080 19       		.uleb128 0x19
 6474 0081 01       		.uleb128 0x1
 6475 0082 13       		.uleb128 0x13
 6476 0083 00       		.byte	0
 6477 0084 00       		.byte	0
 6478 0085 0B       		.uleb128 0xb
ARM GAS  C:\Users\mariu\AppData\Local\Temp\ccmFU017.s 			page 127


 6479 0086 05       		.uleb128 0x5
 6480 0087 00       		.byte	0
 6481 0088 03       		.uleb128 0x3
 6482 0089 0E       		.uleb128 0xe
 6483 008a 3A       		.uleb128 0x3a
 6484 008b 0B       		.uleb128 0xb
 6485 008c 3B       		.uleb128 0x3b
 6486 008d 0B       		.uleb128 0xb
 6487 008e 49       		.uleb128 0x49
 6488 008f 13       		.uleb128 0x13
 6489 0090 02       		.uleb128 0x2
 6490 0091 18       		.uleb128 0x18
 6491 0092 00       		.byte	0
 6492 0093 00       		.byte	0
 6493 0094 0C       		.uleb128 0xc
 6494 0095 34       		.uleb128 0x34
 6495 0096 00       		.byte	0
 6496 0097 03       		.uleb128 0x3
 6497 0098 0E       		.uleb128 0xe
 6498 0099 3A       		.uleb128 0x3a
 6499 009a 0B       		.uleb128 0xb
 6500 009b 3B       		.uleb128 0x3b
 6501 009c 0B       		.uleb128 0xb
 6502 009d 49       		.uleb128 0x49
 6503 009e 13       		.uleb128 0x13
 6504 009f 02       		.uleb128 0x2
 6505 00a0 18       		.uleb128 0x18
 6506 00a1 00       		.byte	0
 6507 00a2 00       		.byte	0
 6508 00a3 0D       		.uleb128 0xd
 6509 00a4 01       		.uleb128 0x1
 6510 00a5 01       		.byte	0x1
 6511 00a6 49       		.uleb128 0x49
 6512 00a7 13       		.uleb128 0x13
 6513 00a8 01       		.uleb128 0x1
 6514 00a9 13       		.uleb128 0x13
 6515 00aa 00       		.byte	0
 6516 00ab 00       		.byte	0
 6517 00ac 0E       		.uleb128 0xe
 6518 00ad 21       		.uleb128 0x21
 6519 00ae 00       		.byte	0
 6520 00af 49       		.uleb128 0x49
 6521 00b0 13       		.uleb128 0x13
 6522 00b1 2F       		.uleb128 0x2f
 6523 00b2 0B       		.uleb128 0xb
 6524 00b3 00       		.byte	0
 6525 00b4 00       		.byte	0
 6526 00b5 0F       		.uleb128 0xf
 6527 00b6 2E       		.uleb128 0x2e
 6528 00b7 01       		.byte	0x1
 6529 00b8 03       		.uleb128 0x3
 6530 00b9 0E       		.uleb128 0xe
 6531 00ba 3A       		.uleb128 0x3a
 6532 00bb 0B       		.uleb128 0xb
 6533 00bc 3B       		.uleb128 0x3b
 6534 00bd 0B       		.uleb128 0xb
 6535 00be 27       		.uleb128 0x27
ARM GAS  C:\Users\mariu\AppData\Local\Temp\ccmFU017.s 			page 128


 6536 00bf 19       		.uleb128 0x19
 6537 00c0 49       		.uleb128 0x49
 6538 00c1 13       		.uleb128 0x13
 6539 00c2 11       		.uleb128 0x11
 6540 00c3 01       		.uleb128 0x1
 6541 00c4 12       		.uleb128 0x12
 6542 00c5 06       		.uleb128 0x6
 6543 00c6 40       		.uleb128 0x40
 6544 00c7 18       		.uleb128 0x18
 6545 00c8 9642     		.uleb128 0x2116
 6546 00ca 19       		.uleb128 0x19
 6547 00cb 01       		.uleb128 0x1
 6548 00cc 13       		.uleb128 0x13
 6549 00cd 00       		.byte	0
 6550 00ce 00       		.byte	0
 6551 00cf 10       		.uleb128 0x10
 6552 00d0 05       		.uleb128 0x5
 6553 00d1 00       		.byte	0
 6554 00d2 03       		.uleb128 0x3
 6555 00d3 08       		.uleb128 0x8
 6556 00d4 3A       		.uleb128 0x3a
 6557 00d5 0B       		.uleb128 0xb
 6558 00d6 3B       		.uleb128 0x3b
 6559 00d7 0B       		.uleb128 0xb
 6560 00d8 49       		.uleb128 0x49
 6561 00d9 13       		.uleb128 0x13
 6562 00da 02       		.uleb128 0x2
 6563 00db 18       		.uleb128 0x18
 6564 00dc 00       		.byte	0
 6565 00dd 00       		.byte	0
 6566 00de 11       		.uleb128 0x11
 6567 00df 0B       		.uleb128 0xb
 6568 00e0 01       		.byte	0x1
 6569 00e1 11       		.uleb128 0x11
 6570 00e2 01       		.uleb128 0x1
 6571 00e3 12       		.uleb128 0x12
 6572 00e4 06       		.uleb128 0x6
 6573 00e5 00       		.byte	0
 6574 00e6 00       		.byte	0
 6575 00e7 12       		.uleb128 0x12
 6576 00e8 34       		.uleb128 0x34
 6577 00e9 00       		.byte	0
 6578 00ea 03       		.uleb128 0x3
 6579 00eb 08       		.uleb128 0x8
 6580 00ec 3A       		.uleb128 0x3a
 6581 00ed 0B       		.uleb128 0xb
 6582 00ee 3B       		.uleb128 0x3b
 6583 00ef 0B       		.uleb128 0xb
 6584 00f0 49       		.uleb128 0x49
 6585 00f1 13       		.uleb128 0x13
 6586 00f2 02       		.uleb128 0x2
 6587 00f3 18       		.uleb128 0x18
 6588 00f4 00       		.byte	0
 6589 00f5 00       		.byte	0
 6590 00f6 13       		.uleb128 0x13
 6591 00f7 2E       		.uleb128 0x2e
 6592 00f8 01       		.byte	0x1
ARM GAS  C:\Users\mariu\AppData\Local\Temp\ccmFU017.s 			page 129


 6593 00f9 03       		.uleb128 0x3
 6594 00fa 0E       		.uleb128 0xe
 6595 00fb 3A       		.uleb128 0x3a
 6596 00fc 0B       		.uleb128 0xb
 6597 00fd 3B       		.uleb128 0x3b
 6598 00fe 0B       		.uleb128 0xb
 6599 00ff 27       		.uleb128 0x27
 6600 0100 19       		.uleb128 0x19
 6601 0101 11       		.uleb128 0x11
 6602 0102 01       		.uleb128 0x1
 6603 0103 12       		.uleb128 0x12
 6604 0104 06       		.uleb128 0x6
 6605 0105 40       		.uleb128 0x40
 6606 0106 18       		.uleb128 0x18
 6607 0107 9742     		.uleb128 0x2117
 6608 0109 19       		.uleb128 0x19
 6609 010a 01       		.uleb128 0x1
 6610 010b 13       		.uleb128 0x13
 6611 010c 00       		.byte	0
 6612 010d 00       		.byte	0
 6613 010e 14       		.uleb128 0x14
 6614 010f 2E       		.uleb128 0x2e
 6615 0110 00       		.byte	0
 6616 0111 3F       		.uleb128 0x3f
 6617 0112 19       		.uleb128 0x19
 6618 0113 03       		.uleb128 0x3
 6619 0114 0E       		.uleb128 0xe
 6620 0115 3A       		.uleb128 0x3a
 6621 0116 0B       		.uleb128 0xb
 6622 0117 3B       		.uleb128 0x3b
 6623 0118 0B       		.uleb128 0xb
 6624 0119 27       		.uleb128 0x27
 6625 011a 19       		.uleb128 0x19
 6626 011b 11       		.uleb128 0x11
 6627 011c 01       		.uleb128 0x1
 6628 011d 12       		.uleb128 0x12
 6629 011e 06       		.uleb128 0x6
 6630 011f 40       		.uleb128 0x40
 6631 0120 18       		.uleb128 0x18
 6632 0121 9642     		.uleb128 0x2116
 6633 0123 19       		.uleb128 0x19
 6634 0124 00       		.byte	0
 6635 0125 00       		.byte	0
 6636 0126 15       		.uleb128 0x15
 6637 0127 0B       		.uleb128 0xb
 6638 0128 01       		.byte	0x1
 6639 0129 11       		.uleb128 0x11
 6640 012a 01       		.uleb128 0x1
 6641 012b 12       		.uleb128 0x12
 6642 012c 06       		.uleb128 0x6
 6643 012d 01       		.uleb128 0x1
 6644 012e 13       		.uleb128 0x13
 6645 012f 00       		.byte	0
 6646 0130 00       		.byte	0
 6647 0131 16       		.uleb128 0x16
 6648 0132 34       		.uleb128 0x34
 6649 0133 00       		.byte	0
ARM GAS  C:\Users\mariu\AppData\Local\Temp\ccmFU017.s 			page 130


 6650 0134 03       		.uleb128 0x3
 6651 0135 0E       		.uleb128 0xe
 6652 0136 3A       		.uleb128 0x3a
 6653 0137 0B       		.uleb128 0xb
 6654 0138 3B       		.uleb128 0x3b
 6655 0139 05       		.uleb128 0x5
 6656 013a 49       		.uleb128 0x49
 6657 013b 13       		.uleb128 0x13
 6658 013c 02       		.uleb128 0x2
 6659 013d 18       		.uleb128 0x18
 6660 013e 00       		.byte	0
 6661 013f 00       		.byte	0
 6662 0140 17       		.uleb128 0x17
 6663 0141 34       		.uleb128 0x34
 6664 0142 00       		.byte	0
 6665 0143 03       		.uleb128 0x3
 6666 0144 08       		.uleb128 0x8
 6667 0145 3A       		.uleb128 0x3a
 6668 0146 0B       		.uleb128 0xb
 6669 0147 3B       		.uleb128 0x3b
 6670 0148 05       		.uleb128 0x5
 6671 0149 49       		.uleb128 0x49
 6672 014a 13       		.uleb128 0x13
 6673 014b 02       		.uleb128 0x2
 6674 014c 18       		.uleb128 0x18
 6675 014d 00       		.byte	0
 6676 014e 00       		.byte	0
 6677 014f 18       		.uleb128 0x18
 6678 0150 2E       		.uleb128 0x2e
 6679 0151 01       		.byte	0x1
 6680 0152 3F       		.uleb128 0x3f
 6681 0153 19       		.uleb128 0x19
 6682 0154 03       		.uleb128 0x3
 6683 0155 0E       		.uleb128 0xe
 6684 0156 3A       		.uleb128 0x3a
 6685 0157 0B       		.uleb128 0xb
 6686 0158 3B       		.uleb128 0x3b
 6687 0159 05       		.uleb128 0x5
 6688 015a 27       		.uleb128 0x27
 6689 015b 19       		.uleb128 0x19
 6690 015c 11       		.uleb128 0x11
 6691 015d 01       		.uleb128 0x1
 6692 015e 12       		.uleb128 0x12
 6693 015f 06       		.uleb128 0x6
 6694 0160 40       		.uleb128 0x40
 6695 0161 18       		.uleb128 0x18
 6696 0162 9642     		.uleb128 0x2116
 6697 0164 19       		.uleb128 0x19
 6698 0165 01       		.uleb128 0x1
 6699 0166 13       		.uleb128 0x13
 6700 0167 00       		.byte	0
 6701 0168 00       		.byte	0
 6702 0169 19       		.uleb128 0x19
 6703 016a 05       		.uleb128 0x5
 6704 016b 00       		.byte	0
 6705 016c 03       		.uleb128 0x3
 6706 016d 0E       		.uleb128 0xe
ARM GAS  C:\Users\mariu\AppData\Local\Temp\ccmFU017.s 			page 131


 6707 016e 3A       		.uleb128 0x3a
 6708 016f 0B       		.uleb128 0xb
 6709 0170 3B       		.uleb128 0x3b
 6710 0171 05       		.uleb128 0x5
 6711 0172 49       		.uleb128 0x49
 6712 0173 13       		.uleb128 0x13
 6713 0174 02       		.uleb128 0x2
 6714 0175 18       		.uleb128 0x18
 6715 0176 00       		.byte	0
 6716 0177 00       		.byte	0
 6717 0178 1A       		.uleb128 0x1a
 6718 0179 05       		.uleb128 0x5
 6719 017a 00       		.byte	0
 6720 017b 03       		.uleb128 0x3
 6721 017c 08       		.uleb128 0x8
 6722 017d 3A       		.uleb128 0x3a
 6723 017e 0B       		.uleb128 0xb
 6724 017f 3B       		.uleb128 0x3b
 6725 0180 05       		.uleb128 0x5
 6726 0181 49       		.uleb128 0x49
 6727 0182 13       		.uleb128 0x13
 6728 0183 02       		.uleb128 0x2
 6729 0184 18       		.uleb128 0x18
 6730 0185 00       		.byte	0
 6731 0186 00       		.byte	0
 6732 0187 1B       		.uleb128 0x1b
 6733 0188 2E       		.uleb128 0x2e
 6734 0189 01       		.byte	0x1
 6735 018a 3F       		.uleb128 0x3f
 6736 018b 19       		.uleb128 0x19
 6737 018c 03       		.uleb128 0x3
 6738 018d 0E       		.uleb128 0xe
 6739 018e 3A       		.uleb128 0x3a
 6740 018f 0B       		.uleb128 0xb
 6741 0190 3B       		.uleb128 0x3b
 6742 0191 05       		.uleb128 0x5
 6743 0192 27       		.uleb128 0x27
 6744 0193 19       		.uleb128 0x19
 6745 0194 11       		.uleb128 0x11
 6746 0195 01       		.uleb128 0x1
 6747 0196 12       		.uleb128 0x12
 6748 0197 06       		.uleb128 0x6
 6749 0198 40       		.uleb128 0x40
 6750 0199 18       		.uleb128 0x18
 6751 019a 9742     		.uleb128 0x2117
 6752 019c 19       		.uleb128 0x19
 6753 019d 01       		.uleb128 0x1
 6754 019e 13       		.uleb128 0x13
 6755 019f 00       		.byte	0
 6756 01a0 00       		.byte	0
 6757 01a1 1C       		.uleb128 0x1c
 6758 01a2 2E       		.uleb128 0x2e
 6759 01a3 00       		.byte	0
 6760 01a4 3F       		.uleb128 0x3f
 6761 01a5 19       		.uleb128 0x19
 6762 01a6 03       		.uleb128 0x3
 6763 01a7 0E       		.uleb128 0xe
ARM GAS  C:\Users\mariu\AppData\Local\Temp\ccmFU017.s 			page 132


 6764 01a8 3A       		.uleb128 0x3a
 6765 01a9 0B       		.uleb128 0xb
 6766 01aa 3B       		.uleb128 0x3b
 6767 01ab 05       		.uleb128 0x5
 6768 01ac 27       		.uleb128 0x27
 6769 01ad 19       		.uleb128 0x19
 6770 01ae 49       		.uleb128 0x49
 6771 01af 13       		.uleb128 0x13
 6772 01b0 11       		.uleb128 0x11
 6773 01b1 01       		.uleb128 0x1
 6774 01b2 12       		.uleb128 0x12
 6775 01b3 06       		.uleb128 0x6
 6776 01b4 40       		.uleb128 0x40
 6777 01b5 18       		.uleb128 0x18
 6778 01b6 9742     		.uleb128 0x2117
 6779 01b8 19       		.uleb128 0x19
 6780 01b9 00       		.byte	0
 6781 01ba 00       		.byte	0
 6782 01bb 1D       		.uleb128 0x1d
 6783 01bc 2E       		.uleb128 0x2e
 6784 01bd 01       		.byte	0x1
 6785 01be 03       		.uleb128 0x3
 6786 01bf 0E       		.uleb128 0xe
 6787 01c0 3A       		.uleb128 0x3a
 6788 01c1 0B       		.uleb128 0xb
 6789 01c2 3B       		.uleb128 0x3b
 6790 01c3 05       		.uleb128 0x5
 6791 01c4 27       		.uleb128 0x27
 6792 01c5 19       		.uleb128 0x19
 6793 01c6 11       		.uleb128 0x11
 6794 01c7 01       		.uleb128 0x1
 6795 01c8 12       		.uleb128 0x12
 6796 01c9 06       		.uleb128 0x6
 6797 01ca 40       		.uleb128 0x40
 6798 01cb 18       		.uleb128 0x18
 6799 01cc 9742     		.uleb128 0x2117
 6800 01ce 19       		.uleb128 0x19
 6801 01cf 01       		.uleb128 0x1
 6802 01d0 13       		.uleb128 0x13
 6803 01d1 00       		.byte	0
 6804 01d2 00       		.byte	0
 6805 01d3 1E       		.uleb128 0x1e
 6806 01d4 2E       		.uleb128 0x2e
 6807 01d5 01       		.byte	0x1
 6808 01d6 03       		.uleb128 0x3
 6809 01d7 0E       		.uleb128 0xe
 6810 01d8 3A       		.uleb128 0x3a
 6811 01d9 0B       		.uleb128 0xb
 6812 01da 3B       		.uleb128 0x3b
 6813 01db 05       		.uleb128 0x5
 6814 01dc 27       		.uleb128 0x27
 6815 01dd 19       		.uleb128 0x19
 6816 01de 11       		.uleb128 0x11
 6817 01df 01       		.uleb128 0x1
 6818 01e0 12       		.uleb128 0x12
 6819 01e1 06       		.uleb128 0x6
 6820 01e2 40       		.uleb128 0x40
ARM GAS  C:\Users\mariu\AppData\Local\Temp\ccmFU017.s 			page 133


 6821 01e3 18       		.uleb128 0x18
 6822 01e4 9642     		.uleb128 0x2116
 6823 01e6 19       		.uleb128 0x19
 6824 01e7 01       		.uleb128 0x1
 6825 01e8 13       		.uleb128 0x13
 6826 01e9 00       		.byte	0
 6827 01ea 00       		.byte	0
 6828 01eb 1F       		.uleb128 0x1f
 6829 01ec 21       		.uleb128 0x21
 6830 01ed 00       		.byte	0
 6831 01ee 49       		.uleb128 0x49
 6832 01ef 13       		.uleb128 0x13
 6833 01f0 2F       		.uleb128 0x2f
 6834 01f1 05       		.uleb128 0x5
 6835 01f2 00       		.byte	0
 6836 01f3 00       		.byte	0
 6837 01f4 20       		.uleb128 0x20
 6838 01f5 34       		.uleb128 0x34
 6839 01f6 00       		.byte	0
 6840 01f7 03       		.uleb128 0x3
 6841 01f8 0E       		.uleb128 0xe
 6842 01f9 3A       		.uleb128 0x3a
 6843 01fa 0B       		.uleb128 0xb
 6844 01fb 3B       		.uleb128 0x3b
 6845 01fc 05       		.uleb128 0x5
 6846 01fd 49       		.uleb128 0x49
 6847 01fe 13       		.uleb128 0x13
 6848 01ff 3F       		.uleb128 0x3f
 6849 0200 19       		.uleb128 0x19
 6850 0201 3C       		.uleb128 0x3c
 6851 0202 19       		.uleb128 0x19
 6852 0203 00       		.byte	0
 6853 0204 00       		.byte	0
 6854 0205 21       		.uleb128 0x21
 6855 0206 35       		.uleb128 0x35
 6856 0207 00       		.byte	0
 6857 0208 49       		.uleb128 0x49
 6858 0209 13       		.uleb128 0x13
 6859 020a 00       		.byte	0
 6860 020b 00       		.byte	0
 6861 020c 22       		.uleb128 0x22
 6862 020d 34       		.uleb128 0x34
 6863 020e 00       		.byte	0
 6864 020f 03       		.uleb128 0x3
 6865 0210 0E       		.uleb128 0xe
 6866 0211 3A       		.uleb128 0x3a
 6867 0212 0B       		.uleb128 0xb
 6868 0213 3B       		.uleb128 0x3b
 6869 0214 05       		.uleb128 0x5
 6870 0215 49       		.uleb128 0x49
 6871 0216 13       		.uleb128 0x13
 6872 0217 3F       		.uleb128 0x3f
 6873 0218 19       		.uleb128 0x19
 6874 0219 02       		.uleb128 0x2
 6875 021a 18       		.uleb128 0x18
 6876 021b 00       		.byte	0
 6877 021c 00       		.byte	0
ARM GAS  C:\Users\mariu\AppData\Local\Temp\ccmFU017.s 			page 134


 6878 021d 00       		.byte	0
 6879              		.section	.debug_aranges,"",%progbits
 6880 0000 14010000 		.4byte	0x114
 6881 0004 0200     		.2byte	0x2
 6882 0006 00000000 		.4byte	.Ldebug_info0
 6883 000a 04       		.byte	0x4
 6884 000b 00       		.byte	0
 6885 000c 0000     		.2byte	0
 6886 000e 0000     		.2byte	0
 6887 0010 00000000 		.4byte	.LFB63
 6888 0014 50000000 		.4byte	.LFE63-.LFB63
 6889 0018 00000000 		.4byte	.LFB64
 6890 001c 54000000 		.4byte	.LFE64-.LFB64
 6891 0020 00000000 		.4byte	.LFB65
 6892 0024 48010000 		.4byte	.LFE65-.LFB65
 6893 0028 00000000 		.4byte	.LFB66
 6894 002c 2C000000 		.4byte	.LFE66-.LFB66
 6895 0030 00000000 		.4byte	.LFB67
 6896 0034 2A000000 		.4byte	.LFE67-.LFB67
 6897 0038 00000000 		.4byte	.LFB68
 6898 003c 34000000 		.4byte	.LFE68-.LFB68
 6899 0040 00000000 		.4byte	.LFB69
 6900 0044 3C000000 		.4byte	.LFE69-.LFB69
 6901 0048 00000000 		.4byte	.LFB70
 6902 004c 4C020000 		.4byte	.LFE70-.LFB70
 6903 0050 00000000 		.4byte	.LFB71
 6904 0054 20000000 		.4byte	.LFE71-.LFB71
 6905 0058 00000000 		.4byte	.LFB72
 6906 005c 56000000 		.4byte	.LFE72-.LFB72
 6907 0060 00000000 		.4byte	.LFB73
 6908 0064 98000000 		.4byte	.LFE73-.LFB73
 6909 0068 00000000 		.4byte	.LFB74
 6910 006c 18000000 		.4byte	.LFE74-.LFB74
 6911 0070 00000000 		.4byte	.LFB75
 6912 0074 18000000 		.4byte	.LFE75-.LFB75
 6913 0078 00000000 		.4byte	.LFB76
 6914 007c 14000000 		.4byte	.LFE76-.LFB76
 6915 0080 00000000 		.4byte	.LFB77
 6916 0084 30000000 		.4byte	.LFE77-.LFB77
 6917 0088 00000000 		.4byte	.LFB78
 6918 008c 28000000 		.4byte	.LFE78-.LFB78
 6919 0090 00000000 		.4byte	.LFB79
 6920 0094 2C000000 		.4byte	.LFE79-.LFB79
 6921 0098 00000000 		.4byte	.LFB80
 6922 009c 20000000 		.4byte	.LFE80-.LFB80
 6923 00a0 00000000 		.4byte	.LFB81
 6924 00a4 20000000 		.4byte	.LFE81-.LFB81
 6925 00a8 00000000 		.4byte	.LFB82
 6926 00ac 80000000 		.4byte	.LFE82-.LFB82
 6927 00b0 00000000 		.4byte	.LFB83
 6928 00b4 C0000000 		.4byte	.LFE83-.LFB83
 6929 00b8 00000000 		.4byte	.LFB84
 6930 00bc 6C000000 		.4byte	.LFE84-.LFB84
 6931 00c0 00000000 		.4byte	.LFB85
 6932 00c4 AC010000 		.4byte	.LFE85-.LFB85
 6933 00c8 00000000 		.4byte	.LFB86
 6934 00cc 74010000 		.4byte	.LFE86-.LFB86
ARM GAS  C:\Users\mariu\AppData\Local\Temp\ccmFU017.s 			page 135


 6935 00d0 00000000 		.4byte	.LFB87
 6936 00d4 E2000000 		.4byte	.LFE87-.LFB87
 6937 00d8 00000000 		.4byte	.LFB88
 6938 00dc C8000000 		.4byte	.LFE88-.LFB88
 6939 00e0 00000000 		.4byte	.LFB89
 6940 00e4 D6010000 		.4byte	.LFE89-.LFB89
 6941 00e8 00000000 		.4byte	.LFB90
 6942 00ec 74000000 		.4byte	.LFE90-.LFB90
 6943 00f0 00000000 		.4byte	.LFB91
 6944 00f4 F0010000 		.4byte	.LFE91-.LFB91
 6945 00f8 00000000 		.4byte	.LFB92
 6946 00fc F4000000 		.4byte	.LFE92-.LFB92
 6947 0100 00000000 		.4byte	.LFB93
 6948 0104 3E000000 		.4byte	.LFE93-.LFB93
 6949 0108 00000000 		.4byte	.LFB94
 6950 010c 1C000000 		.4byte	.LFE94-.LFB94
 6951 0110 00000000 		.4byte	0
 6952 0114 00000000 		.4byte	0
 6953              		.section	.debug_ranges,"",%progbits
 6954              	.Ldebug_ranges0:
 6955 0000 00000000 		.4byte	.LFB63
 6956 0004 50000000 		.4byte	.LFE63
 6957 0008 00000000 		.4byte	.LFB64
 6958 000c 54000000 		.4byte	.LFE64
 6959 0010 00000000 		.4byte	.LFB65
 6960 0014 48010000 		.4byte	.LFE65
 6961 0018 00000000 		.4byte	.LFB66
 6962 001c 2C000000 		.4byte	.LFE66
 6963 0020 00000000 		.4byte	.LFB67
 6964 0024 2A000000 		.4byte	.LFE67
 6965 0028 00000000 		.4byte	.LFB68
 6966 002c 34000000 		.4byte	.LFE68
 6967 0030 00000000 		.4byte	.LFB69
 6968 0034 3C000000 		.4byte	.LFE69
 6969 0038 00000000 		.4byte	.LFB70
 6970 003c 4C020000 		.4byte	.LFE70
 6971 0040 00000000 		.4byte	.LFB71
 6972 0044 20000000 		.4byte	.LFE71
 6973 0048 00000000 		.4byte	.LFB72
 6974 004c 56000000 		.4byte	.LFE72
 6975 0050 00000000 		.4byte	.LFB73
 6976 0054 98000000 		.4byte	.LFE73
 6977 0058 00000000 		.4byte	.LFB74
 6978 005c 18000000 		.4byte	.LFE74
 6979 0060 00000000 		.4byte	.LFB75
 6980 0064 18000000 		.4byte	.LFE75
 6981 0068 00000000 		.4byte	.LFB76
 6982 006c 14000000 		.4byte	.LFE76
 6983 0070 00000000 		.4byte	.LFB77
 6984 0074 30000000 		.4byte	.LFE77
 6985 0078 00000000 		.4byte	.LFB78
 6986 007c 28000000 		.4byte	.LFE78
 6987 0080 00000000 		.4byte	.LFB79
 6988 0084 2C000000 		.4byte	.LFE79
 6989 0088 00000000 		.4byte	.LFB80
 6990 008c 20000000 		.4byte	.LFE80
 6991 0090 00000000 		.4byte	.LFB81
ARM GAS  C:\Users\mariu\AppData\Local\Temp\ccmFU017.s 			page 136


 6992 0094 20000000 		.4byte	.LFE81
 6993 0098 00000000 		.4byte	.LFB82
 6994 009c 80000000 		.4byte	.LFE82
 6995 00a0 00000000 		.4byte	.LFB83
 6996 00a4 C0000000 		.4byte	.LFE83
 6997 00a8 00000000 		.4byte	.LFB84
 6998 00ac 6C000000 		.4byte	.LFE84
 6999 00b0 00000000 		.4byte	.LFB85
 7000 00b4 AC010000 		.4byte	.LFE85
 7001 00b8 00000000 		.4byte	.LFB86
 7002 00bc 74010000 		.4byte	.LFE86
 7003 00c0 00000000 		.4byte	.LFB87
 7004 00c4 E2000000 		.4byte	.LFE87
 7005 00c8 00000000 		.4byte	.LFB88
 7006 00cc C8000000 		.4byte	.LFE88
 7007 00d0 00000000 		.4byte	.LFB89
 7008 00d4 D6010000 		.4byte	.LFE89
 7009 00d8 00000000 		.4byte	.LFB90
 7010 00dc 74000000 		.4byte	.LFE90
 7011 00e0 00000000 		.4byte	.LFB91
 7012 00e4 F0010000 		.4byte	.LFE91
 7013 00e8 00000000 		.4byte	.LFB92
 7014 00ec F4000000 		.4byte	.LFE92
 7015 00f0 00000000 		.4byte	.LFB93
 7016 00f4 3E000000 		.4byte	.LFE93
 7017 00f8 00000000 		.4byte	.LFB94
 7018 00fc 1C000000 		.4byte	.LFE94
 7019 0100 00000000 		.4byte	0
 7020 0104 00000000 		.4byte	0
 7021              		.section	.debug_line,"",%progbits
 7022              	.Ldebug_line0:
 7023 0000 F4050000 		.section	.debug_str,"MS",%progbits,1
 7023      02006601 
 7023      00000201 
 7023      FB0E0D00 
 7023      01010101 
 7024              	.LASF83:
 7025 0000 6766785F 		.ascii	"gfx_drawPixel\000"
 7025      64726177 
 7025      50697865 
 7025      6C00
 7026              	.LASF70:
 7027 000e 6766785F 		.ascii	"gfx_init\000"
 7027      696E6974 
 7027      00
 7028              	.LASF75:
 7029 0017 6766785F 		.ascii	"gfx_rotation\000"
 7029      726F7461 
 7029      74696F6E 
 7029      00
 7030              	.LASF13:
 7031 0024 756E7369 		.ascii	"unsigned int\000"
 7031      676E6564 
 7031      20696E74 
 7031      00
 7032              	.LASF79:
 7033 0031 6766785F 		.ascii	"gfx_setTextBg\000"
ARM GAS  C:\Users\mariu\AppData\Local\Temp\ccmFU017.s 			page 137


 7033      73657454 
 7033      65787442 
 7033      6700
 7034              	.LASF8:
 7035 003f 5F5F696E 		.ascii	"__int32_t\000"
 7035      7433325F 
 7035      7400
 7036              	.LASF116:
 7037 0049 474E5520 		.ascii	"GNU C11 5.4.1 20160609 (release) [ARM/embedded-5-br"
 7037      43313120 
 7037      352E342E 
 7037      31203230 
 7037      31363036 
 7038 007c 616E6368 		.ascii	"anch revision 237715] -mcpu=cortex-m3 -mthumb -g -O"
 7038      20726576 
 7038      6973696F 
 7038      6E203233 
 7038      37373135 
 7039 00af 30202D66 		.ascii	"0 -ffunction-sections -ffat-lto-objects\000"
 7039      66756E63 
 7039      74696F6E 
 7039      2D736563 
 7039      74696F6E 
 7040              	.LASF47:
 7041 00d7 69326361 		.ascii	"i2caddr\000"
 7041      64647200 
 7042              	.LASF81:
 7043 00df 6766785F 		.ascii	"gfx_setRotation\000"
 7043      73657452 
 7043      6F746174 
 7043      696F6E00 
 7044              	.LASF59:
 7045 00ef 64697370 		.ascii	"display_line\000"
 7045      6C61795F 
 7045      6C696E65 
 7045      00
 7046              	.LASF84:
 7047 00fc 6766785F 		.ascii	"gfx_hvLine\000"
 7047      68764C69 
 7047      6E6500
 7048              	.LASF28:
 7049 0107 5343524F 		.ascii	"SCROLL_DIR\000"
 7049      4C4C5F44 
 7049      495200
 7050              	.LASF114:
 7051 0112 726F7461 		.ascii	"rotation\000"
 7051      74696F6E 
 7051      00
 7052              	.LASF69:
 7053 011b 73706565 		.ascii	"speed\000"
 7053      6400
 7054              	.LASF52:
 7055 0121 64697370 		.ascii	"display_init\000"
 7055      6C61795F 
 7055      696E6974 
 7055      00
 7056              	.LASF29:
ARM GAS  C:\Users\mariu\AppData\Local\Temp\ccmFU017.s 			page 138


 7057 012e 5343524F 		.ascii	"SCROLL_SPEED_0\000"
 7057      4C4C5F53 
 7057      50454544 
 7057      5F3000
 7058              	.LASF30:
 7059 013d 5343524F 		.ascii	"SCROLL_SPEED_1\000"
 7059      4C4C5F53 
 7059      50454544 
 7059      5F3100
 7060              	.LASF31:
 7061 014c 5343524F 		.ascii	"SCROLL_SPEED_2\000"
 7061      4C4C5F53 
 7061      50454544 
 7061      5F3200
 7062              	.LASF32:
 7063 015b 5343524F 		.ascii	"SCROLL_SPEED_3\000"
 7063      4C4C5F53 
 7063      50454544 
 7063      5F3300
 7064              	.LASF33:
 7065 016a 5343524F 		.ascii	"SCROLL_SPEED_4\000"
 7065      4C4C5F53 
 7065      50454544 
 7065      5F3400
 7066              	.LASF34:
 7067 0179 5343524F 		.ascii	"SCROLL_SPEED_5\000"
 7067      4C4C5F53 
 7067      50454544 
 7067      5F3500
 7068              	.LASF35:
 7069 0188 5343524F 		.ascii	"SCROLL_SPEED_6\000"
 7069      4C4C5F53 
 7069      50454544 
 7069      5F3600
 7070              	.LASF36:
 7071 0197 5343524F 		.ascii	"SCROLL_SPEED_7\000"
 7071      4C4C5F53 
 7071      50454544 
 7071      5F3700
 7072              	.LASF113:
 7073 01a6 48454947 		.ascii	"HEIGHT\000"
 7073      485400
 7074              	.LASF14:
 7075 01ad 696E7438 		.ascii	"int8_t\000"
 7075      5F7400
 7076              	.LASF21:
 7077 01b4 666C6F61 		.ascii	"float\000"
 7077      7400
 7078              	.LASF60:
 7079 01ba 70737461 		.ascii	"pstart\000"
 7079      727400
 7080              	.LASF106:
 7081 01c1 63757273 		.ascii	"cursor_x\000"
 7081      6F725F78 
 7081      00
 7082              	.LASF107:
 7083 01ca 63757273 		.ascii	"cursor_y\000"
ARM GAS  C:\Users\mariu\AppData\Local\Temp\ccmFU017.s 			page 139


 7083      6F725F79 
 7083      00
 7084              	.LASF93:
 7085 01d3 6766785F 		.ascii	"gfx_drawTriangle\000"
 7085      64726177 
 7085      54726961 
 7085      6E676C65 
 7085      00
 7086              	.LASF110:
 7087 01e4 74657874 		.ascii	"textsize\000"
 7087      73697A65 
 7087      00
 7088              	.LASF16:
 7089 01ed 696E7431 		.ascii	"int16_t\000"
 7089      365F7400 
 7090              	.LASF12:
 7091 01f5 6C6F6E67 		.ascii	"long long unsigned int\000"
 7091      206C6F6E 
 7091      6720756E 
 7091      7369676E 
 7091      65642069 
 7092              	.LASF6:
 7093 020c 5F5F7569 		.ascii	"__uint16_t\000"
 7093      6E743136 
 7093      5F7400
 7094              	.LASF82:
 7095 0217 6766785F 		.ascii	"gfx_rotation_adjust\000"
 7095      726F7461 
 7095      74696F6E 
 7095      5F61646A 
 7095      75737400 
 7096              	.LASF112:
 7097 022b 57494454 		.ascii	"WIDTH\000"
 7097      4800
 7098              	.LASF90:
 7099 0231 6766785F 		.ascii	"gfx_drawCircle\000"
 7099      64726177 
 7099      43697263 
 7099      6C6500
 7100              	.LASF71:
 7101 0240 77696474 		.ascii	"width\000"
 7101      6800
 7102              	.LASF58:
 7103 0246 64697370 		.ascii	"display_setPixel\000"
 7103      6C61795F 
 7103      73657450 
 7103      6978656C 
 7103      00
 7104              	.LASF38:
 7105 0257 5343524F 		.ascii	"SCROLL_PAGE_0\000"
 7105      4C4C5F50 
 7105      4147455F 
 7105      3000
 7106              	.LASF39:
 7107 0265 5343524F 		.ascii	"SCROLL_PAGE_1\000"
 7107      4C4C5F50 
 7107      4147455F 
ARM GAS  C:\Users\mariu\AppData\Local\Temp\ccmFU017.s 			page 140


 7107      3100
 7108              	.LASF40:
 7109 0273 5343524F 		.ascii	"SCROLL_PAGE_2\000"
 7109      4C4C5F50 
 7109      4147455F 
 7109      3200
 7110              	.LASF41:
 7111 0281 5343524F 		.ascii	"SCROLL_PAGE_3\000"
 7111      4C4C5F50 
 7111      4147455F 
 7111      3300
 7112              	.LASF42:
 7113 028f 5343524F 		.ascii	"SCROLL_PAGE_4\000"
 7113      4C4C5F50 
 7113      4147455F 
 7113      3400
 7114              	.LASF43:
 7115 029d 5343524F 		.ascii	"SCROLL_PAGE_5\000"
 7115      4C4C5F50 
 7115      4147455F 
 7115      3500
 7116              	.LASF44:
 7117 02ab 5343524F 		.ascii	"SCROLL_PAGE_6\000"
 7117      4C4C5F50 
 7117      4147455F 
 7117      3600
 7118              	.LASF45:
 7119 02b9 5343524F 		.ascii	"SCROLL_PAGE_7\000"
 7119      4C4C5F50 
 7119      4147455F 
 7119      3700
 7120              	.LASF101:
 7121 02c7 53534431 		.ascii	"SSD1306_buffer\000"
 7121      3330365F 
 7121      62756666 
 7121      657200
 7122              	.LASF85:
 7123 02d6 6766785F 		.ascii	"gfx_drawLine\000"
 7123      64726177 
 7123      4C696E65 
 7123      00
 7124              	.LASF57:
 7125 02e3 64697370 		.ascii	"display_update\000"
 7125      6C61795F 
 7125      75706461 
 7125      746500
 7126              	.LASF23:
 7127 02f2 63686172 		.ascii	"char\000"
 7127      00
 7128              	.LASF56:
 7129 02f7 696E7665 		.ascii	"invert\000"
 7129      727400
 7130              	.LASF15:
 7131 02fe 75696E74 		.ascii	"uint8_t\000"
 7131      385F7400 
 7132              	.LASF50:
 7133 0306 73746174 		.ascii	"status\000"
ARM GAS  C:\Users\mariu\AppData\Local\Temp\ccmFU017.s 			page 141


 7133      757300
 7134              	.LASF88:
 7135 030d 6766785F 		.ascii	"gfx_drawRect\000"
 7135      64726177 
 7135      52656374 
 7135      00
 7136              	.LASF104:
 7137 031a 5F776964 		.ascii	"_width\000"
 7137      746800
 7138              	.LASF86:
 7139 0321 73746565 		.ascii	"steep\000"
 7139      7000
 7140              	.LASF11:
 7141 0327 6C6F6E67 		.ascii	"long long int\000"
 7141      206C6F6E 
 7141      6720696E 
 7141      7400
 7142              	.LASF54:
 7143 0335 636F6E74 		.ascii	"contrast\000"
 7143      72617374 
 7143      00
 7144              	.LASF37:
 7145 033e 5343524F 		.ascii	"SCROLL_SPEED\000"
 7145      4C4C5F53 
 7145      50454544 
 7145      00
 7146              	.LASF46:
 7147 034b 5343524F 		.ascii	"SCROLL_AREA\000"
 7147      4C4C5F41 
 7147      52454100 
 7148              	.LASF73:
 7149 0357 6766785F 		.ascii	"gfx_width\000"
 7149      77696474 
 7149      6800
 7150              	.LASF4:
 7151 0361 5F5F696E 		.ascii	"__int16_t\000"
 7151      7431365F 
 7151      7400
 7152              	.LASF105:
 7153 036b 5F686569 		.ascii	"_height\000"
 7153      67687400 
 7154              	.LASF48:
 7155 0373 73697A65 		.ascii	"size\000"
 7155      00
 7156              	.LASF103:
 7157 0378 5F646973 		.ascii	"_displaybuf_size\000"
 7157      706C6179 
 7157      6275665F 
 7157      73697A65 
 7157      00
 7158              	.LASF20:
 7159 0389 75696E74 		.ascii	"uint32\000"
 7159      333200
 7160              	.LASF119:
 7161 0390 64697370 		.ascii	"display_write_buf\000"
 7161      6C61795F 
 7161      77726974 
ARM GAS  C:\Users\mariu\AppData\Local\Temp\ccmFU017.s 			page 142


 7161      655F6275 
 7161      6600
 7162              	.LASF62:
 7163 03a2 6D61736B 		.ascii	"mask\000"
 7163      00
 7164              	.LASF100:
 7165 03a7 5F693263 		.ascii	"_i2caddr\000"
 7165      61646472 
 7165      00
 7166              	.LASF72:
 7167 03b0 68656967 		.ascii	"height\000"
 7167      687400
 7168              	.LASF78:
 7169 03b7 6766785F 		.ascii	"gfx_setTextColor\000"
 7169      73657454 
 7169      65787443 
 7169      6F6C6F72 
 7169      00
 7170              	.LASF0:
 7171 03c8 5F5F696E 		.ascii	"__int8_t\000"
 7171      74385F74 
 7171      00
 7172              	.LASF24:
 7173 03d1 6C6F6E67 		.ascii	"long double\000"
 7173      20646F75 
 7173      626C6500 
 7174              	.LASF74:
 7175 03dd 6766785F 		.ascii	"gfx_height\000"
 7175      68656967 
 7175      687400
 7176              	.LASF17:
 7177 03e8 75696E74 		.ascii	"uint16_t\000"
 7177      31365F74 
 7177      00
 7178              	.LASF117:
 7179 03f1 73736431 		.ascii	"ssd1306.c\000"
 7179      3330362E 
 7179      6300
 7180              	.LASF89:
 7181 03fb 6766785F 		.ascii	"gfx_fillRect\000"
 7181      66696C6C 
 7181      52656374 
 7181      00
 7182              	.LASF5:
 7183 0408 73686F72 		.ascii	"short int\000"
 7183      7420696E 
 7183      7400
 7184              	.LASF65:
 7185 0412 7069786D 		.ascii	"pixmask\000"
 7185      61736B00 
 7186              	.LASF9:
 7187 041a 6C6F6E67 		.ascii	"long int\000"
 7187      20696E74 
 7187      00
 7188              	.LASF98:
 7189 0423 6766785F 		.ascii	"gfx_println\000"
 7189      7072696E 
ARM GAS  C:\Users\mariu\AppData\Local\Temp\ccmFU017.s 			page 143


 7189      746C6E00 
 7190              	.LASF111:
 7191 042f 49544D5F 		.ascii	"ITM_RxBuffer\000"
 7191      52784275 
 7191      66666572 
 7191      00
 7192              	.LASF96:
 7193 043c 6766785F 		.ascii	"gfx_write\000"
 7193      77726974 
 7193      6500
 7194              	.LASF55:
 7195 0446 64697370 		.ascii	"display_invert\000"
 7195      6C61795F 
 7195      696E7665 
 7195      727400
 7196              	.LASF51:
 7197 0455 636F6C6F 		.ascii	"color\000"
 7197      7200
 7198              	.LASF77:
 7199 045b 6766785F 		.ascii	"gfx_setTextSize\000"
 7199      73657454 
 7199      65787453 
 7199      697A6500 
 7200              	.LASF1:
 7201 046b 5F5F7569 		.ascii	"__uint8_t\000"
 7201      6E74385F 
 7201      7400
 7202              	.LASF63:
 7203 0475 6C626974 		.ascii	"lbit\000"
 7203      00
 7204              	.LASF68:
 7205 047a 73746172 		.ascii	"start\000"
 7205      7400
 7206              	.LASF97:
 7207 0480 6766785F 		.ascii	"gfx_print\000"
 7207      7072696E 
 7207      7400
 7208              	.LASF87:
 7209 048a 79737465 		.ascii	"ystep\000"
 7209      7000
 7210              	.LASF99:
 7211 0490 666F6E74 		.ascii	"font\000"
 7211      00
 7212              	.LASF25:
 7213 0495 73697A65 		.ascii	"sizetype\000"
 7213      74797065 
 7213      00
 7214              	.LASF49:
 7215 049e 636D6462 		.ascii	"cmdbuf\000"
 7215      756600
 7216              	.LASF10:
 7217 04a5 6C6F6E67 		.ascii	"long unsigned int\000"
 7217      20756E73 
 7217      69676E65 
 7217      6420696E 
 7217      7400
 7218              	.LASF27:
ARM GAS  C:\Users\mariu\AppData\Local\Temp\ccmFU017.s 			page 144


 7219 04b7 5343524F 		.ascii	"SCROLL_LEFT\000"
 7219      4C4C5F4C 
 7219      45465400 
 7220              	.LASF120:
 7221 04c3 64697370 		.ascii	"display_clear\000"
 7221      6C61795F 
 7221      636C6561 
 7221      7200
 7222              	.LASF18:
 7223 04d1 696E7433 		.ascii	"int32_t\000"
 7223      325F7400 
 7224              	.LASF115:
 7225 04d9 77726170 		.ascii	"wrap\000"
 7225      00
 7226              	.LASF118:
 7227 04de 433A5C55 		.ascii	"C:\\Users\\mariu\\Documents\\PSoC Creator\\PSoC_Aud"
 7227      73657273 
 7227      5C6D6172 
 7227      69755C44 
 7227      6F63756D 
 7228 050c 696F5F4D 		.ascii	"io_MIDI\\PSoC_Audio_MIDI\\PSoC_Audio_MIDI.cydsn\000"
 7228      4944495C 
 7228      50536F43 
 7228      5F417564 
 7228      696F5F4D 
 7229              	.LASF61:
 7230 053a 70656E64 		.ascii	"pend\000"
 7230      00
 7231              	.LASF26:
 7232 053f 5343524F 		.ascii	"SCROLL_RIGHT\000"
 7232      4C4C5F52 
 7232      49474854 
 7232      00
 7233              	.LASF3:
 7234 054c 756E7369 		.ascii	"unsigned char\000"
 7234      676E6564 
 7234      20636861 
 7234      7200
 7235              	.LASF64:
 7236 055a 75626974 		.ascii	"ubit\000"
 7236      00
 7237              	.LASF95:
 7238 055f 6C696E65 		.ascii	"line\000"
 7238      00
 7239              	.LASF94:
 7240 0564 6766785F 		.ascii	"gfx_drawChar\000"
 7240      64726177 
 7240      43686172 
 7240      00
 7241              	.LASF67:
 7242 0571 64697370 		.ascii	"display_scroll\000"
 7242      6C61795F 
 7242      7363726F 
 7242      6C6C00
 7243              	.LASF102:
 7244 0580 5F646973 		.ascii	"_displaybuf\000"
 7244      706C6179 
ARM GAS  C:\Users\mariu\AppData\Local\Temp\ccmFU017.s 			page 145


 7244      62756600 
 7245              	.LASF53:
 7246 058c 64697370 		.ascii	"display_contrast\000"
 7246      6C61795F 
 7246      636F6E74 
 7246      72617374 
 7246      00
 7247              	.LASF91:
 7248 059d 6464465F 		.ascii	"ddF_x\000"
 7248      7800
 7249              	.LASF92:
 7250 05a3 6464465F 		.ascii	"ddF_y\000"
 7250      7900
 7251              	.LASF2:
 7252 05a9 7369676E 		.ascii	"signed char\000"
 7252      65642063 
 7252      68617200 
 7253              	.LASF7:
 7254 05b5 73686F72 		.ascii	"short unsigned int\000"
 7254      7420756E 
 7254      7369676E 
 7254      65642069 
 7254      6E7400
 7255              	.LASF66:
 7256 05c8 64697370 		.ascii	"display_stopscroll\000"
 7256      6C61795F 
 7256      73746F70 
 7256      7363726F 
 7256      6C6C00
 7257              	.LASF19:
 7258 05db 75696E74 		.ascii	"uint8\000"
 7258      3800
 7259              	.LASF22:
 7260 05e1 646F7562 		.ascii	"double\000"
 7260      6C6500
 7261              	.LASF108:
 7262 05e8 74657874 		.ascii	"textcolor\000"
 7262      636F6C6F 
 7262      7200
 7263              	.LASF109:
 7264 05f2 74657874 		.ascii	"textbgcolor\000"
 7264      6267636F 
 7264      6C6F7200 
 7265              	.LASF76:
 7266 05fe 6766785F 		.ascii	"gfx_setCursor\000"
 7266      73657443 
 7266      7572736F 
 7266      7200
 7267              	.LASF80:
 7268 060c 6766785F 		.ascii	"gfx_setTextWrap\000"
 7268      73657454 
 7268      65787457 
 7268      72617000 
 7269              		.ident	"GCC: (GNU Tools for ARM Embedded Processors) 5.4.1 20160609 (release) [ARM/embedded-5-bran
